 DetectFaces

 Timestamp is 5b752faf (Thu Aug 16 11:02:55 2018)

 Preferred load address is 10000000

 Start         Length     Name                   Class
 0001:00000000 00000190H .text$di                CODE
 0001:00000190 00022240H .text$mn                CODE
 0001:000223d0 0000206aH .text$x                 CODE
 0001:0002443a 0000000aH .text$yd                CODE
 0002:00000000 000002b4H .idata$5                DATA
 0002:000002b4 00000004H .00cfg                  DATA
 0002:000002b8 00000004H .CRT$XCA                DATA
 0002:000002bc 00000004H .CRT$XCL                DATA
 0002:000002c0 00000030H .CRT$XCU                DATA
 0002:000002f0 00000004H .CRT$XCZ                DATA
 0002:000002f4 00000004H .CRT$XIA                DATA
 0002:000002f8 00000004H .CRT$XIZ                DATA
 0002:000002fc 00000004H .CRT$XPA                DATA
 0002:00000300 00000004H .CRT$XPZ                DATA
 0002:00000304 00000004H .CRT$XTA                DATA
 0002:00000308 00000008H .CRT$XTZ                DATA
 0002:0000030c 00000000H .gfids$y                DATA
 0002:00000310 00003890H .rdata                  DATA
 0002:00003ba0 000013f0H .rdata$r                DATA
 0002:00004f90 00000234H .rdata$sxdata           DATA
 0002:000051c4 00000318H .rdata$zzzdbg           DATA
 0002:000054dc 00000004H .rtc$IAA                DATA
 0002:000054e0 00000004H .rtc$IZZ                DATA
 0002:000054e4 00000004H .rtc$TAA                DATA
 0002:000054e8 00000008H .rtc$TZZ                DATA
 0002:000054f0 000024e0H .xdata$x                DATA
 0002:000079d0 00000080H .edata                  DATA
 0002:00007a50 000000dcH .idata$2                DATA
 0002:00007b2c 00000014H .idata$3                DATA
 0002:00007b40 000002b4H .idata$4                DATA
 0002:00007df4 00001c3eH .idata$6                DATA
 0003:00000000 00000028H .data                   DATA
 0003:00000028 00001118H .data$r                 DATA
 0003:00001140 000003c4H .bss                    DATA
 0004:00000000 00000060H .rsrc$01                DATA
 0004:00000060 00000180H .rsrc$02                DATA

  Address         Publics by Value              Rva+Base       Lib:Object

 0000:00000000       ___guard_iat_count         00000000     <absolute>
 0000:00000000       ___guard_iat_table         00000000     <absolute>
 0000:00000000       ___guard_longjmp_table     00000000     <absolute>
 0000:00000000       ___dynamic_value_reloc_table 00000000     <absolute>
 0000:00000000       ___enclave_config          00000000     <absolute>
 0000:00000000       ___hybrid_code_map         00000000     <absolute>
 0000:00000000       ___hybrid_auxiliary_iat    00000000     <absolute>
 0000:00000000       ___guard_fids_table        00000000     <absolute>
 0000:00000000       ___guard_fids_count        00000000     <absolute>
 0000:00000000       ___guard_longjmp_count     00000000     <absolute>
 0000:00000000       ___hybrid_code_map_count   00000000     <absolute>
 0000:0000008d       ___safe_se_handler_count   0000008d     <absolute>
 0000:00000100       ___guard_flags             00000100     <absolute>
 0000:00000000       ___ImageBase               10000000     <linker-defined>
 0001:00000190       _wmemcpy                   10001190 f i detectFaces.obj
 0001:000001b0       ?max_size@?$_Default_allocator_traits@V?$allocator@_W@std@@@std@@SAIABV?$allocator@_W@2@@Z 100011b0 f i detectFaces.obj
 0001:000001b0       ?max@?$numeric_limits@H@std@@SAHXZ 100011b0 f i detectFaces.obj
 0001:000001c0       ??2@YAPAXIPAX@Z            100011c0 f i detectFaces.obj
 0001:000001d0       ?length@?$char_traits@D@std@@SAIQBD@Z 100011d0 f i detectFaces.obj
 0001:00000210       ?copy@?$char_traits@D@std@@SAPADQADQBDI@Z 10001210 f i detectFaces.obj
 0001:00000230       ?assign@?$char_traits@D@std@@SAXAADABD@Z 10001230 f i detectFaces.obj
 0001:00000240       ?eq_int_type@?$char_traits@D@std@@SA_NABH0@Z 10001240 f i detectFaces.obj
 0001:00000270       ?max@?$numeric_limits@I@std@@SAIXZ 10001270 f i Face.obj
 0001:00000270       ?max_size@?$_Default_allocator_traits@V?$allocator@D@std@@@std@@SAIABV?$allocator@D@2@@Z 10001270 f i detectFaces.obj
 0001:00000270       ?eof@?$char_traits@D@std@@SAHXZ 10001270 f i detectFaces.obj
 0001:00000280       ??1_Bxty@?$_String_val@U?$_Simple_types@_W@std@@@std@@QAE@XZ 10001280 f i detectFaces.obj
 0001:00000280       ?_Free_proxy@?$_Vb_val@V?$allocator@_N@std@@@std@@QAEXXZ 10001280 f i Face.obj
 0001:00000280       ?_Orphan_all@_Container_base0@std@@QAEXXZ 10001280 f i detectFaces.obj
 0001:00000280       ??1JsonWriter@@QAE@XZ      10001280 f i JsonWriter.obj
 0001:00000280       ??1error_category@std@@UAE@XZ 10001280 f i Detector.obj
 0001:00000280       ?_Alloc_proxy@?$_Vb_val@V?$allocator@_N@std@@@std@@QAEXXZ 10001280 f i Face.obj
 0001:00000280       ??1_Bxty@?$_String_val@U?$_Simple_types@D@std@@@std@@QAE@XZ 10001280 f i detectFaces.obj
 0001:00000280       ??1?$ordered_index_impl@U?$member@U?$pair@$$CBV?$basic_string@DU?$char_traits@D@std@@V?$allocator@D@2@@std@@V?$basic_ptree@V?$basic_string@DU?$char_traits@D@std@@V?$allocator@D@2@@std@@V12@U?$less@V?$basic_string@DU?$char_traits@D@std@@V?$allocator@D@2@@std@@@2@@property_tree@boost@@@std@@$$CBV?$basic_string@DU?$char_traits@D@std@@V?$allocator@D@2@@2@$0A@@multi_index@boost@@U?$less@V?$basic_string@DU?$char_traits@D@std@@V?$allocator@D@2@@std@@@std@@U?$nth_layer@$01U?$pair@$$CBV?$basic_string@DU?$char_traits@D@std@@V?$allocator@D@2@@std@@V?$basic_ptree@V?$basic_string@DU?$char_traits@D@std@@V?$allocator@D@2@@std@@V12@U?$less@V?$basic_string@DU?$char_traits@D@std@@V?$allocator@D@2@@std@@@2@@property_tree@boost@@@std@@U?$indexed_by@U?$sequenced@U?$tag@Una@mpl@boost@@U123@U123@U123@U123@U123@U123@U123@U123@U123@U123@U123@U123@U123@U123@U123@U123@U123@U123@U123@@multi_index@boost@@@multi_index@boost@@U?$ordered_non_unique@U?$tag@Uby_name@subs@?$basic_ptree@V?$basic_string@DU?$char_traits@D@std@@V?$allocator@D@2@@std@@V12@U?$less@V?$basic_string@DU?$char_traits@D@std@@V?$allocator@D@2@@std@@@2@@property_tree@boost@@Una@mpl@5@U675@U675@U675@U675@U675@U675@U675@U675@U675@U675@U675@U675@U675@U675@U675@U675@U675@U675@@multi_index@boost@@U?$member@U?$pair@$$CBV?$basic_string@DU?$char_traits@D@std@@V?$allocator@D@2@@std@@V?$basic_ptree@V?$basic_string@DU?$char_traits@D@std@@V?$allocator@D@2@@std@@V12@U?$less@V?$basic_string@DU?$char_traits@D@std@@V?$allocator@D@2@@std@@@2@@property_tree@boost@@@std@@$$CBV?$basic_string@DU?$char_traits@D@std@@V?$allocator@D@2@@2@$0A@@23@U?$less@V?$basic_string@DU?$char_traits@D@std@@V?$allocator@D@2@@std@@@std@@@23@Una@mpl@3@U563@U563@U563@U563@U563@U563@U563@U563@U563@U563@U563@U563@U563@U563@U563@U563@U563@@multi_index@boost@@V?$allocator@U?$pair@$$CBV?$basic_string@DU?$char_traits@D@std@@V?$allocator@D@2@@std@@V?$basic_ptree@V?$basic_string@DU?$char_traits@D@std@@V?$allocator@D@2@@std@@V12@U?$less@V?$basic_string@DU?$char_traits@D@std@@V?$allocator@D@2@@std@@@2@@property_tree@boost@@@std@@@2@@detail@23@U?$vector1@Uby_name@subs@?$basic_ptree@V?$basic_string@DU?$char_traits@D@std@@V?$allocator@D@2@@std@@V12@U?$less@V?$basic_string@DU?$char_traits@D@std@@V?$allocator@D@2@@std@@@2@@property_tree@boost@@@mpl@3@Uordered_non_unique_tag@723@Unull_augment_policy@723@@detail@multi_index@boost@@IAE@XZ 10001280 f i JsonWriter.obj
 0001:00000290       ??$forward@ABQA_W@std@@YAABQA_WABQA_W@Z 10001290 f i detectFaces.obj
 0001:00000290       ??$_Unfancy@VFace@@@std@@YAPAVFace@@PAV1@@Z 10001290 f i detectFaces.obj
 0001:00000290       ??$_Unfancy@I@std@@YAPAIPAI@Z 10001290 f i Face.obj
 0001:00000290       ??$forward@AAPAU?$sequenced_index_node@U?$ordered_index_node@Unull_augment_policy@detail@multi_index@boost@@U?$index_node_base@U?$pair@$$CBV?$basic_string@DU?$char_traits@D@std@@V?$allocator@D@2@@std@@V?$basic_ptree@V?$basic_string@DU?$char_traits@D@std@@V?$allocator@D@2@@std@@V12@U?$less@V?$basic_string@DU?$char_traits@D@std@@V?$allocator@D@2@@std@@@2@@property_tree@boost@@@std@@V?$allocator@U?$pair@$$CBV?$basic_string@DU?$char_traits@D@std@@V?$allocator@D@2@@std@@V?$basic_ptree@V?$basic_string@DU?$char_traits@D@std@@V?$allocator@D@2@@std@@V12@U?$less@V?$basic_string@DU?$char_traits@D@std@@V?$allocator@D@2@@std@@@2@@property_tree@boost@@@std@@@2@@234@@detail@multi_index@boost@@@detail@multi_index@boost@@@std@@YAAAPAU?$sequenced_index_node@U?$ordered_index_node@Unull_augment_policy@detail@multi_index@boost@@U?$index_node_base@U?$pair@$$CBV?$basic_string@DU?$char_traits@D@std@@V?$allocator@D@2@@std@@V?$basic_ptree@V?$basic_string@DU?$char_traits@D@std@@V?$allocator@D@2@@std@@V12@U?$less@V?$basic_string@DU?$char_traits@D@std@@V?$allocator@D@2@@std@@@2@@property_tree@boost@@@std@@V?$allocator@U?$pair@$$CBV?$basic_string@DU?$char_traits@D@std@@V?$allocator@D@2@@std@@V?$basic_ptree@V?$basic_string@DU?$char_traits@D@std@@V?$allocator@D@2@@std@@V12@U?$less@V?$basic_string@DU?$char_traits@D@std@@V?$allocator@D@2@@std@@@2@@property_tree@boost@@@std@@@2@@234@@detail@multi_index@boost@@@detail@multi_index@boost@@AAPAU1234@@Z 10001290 f i JsonWriter.obj
 0001:00000290       ?select_on_container_copy_construction@?$_Default_allocator_traits@V?$allocator@VFace@@@std@@@std@@SA?AV?$allocator@VFace@@@2@ABV32@@Z 10001290 f i detectFaces.obj
 0001:00000290       ?select_on_container_copy_construction@?$_Default_allocator_traits@V?$allocator@V?$Point_@H@cv@@@std@@@std@@SA?AV?$allocator@V?$Point_@H@cv@@@2@ABV32@@Z 10001290 f i detectFaces.obj
 0001:00000290       ?select_on_container_copy_construction@?$_Default_allocator_traits@V?$allocator@D@std@@@std@@SA?AV?$allocator@D@2@ABV32@@Z 10001290 f i detectFaces.obj
 0001:00000290       ??$move@AAVFace@@@std@@YA$$QAVFace@@AAV1@@Z 10001290 f i Detector.obj
 0001:00000290       ??$forward@V?$allocator@V?$Point_@H@cv@@@std@@@std@@YA$$QAV?$allocator@V?$Point_@H@cv@@@0@AAV10@@Z 10001290 f i detectFaces.obj
 0001:00000290       ??$move@AAV?$allocator@V?$Point_@H@cv@@@std@@@std@@YA$$QAV?$allocator@V?$Point_@H@cv@@@0@AAV10@@Z 10001290 f i Detector.obj
 0001:00000290       ??$forward@AAVFace@@@std@@YAAAVFace@@AAV1@@Z 10001290 f i detectFaces.obj
 0001:00000290       ??$forward@AA_N@std@@YAAA_NAA_N@Z 10001290 f i JsonWriter.obj
 0001:00000290       ??$_Unchecked@PBU?$copy_map_entry@U?$sequenced_index_node@U?$ordered_index_node@Unull_augment_policy@detail@multi_index@boost@@U?$index_node_base@U?$pair@$$CBV?$basic_string@DU?$char_traits@D@std@@V?$allocator@D@2@@std@@V?$basic_ptree@V?$basic_string@DU?$char_traits@D@std@@V?$allocator@D@2@@std@@V12@U?$less@V?$basic_string@DU?$char_traits@D@std@@V?$allocator@D@2@@std@@@2@@property_tree@boost@@@std@@V?$allocator@U?$pair@$$CBV?$basic_string@DU?$char_traits@D@std@@V?$allocator@D@2@@std@@V?$basic_ptree@V?$basic_string@DU?$char_traits@D@std@@V?$allocator@D@2@@std@@V12@U?$less@V?$basic_string@DU?$char_traits@D@std@@V?$allocator@D@2@@std@@@2@@property_tree@boost@@@std@@@2@@234@@detail@multi_index@boost@@@detail@multi_index@boost@@@detail@multi_index@boost@@@std@@YAPBU?$copy_map_entry@U?$sequenced_index_node@U?$ordered_index_node@Unull_augment_policy@detail@multi_index@boost@@U?$index_node_base@U?$pair@$$CBV?$basic_string@DU?$char_traits@D@std@@V?$allocator@D@2@@std@@V?$basic_ptree@V?$basic_string@DU?$char_traits@D@std@@V?$allocator@D@2@@std@@V12@U?$less@V?$basic_string@DU?$char_traits@D@std@@V?$allocator@D@2@@std@@@2@@property_tree@boost@@@std@@V?$allocator@U?$pair@$$CBV?$basic_string@DU?$char_traits@D@std@@V?$allocator@D@2@@std@@V?$basic_ptree@V?$basic_string@DU?$char_traits@D@std@@V?$allocator@D@2@@std@@V12@U?$less@V?$basic_string@DU?$char_traits@D@std@@V?$allocator@D@2@@std@@@2@@property_tree@boost@@@std@@@2@@234@@detail@multi_index@boost@@@detail@multi_index@boost@@@detail@multi_index@boost@@PBU1234@@Z 10001290 f i JsonWriter.obj
 0001:00000290       ??$_Unchecked@PAV?$Rect_@H@cv@@@std@@YAPAV?$Rect_@H@cv@@PAV12@@Z 10001290 f i detectFaces.obj
 0001:00000290       ?call@?$apply@U?$cons@U?$member@U?$pair@$$CBV?$basic_string@DU?$char_traits@D@std@@V?$allocator@D@2@@std@@V?$basic_ptree@V?$basic_string@DU?$char_traits@D@std@@V?$allocator@D@2@@std@@V12@U?$less@V?$basic_string@DU?$char_traits@D@std@@V?$allocator@D@2@@std@@@2@@property_tree@boost@@@std@@$$CBV?$basic_string@DU?$char_traits@D@std@@V?$allocator@D@2@@2@$0A@@multi_index@boost@@U?$cons@U?$less@V?$basic_string@DU?$char_traits@D@std@@V?$allocator@D@2@@std@@@std@@Unull_type@tuples@boost@@@tuples@3@@tuples@boost@@@?$drop_front@$0A@@detail@tuples@boost@@SAABU?$cons@U?$member@U?$pair@$$CBV?$basic_string@DU?$char_traits@D@std@@V?$allocator@D@2@@std@@V?$basic_ptree@V?$basic_string@DU?$char_traits@D@std@@V?$allocator@D@2@@std@@V12@U?$less@V?$basic_string@DU?$char_traits@D@std@@V?$allocator@D@2@@std@@@2@@property_tree@boost@@@std@@$$CBV?$basic_string@DU?$char_traits@D@std@@V?$allocator@D@2@@2@$0A@@multi_index@boost@@U?$cons@U?$less@V?$basic_string@DU?$char_traits@D@std@@V?$allocator@D@2@@std@@@std@@Unull_type@tuples@boost@@@tuples@3@@45@ABU645@@Z 10001290 f i JsonWriter.obj
 0001:00000290       ??$addressof@V?$basic_ptree@V?$basic_string@DU?$char_traits@D@std@@V?$allocator@D@2@@std@@V12@U?$less@V?$basic_string@DU?$char_traits@D@std@@V?$allocator@D@2@@std@@@2@@property_tree@boost@@@boost@@YAPAV?$basic_ptree@V?$basic_string@DU?$char_traits@D@std@@V?$allocator@D@2@@std@@V12@U?$less@V?$basic_string@DU?$char_traits@D@std@@V?$allocator@D@2@@std@@@2@@property_tree@0@AAV120@@Z 10001290 f i JsonWriter.obj
 0001:00000290       ??$forward@ABQAD@std@@YAABQADABQAD@Z 10001290 f i detectFaces.obj
 0001:00000290       ??$forward@AAV?$Point_@H@cv@@@std@@YAAAV?$Point_@H@cv@@AAV12@@Z 10001290 f i detectFaces.obj
 0001:00000290       ??$forward@_N@std@@YA$$QA_NAA_N@Z 10001290 f i JsonWriter.obj
 0001:00000290       ??$forward@ABV?$allocator@_W@std@@@std@@YAABV?$allocator@_W@0@ABV10@@Z 10001290 f i Face.obj
 0001:00000290       ??$addressof@V?$_Vector_val@U?$_Simple_types@I@std@@@std@@@std@@YAPAV?$_Vector_val@U?$_Simple_types@I@std@@@0@AAV10@@Z 10001290 f i Face.obj
 0001:00000290       ??$move@AAV?$Point_@H@cv@@@std@@YA$$QAV?$Point_@H@cv@@AAV12@@Z 10001290 f i Detector.obj
 0001:00000290       ??$move@AAV?$vector@V?$Rect_@H@cv@@V?$allocator@V?$Rect_@H@cv@@@std@@@std@@@std@@YA$$QAV?$vector@V?$Rect_@H@cv@@V?$allocator@V?$Rect_@H@cv@@@std@@@0@AAV10@@Z 10001290 f i Detector.obj
 0001:00000290       ??$forward@AAPAV_Facet_base@std@@@std@@YAAAPAV_Facet_base@0@AAPAV10@@Z 10001290 f i Face.obj
 0001:00000290       ??$addressof@$$CBV?$codecvt@DDU_Mbstatet@@@std@@@std@@YAPBV?$codecvt@DDU_Mbstatet@@@0@ABV10@@Z 10001290 f i JsonWriter.obj
 0001:00000290       ??$addressof@$$CBV?$basic_string@DU?$char_traits@D@std@@V?$allocator@D@2@@std@@@std@@YAPBV?$basic_string@DU?$char_traits@D@std@@V?$allocator@D@2@@0@ABV10@@Z 10001290 f i Face.obj
 0001:00000290       ??$addressof@PAD@std@@YAPAPADAAPAD@Z 10001290 f i detectFaces.obj
 0001:00000290       ??$_Unfancy@_W@std@@YAPA_WPA_W@Z 10001290 f i detectFaces.obj
 0001:00000290       ??$forward@ABVFace@@@std@@YAABVFace@@ABV1@@Z 10001290 f i Detector.obj
 0001:00000290       ??$forward@ABU?$format_item@DU?$char_traits@D@std@@V?$allocator@D@2@@detail@io@boost@@@std@@YAABU?$format_item@DU?$char_traits@D@std@@V?$allocator@D@2@@detail@io@boost@@ABU1234@@Z 10001290 f i Face.obj
 0001:00000290       ??$move@AAU?$copy_map_entry@U?$sequenced_index_node@U?$ordered_index_node@Unull_augment_policy@detail@multi_index@boost@@U?$index_node_base@U?$pair@$$CBV?$basic_string@DU?$char_traits@D@std@@V?$allocator@D@2@@std@@V?$basic_ptree@V?$basic_string@DU?$char_traits@D@std@@V?$allocator@D@2@@std@@V12@U?$less@V?$basic_string@DU?$char_traits@D@std@@V?$allocator@D@2@@std@@@2@@property_tree@boost@@@std@@V?$allocator@U?$pair@$$CBV?$basic_string@DU?$char_traits@D@std@@V?$allocator@D@2@@std@@V?$basic_ptree@V?$basic_string@DU?$char_traits@D@std@@V?$allocator@D@2@@std@@V12@U?$less@V?$basic_string@DU?$char_traits@D@std@@V?$allocator@D@2@@std@@@2@@property_tree@boost@@@std@@@2@@234@@detail@multi_index@boost@@@detail@multi_index@boost@@@detail@multi_index@boost@@@std@@YA$$QAU?$copy_map_entry@U?$sequenced_index_node@U?$ordered_index_node@Unull_augment_policy@detail@multi_index@boost@@U?$index_node_base@U?$pair@$$CBV?$basic_string@DU?$char_traits@D@std@@V?$allocator@D@2@@std@@V?$basic_ptree@V?$basic_string@DU?$char_traits@D@std@@V?$allocator@D@2@@std@@V12@U?$less@V?$basic_string@DU?$char_traits@D@std@@V?$allocator@D@2@@std@@@2@@property_tree@boost@@@std@@V?$allocator@U?$pair@$$CBV?$basic_string@DU?$char_traits@D@std@@V?$allocator@D@2@@std@@V?$basic_ptree@V?$basic_string@DU?$char_traits@D@std@@V?$allocator@D@2@@std@@V12@U?$less@V?$basic_string@DU?$char_traits@D@std@@V?$allocator@D@2@@std@@@2@@property_tree@boost@@@std@@@2@@234@@detail@multi_index@boost@@@detail@multi_index@boost@@@detail@multi_index@boost@@AAU1234@@Z 10001290 f i JsonWriter.obj
 0001:00000290       ??$forward@AAV?$Rect_@H@cv@@@std@@YAAAV?$Rect_@H@cv@@AAV12@@Z 10001290 f i detectFaces.obj
 0001:00000290       ??$forward@AAV?$basic_string@DU?$char_traits@D@std@@V?$allocator@D@2@@std@@@std@@YAAAV?$basic_string@DU?$char_traits@D@std@@V?$allocator@D@2@@0@AAV10@@Z 10001290 f i JsonWriter.obj
 0001:00000290       ??$move@AAPAX@std@@YA$$QAPAXAAPAX@Z 10001290 f i JsonWriter.obj
 0001:00000290       ??$_Unfancy@V?$Rect_@H@cv@@@std@@YAPAV?$Rect_@H@cv@@PAV12@@Z 10001290 f i detectFaces.obj
 0001:00000290       ??$addressof@V?$_Vector_val@U?$_Simple_types@V?$Point_@H@cv@@@std@@@std@@@std@@YAPAV?$_Vector_val@U?$_Simple_types@V?$Point_@H@cv@@@std@@@0@AAV10@@Z 10001290 f i Detector.obj
 0001:00000290       ??$move@AAV?$vector@V?$Point_@H@cv@@V?$allocator@V?$Point_@H@cv@@@std@@@std@@@std@@YA$$QAV?$vector@V?$Point_@H@cv@@V?$allocator@V?$Point_@H@cv@@@std@@@0@AAV10@@Z 10001290 f i Detector.obj
 0001:00000290       ??$_Unchecked@PAU?$copy_map_entry@U?$sequenced_index_node@U?$ordered_index_node@Unull_augment_policy@detail@multi_index@boost@@U?$index_node_base@U?$pair@$$CBV?$basic_string@DU?$char_traits@D@std@@V?$allocator@D@2@@std@@V?$basic_ptree@V?$basic_string@DU?$char_traits@D@std@@V?$allocator@D@2@@std@@V12@U?$less@V?$basic_string@DU?$char_traits@D@std@@V?$allocator@D@2@@std@@@2@@property_tree@boost@@@std@@V?$allocator@U?$pair@$$CBV?$basic_string@DU?$char_traits@D@std@@V?$allocator@D@2@@std@@V?$basic_ptree@V?$basic_string@DU?$char_traits@D@std@@V?$allocator@D@2@@std@@V12@U?$less@V?$basic_string@DU?$char_traits@D@std@@V?$allocator@D@2@@std@@@2@@property_tree@boost@@@std@@@2@@234@@detail@multi_index@boost@@@detail@multi_index@boost@@@detail@multi_index@boost@@@std@@YAPAU?$copy_map_entry@U?$sequenced_index_node@U?$ordered_index_node@Unull_augment_policy@detail@multi_index@boost@@U?$index_node_base@U?$pair@$$CBV?$basic_string@DU?$char_traits@D@std@@V?$allocator@D@2@@std@@V?$basic_ptree@V?$basic_string@DU?$char_traits@D@std@@V?$allocator@D@2@@std@@V12@U?$less@V?$basic_string@DU?$char_traits@D@std@@V?$allocator@D@2@@std@@@2@@property_tree@boost@@@std@@V?$allocator@U?$pair@$$CBV?$basic_string@DU?$char_traits@D@std@@V?$allocator@D@2@@std@@V?$basic_ptree@V?$basic_string@DU?$char_traits@D@std@@V?$allocator@D@2@@std@@V12@U?$less@V?$basic_string@DU?$char_traits@D@std@@V?$allocator@D@2@@std@@@2@@property_tree@boost@@@std@@@2@@234@@detail@multi_index@boost@@@detail@multi_index@boost@@@detail@multi_index@boost@@PAU1234@@Z 10001290 f i JsonWriter.obj
 0001:00000290       ??$const_or_not@V?$ctype@D@std@@@detail@io@boost@@YAABV?$ctype@D@std@@ABV34@@Z 10001290 f i Face.obj
 0001:00000290       ??$_Unchecked@PB_W@std@@YAPB_WPB_W@Z 10001290 f i Face.obj
 0001:00000290       ??$_Unchecked@PAVFace@@@std@@YAPAVFace@@PAV1@@Z 10001290 f i detectFaces.obj
 0001:00000290       ??$forward@V?$allocator@_W@std@@@std@@YA$$QAV?$allocator@_W@0@AAV10@@Z 10001290 f i detectFaces.obj
 0001:00000290       ??$forward@PBD@std@@YA$$QAPBDAAPBD@Z 10001290 f i JsonWriter.obj
 0001:00000290       ??$_Refancy@PAD$0A@@std@@YAPADPAD@Z 10001290 f i Face.obj
 0001:00000290       ??$forward@ABV?$Point_@H@cv@@@std@@YAABV?$Point_@H@cv@@ABV12@@Z 10001290 f i Face.obj
 0001:00000290       ??$forward@AAPAU?$ordered_index_node@Unull_augment_policy@detail@multi_index@boost@@U?$index_node_base@U?$pair@$$CBV?$basic_string@DU?$char_traits@D@std@@V?$allocator@D@2@@std@@V?$basic_ptree@V?$basic_string@DU?$char_traits@D@std@@V?$allocator@D@2@@std@@V12@U?$less@V?$basic_string@DU?$char_traits@D@std@@V?$allocator@D@2@@std@@@2@@property_tree@boost@@@std@@V?$allocator@U?$pair@$$CBV?$basic_string@DU?$char_traits@D@std@@V?$allocator@D@2@@std@@V?$basic_ptree@V?$basic_string@DU?$char_traits@D@std@@V?$allocator@D@2@@std@@V12@U?$less@V?$basic_string@DU?$char_traits@D@std@@V?$allocator@D@2@@std@@@2@@property_tree@boost@@@std@@@2@@234@@detail@multi_index@boost@@@std@@YAAAPAU?$ordered_index_node@Unull_augment_policy@detail@multi_index@boost@@U?$index_node_base@U?$pair@$$CBV?$basic_string@DU?$char_traits@D@std@@V?$allocator@D@2@@std@@V?$basic_ptree@V?$basic_string@DU?$char_traits@D@std@@V?$allocator@D@2@@std@@V12@U?$less@V?$basic_string@DU?$char_traits@D@std@@V?$allocator@D@2@@std@@@2@@property_tree@boost@@@std@@V?$allocator@U?$pair@$$CBV?$basic_string@DU?$char_traits@D@std@@V?$allocator@D@2@@std@@V?$basic_ptree@V?$basic_string@DU?$char_traits@D@std@@V?$allocator@D@2@@std@@V12@U?$less@V?$basic_string@DU?$char_traits@D@std@@V?$allocator@D@2@@std@@@2@@property_tree@boost@@@std@@@2@@234@@detail@multi_index@boost@@AAPAU1234@@Z 10001290 f i JsonWriter.obj
 0001:00000290       ??$_Unfancy@V?$Point_@H@cv@@@std@@YAPAV?$Point_@H@cv@@PAV12@@Z 10001290 f i detectFaces.obj
 0001:00000290       ??$forward@AAV?$basic_ptree@V?$basic_string@DU?$char_traits@D@std@@V?$allocator@D@2@@std@@V12@U?$less@V?$basic_string@DU?$char_traits@D@std@@V?$allocator@D@2@@std@@@2@@property_tree@boost@@@std@@YAAAV?$basic_ptree@V?$basic_string@DU?$char_traits@D@std@@V?$allocator@D@2@@std@@V12@U?$less@V?$basic_string@DU?$char_traits@D@std@@V?$allocator@D@2@@std@@@2@@property_tree@boost@@AAV123@@Z 10001290 f i JsonWriter.obj
 0001:00000290       ??$move@AAV?$allocator@D@std@@@std@@YA$$QAV?$allocator@D@0@AAV10@@Z 10001290 f i Detector.obj
 0001:00000290       ??$addressof@$$CBV?$vector@V?$Rect_@H@cv@@V?$allocator@V?$Rect_@H@cv@@@std@@@std@@@std@@YAPBV?$vector@V?$Rect_@H@cv@@V?$allocator@V?$Rect_@H@cv@@@std@@@0@ABV10@@Z 10001290 f i Face.obj
 0001:00000290       ??$_Unchecked@PAV?$Point_@H@cv@@@std@@YAPAV?$Point_@H@cv@@PAV12@@Z 10001290 f i detectFaces.obj
 0001:00000290       ??$forward@ABV?$basic_ptree@V?$basic_string@DU?$char_traits@D@std@@V?$allocator@D@2@@std@@V12@U?$less@V?$basic_string@DU?$char_traits@D@std@@V?$allocator@D@2@@std@@@2@@property_tree@boost@@@std@@YAABV?$basic_ptree@V?$basic_string@DU?$char_traits@D@std@@V?$allocator@D@2@@std@@V12@U?$less@V?$basic_string@DU?$char_traits@D@std@@V?$allocator@D@2@@std@@@2@@property_tree@boost@@ABV123@@Z 10001290 f i JsonWriter.obj
 0001:00000290       ??$forward@ABV?$allocator@D@std@@@std@@YAABV?$allocator@D@0@ABV10@@Z 10001290 f i Detector.obj
 0001:00000290       ??$addressof@D@std@@YAPADAAD@Z 10001290 f i JsonWriter.obj
 0001:00000290       ??$move@AAV?$basic_string@DU?$char_traits@D@std@@V?$allocator@D@2@@std@@@boost@@YA$$QAV?$basic_string@DU?$char_traits@D@std@@V?$allocator@D@2@@std@@AAV12@@Z 10001290 f i JsonWriter.obj
 0001:00000290       ??$addressof@$$CBU?$pair@$$CBV?$basic_string@DU?$char_traits@D@std@@V?$allocator@D@2@@std@@V?$basic_ptree@V?$basic_string@DU?$char_traits@D@std@@V?$allocator@D@2@@std@@V12@U?$less@V?$basic_string@DU?$char_traits@D@std@@V?$allocator@D@2@@std@@@2@@property_tree@boost@@@std@@@boost@@YAPBU?$pair@$$CBV?$basic_string@DU?$char_traits@D@std@@V?$allocator@D@2@@std@@V?$basic_ptree@V?$basic_string@DU?$char_traits@D@std@@V?$allocator@D@2@@std@@V12@U?$less@V?$basic_string@DU?$char_traits@D@std@@V?$allocator@D@2@@std@@@2@@property_tree@boost@@@std@@ABU12@@Z 10001290 f i JsonWriter.obj
 0001:00000290       ??$_Const_cast@$$CBD@std@@YAPADPBD@Z 10001290 f i JsonWriter.obj
 0001:00000290       ??$forward@U?$format_item@DU?$char_traits@D@std@@V?$allocator@D@2@@detail@io@boost@@@std@@YA$$QAU?$format_item@DU?$char_traits@D@std@@V?$allocator@D@2@@detail@io@boost@@AAU1234@@Z 10001290 f i Face.obj
 0001:00000290       ??$forward@ABI@std@@YAABIABI@Z 10001290 f i Face.obj
 0001:00000290       ??$addressof@V?$_String_val@U?$_Simple_types@D@std@@@std@@@std@@YAPAV?$_String_val@U?$_Simple_types@D@std@@@0@AAV10@@Z 10001290 f i Detector.obj
 0001:00000290       ??$addressof@V?$basic_string@DU?$char_traits@D@std@@V?$allocator@D@2@@std@@@std@@YAPAV?$basic_string@DU?$char_traits@D@std@@V?$allocator@D@2@@0@AAV10@@Z 10001290 f i JsonWriter.obj
 0001:00000290       ??$forward@V?$allocator@VFace@@@std@@@std@@YA$$QAV?$allocator@VFace@@@0@AAV10@@Z 10001290 f i detectFaces.obj
 0001:00000290       ??$_Unfancy@D@std@@YAPADPAD@Z 10001290 f i detectFaces.obj
 0001:00000290       ??$_Refancy@PBD$0A@@std@@YAPBDPBD@Z 10001290 f i Face.obj
 0001:00000290       ??$forward@AAY00$$CBD@std@@YAAAY00$$CBDAAY00$$CBD@Z 10001290 f i JsonWriter.obj
 0001:00000290       ??$move@AAV?$basic_string@DU?$char_traits@D@std@@V?$allocator@D@2@@std@@@std@@YA$$QAV?$basic_string@DU?$char_traits@D@std@@V?$allocator@D@2@@0@AAV10@@Z 10001290 f i Detector.obj
 0001:00000290       ??$addressof@PA_W@std@@YAPAPA_WAAPA_W@Z 10001290 f i detectFaces.obj
 0001:00000290       ??$_Unchecked@PAI@std@@YAPAIPAI@Z 10001290 f i Face.obj
 0001:00000290       ??$forward@VFace@@@std@@YA$$QAVFace@@AAV1@@Z 10001290 f i Detector.obj
 0001:00000290       ?select_on_container_copy_construction@?$_Default_allocator_traits@V?$allocator@V?$Rect_@H@cv@@@std@@@std@@SA?AV?$allocator@V?$Rect_@H@cv@@@2@ABV32@@Z 10001290 f i detectFaces.obj
 0001:00000290       ??$_Convert_size@I@std@@YAII@Z 10001290 f i Detector.obj
 0001:00000290       ??$_Unfancy_maybe_null@I@std@@YAPAIPAI@Z 10001290 f i Face.obj
 0001:00000290       ?select_on_container_copy_construction@?$_Default_allocator_traits@V?$allocator@_W@std@@@std@@SA?AV?$allocator@_W@2@ABV32@@Z 10001290 f i detectFaces.obj
 0001:00000290       ??$forward@V?$Point_@H@cv@@@std@@YA$$QAV?$Point_@H@cv@@AAV12@@Z 10001290 f i Detector.obj
 0001:00000290       ??$forward@AAPAU?$copy_map_entry@U?$sequenced_index_node@U?$ordered_index_node@Unull_augment_policy@detail@multi_index@boost@@U?$index_node_base@U?$pair@$$CBV?$basic_string@DU?$char_traits@D@std@@V?$allocator@D@2@@std@@V?$basic_ptree@V?$basic_string@DU?$char_traits@D@std@@V?$allocator@D@2@@std@@V12@U?$less@V?$basic_string@DU?$char_traits@D@std@@V?$allocator@D@2@@std@@@2@@property_tree@boost@@@std@@V?$allocator@U?$pair@$$CBV?$basic_string@DU?$char_traits@D@std@@V?$allocator@D@2@@std@@V?$basic_ptree@V?$basic_string@DU?$char_traits@D@std@@V?$allocator@D@2@@std@@V12@U?$less@V?$basic_string@DU?$char_traits@D@std@@V?$allocator@D@2@@std@@@2@@property_tree@boost@@@std@@@2@@234@@detail@multi_index@boost@@@detail@multi_index@boost@@@detail@multi_index@boost@@@std@@YAAAPAU?$copy_map_entry@U?$sequenced_index_node@U?$ordered_index_node@Unull_augment_policy@detail@multi_index@boost@@U?$index_node_base@U?$pair@$$CBV?$basic_string@DU?$char_traits@D@std@@V?$allocator@D@2@@std@@V?$basic_ptree@V?$basic_string@DU?$char_traits@D@std@@V?$allocator@D@2@@std@@V12@U?$less@V?$basic_string@DU?$char_traits@D@std@@V?$allocator@D@2@@std@@@2@@property_tree@boost@@@std@@V?$allocator@U?$pair@$$CBV?$basic_string@DU?$char_traits@D@std@@V?$allocator@D@2@@std@@V?$basic_ptree@V?$basic_string@DU?$char_traits@D@std@@V?$allocator@D@2@@std@@V12@U?$less@V?$basic_string@DU?$char_traits@D@std@@V?$allocator@D@2@@std@@@2@@property_tree@boost@@@std@@@2@@234@@detail@multi_index@boost@@@detail@multi_index@boost@@@detail@multi_index@boost@@AAPAU1234@@Z 10001290 f i JsonWriter.obj
 0001:00000290       ??$_Unchecked@PAU?$format_item@DU?$char_traits@D@std@@V?$allocator@D@2@@detail@io@boost@@@std@@YAPAU?$format_item@DU?$char_traits@D@std@@V?$allocator@D@2@@detail@io@boost@@PAU1234@@Z 10001290 f i Face.obj
 0001:00000290       ??$forward@V?$allocator@D@std@@@std@@YA$$QAV?$allocator@D@0@AAV10@@Z 10001290 f i detectFaces.obj
 0001:00000290       ??$forward@V?$allocator@V?$Rect_@H@cv@@@std@@@std@@YA$$QAV?$allocator@V?$Rect_@H@cv@@@0@AAV10@@Z 10001290 f i detectFaces.obj
 0001:00000290       ??$dereference@$$CBU?$bool_@$00@mpl@boost@@@?$integral_constant@_N$00@boost@@SAABU?$bool_@$00@mpl@1@PBU231@@Z 10001290 f i JsonWriter.obj
 0001:00000290       ??$move@AAVlocale@std@@@boost@@YA$$QAVlocale@std@@AAV12@@Z 10001290 f i Face.obj
 0001:00000290       ??$dereference@$$CBU?$bool_@$0A@@mpl@boost@@@?$integral_constant@_N$0A@@boost@@SAABU?$bool_@$0A@@mpl@1@PBU231@@Z 10001290 f i JsonWriter.obj
 0001:00000290       ??$_Get_size_of_n@$00@std@@YAII@Z 10001290 f i detectFaces.obj
 0001:00000290       ??$forward@V?$bidir_node_iterator@U?$ordered_index_node@Unull_augment_policy@detail@multi_index@boost@@U?$index_node_base@U?$pair@$$CBV?$basic_string@DU?$char_traits@D@std@@V?$allocator@D@2@@std@@V?$basic_ptree@V?$basic_string@DU?$char_traits@D@std@@V?$allocator@D@2@@std@@V12@U?$less@V?$basic_string@DU?$char_traits@D@std@@V?$allocator@D@2@@std@@@2@@property_tree@boost@@@std@@V?$allocator@U?$pair@$$CBV?$basic_string@DU?$char_traits@D@std@@V?$allocator@D@2@@std@@V?$basic_ptree@V?$basic_string@DU?$char_traits@D@std@@V?$allocator@D@2@@std@@V12@U?$less@V?$basic_string@DU?$char_traits@D@std@@V?$allocator@D@2@@std@@@2@@property_tree@boost@@@std@@@2@@234@@detail@multi_index@boost@@@detail@multi_index@boost@@@std@@YA$$QAV?$bidir_node_iterator@U?$ordered_index_node@Unull_augment_policy@detail@multi_index@boost@@U?$index_node_base@U?$pair@$$CBV?$basic_string@DU?$char_traits@D@std@@V?$allocator@D@2@@std@@V?$basic_ptree@V?$basic_string@DU?$char_traits@D@std@@V?$allocator@D@2@@std@@V12@U?$less@V?$basic_string@DU?$char_traits@D@std@@V?$allocator@D@2@@std@@@2@@property_tree@boost@@@std@@V?$allocator@U?$pair@$$CBV?$basic_string@DU?$char_traits@D@std@@V?$allocator@D@2@@std@@V?$basic_ptree@V?$basic_string@DU?$char_traits@D@std@@V?$allocator@D@2@@std@@V12@U?$less@V?$basic_string@DU?$char_traits@D@std@@V?$allocator@D@2@@std@@@2@@property_tree@boost@@@std@@@2@@234@@detail@multi_index@boost@@@detail@multi_index@boost@@AAV1234@@Z 10001290 f i JsonWriter.obj
 0001:00000290       ??$addressof@U?$pair@$$CBV?$basic_string@DU?$char_traits@D@std@@V?$allocator@D@2@@std@@V?$basic_ptree@V?$basic_string@DU?$char_traits@D@std@@V?$allocator@D@2@@std@@V12@U?$less@V?$basic_string@DU?$char_traits@D@std@@V?$allocator@D@2@@std@@@2@@property_tree@boost@@@std@@@boost@@YAPAU?$pair@$$CBV?$basic_string@DU?$char_traits@D@std@@V?$allocator@D@2@@std@@V?$basic_ptree@V?$basic_string@DU?$char_traits@D@std@@V?$allocator@D@2@@std@@V12@U?$less@V?$basic_string@DU?$char_traits@D@std@@V?$allocator@D@2@@std@@@2@@property_tree@boost@@@std@@AAU12@@Z 10001290 f i JsonWriter.obj
 0001:00000290       ??$move@AAV?$allocator@V?$Rect_@H@cv@@@std@@@std@@YA$$QAV?$allocator@V?$Rect_@H@cv@@@0@AAV10@@Z 10001290 f i Detector.obj
 0001:00000290       ??$move@AAU?$format_item@DU?$char_traits@D@std@@V?$allocator@D@2@@detail@io@boost@@@std@@YA$$QAU?$format_item@DU?$char_traits@D@std@@V?$allocator@D@2@@detail@io@boost@@AAU1234@@Z 10001290 f i Face.obj
 0001:00000290       ??$forward@V?$bidir_node_iterator@U?$sequenced_index_node@U?$ordered_index_node@Unull_augment_policy@detail@multi_index@boost@@U?$index_node_base@U?$pair@$$CBV?$basic_string@DU?$char_traits@D@std@@V?$allocator@D@2@@std@@V?$basic_ptree@V?$basic_string@DU?$char_traits@D@std@@V?$allocator@D@2@@std@@V12@U?$less@V?$basic_string@DU?$char_traits@D@std@@V?$allocator@D@2@@std@@@2@@property_tree@boost@@@std@@V?$allocator@U?$pair@$$CBV?$basic_string@DU?$char_traits@D@std@@V?$allocator@D@2@@std@@V?$basic_ptree@V?$basic_string@DU?$char_traits@D@std@@V?$allocator@D@2@@std@@V12@U?$less@V?$basic_string@DU?$char_traits@D@std@@V?$allocator@D@2@@std@@@2@@property_tree@boost@@@std@@@2@@234@@detail@multi_index@boost@@@detail@multi_index@boost@@@detail@multi_index@boost@@@std@@YA$$QAV?$bidir_node_iterator@U?$sequenced_index_node@U?$ordered_index_node@Unull_augment_policy@detail@multi_index@boost@@U?$index_node_base@U?$pair@$$CBV?$basic_string@DU?$char_traits@D@std@@V?$allocator@D@2@@std@@V?$basic_ptree@V?$basic_string@DU?$char_traits@D@std@@V?$allocator@D@2@@std@@V12@U?$less@V?$basic_string@DU?$char_traits@D@std@@V?$allocator@D@2@@std@@@2@@property_tree@boost@@@std@@V?$allocator@U?$pair@$$CBV?$basic_string@DU?$char_traits@D@std@@V?$allocator@D@2@@std@@V?$basic_ptree@V?$basic_string@DU?$char_traits@D@std@@V?$allocator@D@2@@std@@V12@U?$less@V?$basic_string@DU?$char_traits@D@std@@V?$allocator@D@2@@std@@@2@@property_tree@boost@@@std@@@2@@234@@detail@multi_index@boost@@@detail@multi_index@boost@@@detail@multi_index@boost@@AAV1234@@Z 10001290 f i JsonWriter.obj
 0001:00000290       ??$_Unfancy@U?$format_item@DU?$char_traits@D@std@@V?$allocator@D@2@@detail@io@boost@@@std@@YAPAU?$format_item@DU?$char_traits@D@std@@V?$allocator@D@2@@detail@io@boost@@PAU1234@@Z 10001290 f i Face.obj
 0001:00000290       ??$addressof@$$CBV?$_String_val@U?$_Simple_types@D@std@@@std@@@std@@YAPBV?$_String_val@U?$_Simple_types@D@std@@@0@ABV10@@Z 10001290 f i Face.obj
 0001:00000290       ??$forward@V?$basic_string@DU?$char_traits@D@std@@V?$allocator@D@2@@std@@@boost@@YA$$QAV?$basic_string@DU?$char_traits@D@std@@V?$allocator@D@2@@std@@AAV12@@Z 10001290 f i JsonWriter.obj
 0001:00000290       ??$addressof@VNo_Op@?$basic_oaltstringstream@DU?$char_traits@D@std@@V?$allocator@D@2@@io@boost@@@boost@@YAPAVNo_Op@?$basic_oaltstringstream@DU?$char_traits@D@std@@V?$allocator@D@2@@io@0@AAV1230@@Z 10001290 f i Face.obj
 0001:00000290       ??$forward@PAU?$ordered_index_node@Unull_augment_policy@detail@multi_index@boost@@U?$index_node_base@U?$pair@$$CBV?$basic_string@DU?$char_traits@D@std@@V?$allocator@D@2@@std@@V?$basic_ptree@V?$basic_string@DU?$char_traits@D@std@@V?$allocator@D@2@@std@@V12@U?$less@V?$basic_string@DU?$char_traits@D@std@@V?$allocator@D@2@@std@@@2@@property_tree@boost@@@std@@V?$allocator@U?$pair@$$CBV?$basic_string@DU?$char_traits@D@std@@V?$allocator@D@2@@std@@V?$basic_ptree@V?$basic_string@DU?$char_traits@D@std@@V?$allocator@D@2@@std@@V12@U?$less@V?$basic_string@DU?$char_traits@D@std@@V?$allocator@D@2@@std@@@2@@property_tree@boost@@@std@@@2@@234@@detail@multi_index@boost@@@std@@YA$$QAPAU?$ordered_index_node@Unull_augment_policy@detail@multi_index@boost@@U?$index_node_base@U?$pair@$$CBV?$basic_string@DU?$char_traits@D@std@@V?$allocator@D@2@@std@@V?$basic_ptree@V?$basic_string@DU?$char_traits@D@std@@V?$allocator@D@2@@std@@V12@U?$less@V?$basic_string@DU?$char_traits@D@std@@V?$allocator@D@2@@std@@@2@@property_tree@boost@@@std@@V?$allocator@U?$pair@$$CBV?$basic_string@DU?$char_traits@D@std@@V?$allocator@D@2@@std@@V?$basic_ptree@V?$basic_string@DU?$char_traits@D@std@@V?$allocator@D@2@@std@@V12@U?$less@V?$basic_string@DU?$char_traits@D@std@@V?$allocator@D@2@@std@@@2@@property_tree@boost@@@std@@@2@@234@@detail@multi_index@boost@@AAPAU1234@@Z 10001290 f i JsonWriter.obj
 0001:00000290       ??$forward@V?$basic_ptree@V?$basic_string@DU?$char_traits@D@std@@V?$allocator@D@2@@std@@V12@U?$less@V?$basic_string@DU?$char_traits@D@std@@V?$allocator@D@2@@std@@@2@@property_tree@boost@@@std@@YA$$QAV?$basic_ptree@V?$basic_string@DU?$char_traits@D@std@@V?$allocator@D@2@@std@@V12@U?$less@V?$basic_string@DU?$char_traits@D@std@@V?$allocator@D@2@@std@@@2@@property_tree@boost@@AAV123@@Z 10001290 f i JsonWriter.obj
 0001:000002a0       ?_Allocate@_Default_allocate_traits@std@@SAPAXI@Z 100012a0 f i detectFaces.obj
 0001:000002c0       ?_Adjust_manually_vector_aligned@std@@YAXAAPAXAAI@Z 100012c0 f i detectFaces.obj
 0001:00000320       ??0Mat@cv@@QAE@ABV01@@Z    10001320 f i detectFaces.obj
 0001:00000450       ??1Mat@cv@@QAE@XZ          10001450 f i detectFaces.obj
 0001:000004b0       ?release@Mat@cv@@QAEXXZ    100014b0 f i detectFaces.obj
 0001:00000550       ??0parent_ref@?$ordered_index_node_compressed_base@Unull_augment_policy@detail@multi_index@boost@@V?$allocator@D@std@@@detail@multi_index@boost@@QAE@PAI@Z 10001550 f i JsonWriter.obj
 0001:00000550       ??0color_ref@?$ordered_index_node_compressed_base@Unull_augment_policy@detail@multi_index@boost@@V?$allocator@D@std@@@detail@multi_index@boost@@QAE@PAI@Z 10001550 f i JsonWriter.obj
 0001:00000550       ??0?$error_info@Uthrow_line_@boost@@H@boost@@QAE@H@Z 10001550 f i JsonWriter.obj
 0001:00000550       ??0MSize@Mat@cv@@QAE@PAH@Z 10001550 f i detectFaces.obj
 0001:00000550       ??0stl_type_index@typeindex@boost@@QAE@ABVtype_info@@@Z 10001550 f i JsonWriter.obj
 0001:00000550       ??0?$atomic@H@std@@QAE@H@Z 10001550 f i Face.obj
 0001:00000550       ??0?$bidir_node_iterator@U?$sequenced_index_node@U?$ordered_index_node@Unull_augment_policy@detail@multi_index@boost@@U?$index_node_base@U?$pair@$$CBV?$basic_string@DU?$char_traits@D@std@@V?$allocator@D@2@@std@@V?$basic_ptree@V?$basic_string@DU?$char_traits@D@std@@V?$allocator@D@2@@std@@V12@U?$less@V?$basic_string@DU?$char_traits@D@std@@V?$allocator@D@2@@std@@@2@@property_tree@boost@@@std@@V?$allocator@U?$pair@$$CBV?$basic_string@DU?$char_traits@D@std@@V?$allocator@D@2@@std@@V?$basic_ptree@V?$basic_string@DU?$char_traits@D@std@@V?$allocator@D@2@@std@@V12@U?$less@V?$basic_string@DU?$char_traits@D@std@@V?$allocator@D@2@@std@@@2@@property_tree@boost@@@std@@@2@@234@@detail@multi_index@boost@@@detail@multi_index@boost@@@detail@multi_index@boost@@QAE@PAU?$sequenced_index_node@U?$ordered_index_node@Unull_augment_policy@detail@multi_index@boost@@U?$index_node_base@U?$pair@$$CBV?$basic_string@DU?$char_traits@D@std@@V?$allocator@D@2@@std@@V?$basic_ptree@V?$basic_string@DU?$char_traits@D@std@@V?$allocator@D@2@@std@@V12@U?$less@V?$basic_string@DU?$char_traits@D@std@@V?$allocator@D@2@@std@@@2@@property_tree@boost@@@std@@V?$allocator@U?$pair@$$CBV?$basic_string@DU?$char_traits@D@std@@V?$allocator@D@2@@std@@V?$basic_ptree@V?$basic_string@DU?$char_traits@D@std@@V?$allocator@D@2@@std@@V12@U?$less@V?$basic_string@DU?$char_traits@D@std@@V?$allocator@D@2@@std@@@2@@property_tree@boost@@@std@@@2@@234@@detail@multi_index@boost@@@123@@Z 10001550 f i JsonWriter.obj
 0001:00000550       ??0?$error_info@Uthrow_function_@boost@@PBD@boost@@QAE@PBD@Z 10001550 f i JsonWriter.obj
 0001:00000550       ??0?$error_info@Uthrow_file_@boost@@PBD@boost@@QAE@PBD@Z 10001550 f i JsonWriter.obj
 0001:00000550       ??0?$bidir_node_iterator@U?$ordered_index_node@Unull_augment_policy@detail@multi_index@boost@@U?$index_node_base@U?$pair@$$CBV?$basic_string@DU?$char_traits@D@std@@V?$allocator@D@2@@std@@V?$basic_ptree@V?$basic_string@DU?$char_traits@D@std@@V?$allocator@D@2@@std@@V12@U?$less@V?$basic_string@DU?$char_traits@D@std@@V?$allocator@D@2@@std@@@2@@property_tree@boost@@@std@@V?$allocator@U?$pair@$$CBV?$basic_string@DU?$char_traits@D@std@@V?$allocator@D@2@@std@@V?$basic_ptree@V?$basic_string@DU?$char_traits@D@std@@V?$allocator@D@2@@std@@V12@U?$less@V?$basic_string@DU?$char_traits@D@std@@V?$allocator@D@2@@std@@@2@@property_tree@boost@@@std@@@2@@234@@detail@multi_index@boost@@@detail@multi_index@boost@@QAE@PAU?$ordered_index_node@Unull_augment_policy@detail@multi_index@boost@@U?$index_node_base@U?$pair@$$CBV?$basic_string@DU?$char_traits@D@std@@V?$allocator@D@2@@std@@V?$basic_ptree@V?$basic_string@DU?$char_traits@D@std@@V?$allocator@D@2@@std@@V12@U?$less@V?$basic_string@DU?$char_traits@D@std@@V?$allocator@D@2@@std@@@2@@property_tree@boost@@@std@@V?$allocator@U?$pair@$$CBV?$basic_string@DU?$char_traits@D@std@@V?$allocator@D@2@@std@@V?$basic_ptree@V?$basic_string@DU?$char_traits@D@std@@V?$allocator@D@2@@std@@V12@U?$less@V?$basic_string@DU?$char_traits@D@std@@V?$allocator@D@2@@std@@@2@@property_tree@boost@@@std@@@2@@234@@123@@Z 10001550 f i JsonWriter.obj
 0001:00000570       ??0MStep@Mat@cv@@QAE@XZ    10001570 f i detectFaces.obj
 0001:000005c0       ??AMStep@Mat@cv@@QAEAAIH@Z 100015c0 f i detectFaces.obj
 0001:000005c0       ??AMStep@Mat@cv@@QBEABIH@Z 100015c0 f i detectFaces.obj
 0001:000005e0       ??1path@filesystem@std@@QAE@XZ 100015e0 f i detectFaces.obj
 0001:00000600       ??0path@filesystem@std@@QAE@ABV012@@Z 10001600 f i detectFaces.obj
 0001:00000620       ??$?0ABV?$allocator@U?$sequenced_index_node@U?$ordered_index_node@Unull_augment_policy@detail@multi_index@boost@@U?$index_node_base@U?$pair@$$CBV?$basic_string@DU?$char_traits@D@std@@V?$allocator@D@2@@std@@V?$basic_ptree@V?$basic_string@DU?$char_traits@D@std@@V?$allocator@D@2@@std@@V12@U?$less@V?$basic_string@DU?$char_traits@D@std@@V?$allocator@D@2@@std@@@2@@property_tree@boost@@@std@@V?$allocator@U?$pair@$$CBV?$basic_string@DU?$char_traits@D@std@@V?$allocator@D@2@@std@@V?$basic_ptree@V?$basic_string@DU?$char_traits@D@std@@V?$allocator@D@2@@std@@V12@U?$less@V?$basic_string@DU?$char_traits@D@std@@V?$allocator@D@2@@std@@@2@@property_tree@boost@@@std@@@2@@234@@detail@multi_index@boost@@@detail@multi_index@boost@@@std@@X@?$base_from_member@V?$allocator@U?$sequenced_index_node@U?$ordered_index_node@Unull_augment_policy@detail@multi_index@boost@@U?$index_node_base@U?$pair@$$CBV?$basic_string@DU?$char_traits@D@std@@V?$allocator@D@2@@std@@V?$basic_ptree@V?$basic_string@DU?$char_traits@D@std@@V?$allocator@D@2@@std@@V12@U?$less@V?$basic_string@DU?$char_traits@D@std@@V?$allocator@D@2@@std@@@2@@property_tree@boost@@@std@@V?$allocator@U?$pair@$$CBV?$basic_string@DU?$char_traits@D@std@@V?$allocator@D@2@@std@@V?$basic_ptree@V?$basic_string@DU?$char_traits@D@std@@V?$allocator@D@2@@std@@V12@U?$less@V?$basic_string@DU?$char_traits@D@std@@V?$allocator@D@2@@std@@@2@@property_tree@boost@@@std@@@2@@234@@detail@multi_index@boost@@@detail@multi_index@boost@@@std@@$0A@@boost@@IAE@ABV?$allocator@U?$sequenced_index_node@U?$ordered_index_node@Unull_augment_policy@detail@multi_index@boost@@U?$index_node_base@U?$pair@$$CBV?$basic_string@DU?$char_traits@D@std@@V?$allocator@D@2@@std@@V?$basic_ptree@V?$basic_string@DU?$char_traits@D@std@@V?$allocator@D@2@@std@@V12@U?$less@V?$basic_string@DU?$char_traits@D@std@@V?$allocator@D@2@@std@@@2@@property_tree@boost@@@std@@V?$allocator@U?$pair@$$CBV?$basic_string@DU?$char_traits@D@std@@V?$allocator@D@2@@std@@V?$basic_ptree@V?$basic_string@DU?$char_traits@D@std@@V?$allocator@D@2@@std@@V12@U?$less@V?$basic_string@DU?$char_traits@D@std@@V?$allocator@D@2@@std@@@2@@property_tree@boost@@@std@@@2@@234@@detail@multi_index@boost@@@detail@multi_index@boost@@@std@@@Z 10001620 f i JsonWriter.obj
 0001:00000620       ??0in_place_init_t@optional_ns@boost@@QAE@Uinit_tag@012@@Z 10001620 f i detectFaces.obj
 0001:00000620       ??0none_t@boost@@QAE@Uinit_tag@01@@Z 10001620 f i detectFaces.obj
 0001:00000620       ??$?0U?$sequenced_index_node@U?$ordered_index_node@Unull_augment_policy@detail@multi_index@boost@@U?$index_node_base@U?$pair@$$CBV?$basic_string@DU?$char_traits@D@std@@V?$allocator@D@2@@std@@V?$basic_ptree@V?$basic_string@DU?$char_traits@D@std@@V?$allocator@D@2@@std@@V12@U?$less@V?$basic_string@DU?$char_traits@D@std@@V?$allocator@D@2@@std@@@2@@property_tree@boost@@@std@@V?$allocator@U?$pair@$$CBV?$basic_string@DU?$char_traits@D@std@@V?$allocator@D@2@@std@@V?$basic_ptree@V?$basic_string@DU?$char_traits@D@std@@V?$allocator@D@2@@std@@V12@U?$less@V?$basic_string@DU?$char_traits@D@std@@V?$allocator@D@2@@std@@@2@@property_tree@boost@@@std@@@2@@234@@detail@multi_index@boost@@@detail@multi_index@boost@@@?$allocator@U?$pair@$$CBV?$basic_string@DU?$char_traits@D@std@@V?$allocator@D@2@@std@@V?$basic_ptree@V?$basic_string@DU?$char_traits@D@std@@V?$allocator@D@2@@std@@V12@U?$less@V?$basic_string@DU?$char_traits@D@std@@V?$allocator@D@2@@std@@@2@@property_tree@boost@@@std@@@std@@QAE@ABV?$allocator@U?$sequenced_index_node@U?$ordered_index_node@Unull_augment_policy@detail@multi_index@boost@@U?$index_node_base@U?$pair@$$CBV?$basic_string@DU?$char_traits@D@std@@V?$allocator@D@2@@std@@V?$basic_ptree@V?$basic_string@DU?$char_traits@D@std@@V?$allocator@D@2@@std@@V12@U?$less@V?$basic_string@DU?$char_traits@D@std@@V?$allocator@D@2@@std@@@2@@property_tree@boost@@@std@@V?$allocator@U?$pair@$$CBV?$basic_string@DU?$char_traits@D@std@@V?$allocator@D@2@@std@@V?$basic_ptree@V?$basic_string@DU?$char_traits@D@std@@V?$allocator@D@2@@std@@V12@U?$less@V?$basic_string@DU?$char_traits@D@std@@V?$allocator@D@2@@std@@@2@@property_tree@boost@@@std@@@2@@234@@detail@multi_index@boost@@@detail@multi_index@boost@@@1@@Z 10001620 f i JsonWriter.obj
 0001:00000620       ??$?0U?$pair@$$CBV?$basic_string@DU?$char_traits@D@std@@V?$allocator@D@2@@std@@V?$basic_ptree@V?$basic_string@DU?$char_traits@D@std@@V?$allocator@D@2@@std@@V12@U?$less@V?$basic_string@DU?$char_traits@D@std@@V?$allocator@D@2@@std@@@2@@property_tree@boost@@@std@@@?$allocator@U?$copy_map_entry@U?$sequenced_index_node@U?$ordered_index_node@Unull_augment_policy@detail@multi_index@boost@@U?$index_node_base@U?$pair@$$CBV?$basic_string@DU?$char_traits@D@std@@V?$allocator@D@2@@std@@V?$basic_ptree@V?$basic_string@DU?$char_traits@D@std@@V?$allocator@D@2@@std@@V12@U?$less@V?$basic_string@DU?$char_traits@D@std@@V?$allocator@D@2@@std@@@2@@property_tree@boost@@@std@@V?$allocator@U?$pair@$$CBV?$basic_string@DU?$char_traits@D@std@@V?$allocator@D@2@@std@@V?$basic_ptree@V?$basic_string@DU?$char_traits@D@std@@V?$allocator@D@2@@std@@V12@U?$less@V?$basic_string@DU?$char_traits@D@std@@V?$allocator@D@2@@std@@@2@@property_tree@boost@@@std@@@2@@234@@detail@multi_index@boost@@@detail@multi_index@boost@@@detail@multi_index@boost@@@std@@QAE@ABV?$allocator@U?$pair@$$CBV?$basic_string@DU?$char_traits@D@std@@V?$allocator@D@2@@std@@V?$basic_ptree@V?$basic_string@DU?$char_traits@D@std@@V?$allocator@D@2@@std@@V12@U?$less@V?$basic_string@DU?$char_traits@D@std@@V?$allocator@D@2@@std@@@2@@property_tree@boost@@@std@@@1@@Z 10001620 f i JsonWriter.obj
 0001:00000620       ??0?$ordered_index_impl@U?$member@U?$pair@$$CBV?$basic_string@DU?$char_traits@D@std@@V?$allocator@D@2@@std@@V?$basic_ptree@V?$basic_string@DU?$char_traits@D@std@@V?$allocator@D@2@@std@@V12@U?$less@V?$basic_string@DU?$char_traits@D@std@@V?$allocator@D@2@@std@@@2@@property_tree@boost@@@std@@$$CBV?$basic_string@DU?$char_traits@D@std@@V?$allocator@D@2@@2@$0A@@multi_index@boost@@U?$less@V?$basic_string@DU?$char_traits@D@std@@V?$allocator@D@2@@std@@@std@@U?$nth_layer@$01U?$pair@$$CBV?$basic_string@DU?$char_traits@D@std@@V?$allocator@D@2@@std@@V?$basic_ptree@V?$basic_string@DU?$char_traits@D@std@@V?$allocator@D@2@@std@@V12@U?$less@V?$basic_string@DU?$char_traits@D@std@@V?$allocator@D@2@@std@@@2@@property_tree@boost@@@std@@U?$indexed_by@U?$sequenced@U?$tag@Una@mpl@boost@@U123@U123@U123@U123@U123@U123@U123@U123@U123@U123@U123@U123@U123@U123@U123@U123@U123@U123@U123@@multi_index@boost@@@multi_index@boost@@U?$ordered_non_unique@U?$tag@Uby_name@subs@?$basic_ptree@V?$basic_string@DU?$char_traits@D@std@@V?$allocator@D@2@@std@@V12@U?$less@V?$basic_string@DU?$char_traits@D@std@@V?$allocator@D@2@@std@@@2@@property_tree@boost@@Una@mpl@5@U675@U675@U675@U675@U675@U675@U675@U675@U675@U675@U675@U675@U675@U675@U675@U675@U675@U675@@multi_index@boost@@U?$member@U?$pair@$$CBV?$basic_string@DU?$char_traits@D@std@@V?$allocator@D@2@@std@@V?$basic_ptree@V?$basic_string@DU?$char_traits@D@std@@V?$allocator@D@2@@std@@V12@U?$less@V?$basic_string@DU?$char_traits@D@std@@V?$allocator@D@2@@std@@@2@@property_tree@boost@@@std@@$$CBV?$basic_string@DU?$char_traits@D@std@@V?$allocator@D@2@@2@$0A@@23@U?$less@V?$basic_string@DU?$char_traits@D@std@@V?$allocator@D@2@@std@@@std@@@23@Una@mpl@3@U563@U563@U563@U563@U563@U563@U563@U563@U563@U563@U563@U563@U563@U563@U563@U563@U563@@multi_index@boost@@V?$allocator@U?$pair@$$CBV?$basic_string@DU?$char_traits@D@std@@V?$allocator@D@2@@std@@V?$basic_ptree@V?$basic_string@DU?$char_traits@D@std@@V?$allocator@D@2@@std@@V12@U?$less@V?$basic_string@DU?$char_traits@D@std@@V?$allocator@D@2@@std@@@2@@property_tree@boost@@@std@@@2@@detail@23@U?$vector1@Uby_name@subs@?$basic_ptree@V?$basic_string@DU?$char_traits@D@std@@V?$allocator@D@2@@std@@V12@U?$less@V?$basic_string@DU?$char_traits@D@std@@V?$allocator@D@2@@std@@@2@@property_tree@boost@@@mpl@3@Uordered_non_unique_tag@723@Unull_augment_policy@723@@detail@multi_index@boost@@IAE@ABV0123@@Z 10001620 f i JsonWriter.obj
 0001:00000620       ??0in_place_init_if_t@optional_ns@boost@@QAE@Uinit_tag@012@@Z 10001620 f i detectFaces.obj
 0001:00000620       ??$?0U?$integral_constant@_N$00@std@@@_Unused_parameter@std@@QAE@$$QAU?$integral_constant@_N$00@1@@Z 10001620 f i detectFaces.obj
 0001:00000620       ??$?0U?$pair@$$CBV?$basic_string@DU?$char_traits@D@std@@V?$allocator@D@2@@std@@V?$basic_ptree@V?$basic_string@DU?$char_traits@D@std@@V?$allocator@D@2@@std@@V12@U?$less@V?$basic_string@DU?$char_traits@D@std@@V?$allocator@D@2@@std@@@2@@property_tree@boost@@@std@@@?$allocator@U?$sequenced_index_node@U?$ordered_index_node@Unull_augment_policy@detail@multi_index@boost@@U?$index_node_base@U?$pair@$$CBV?$basic_string@DU?$char_traits@D@std@@V?$allocator@D@2@@std@@V?$basic_ptree@V?$basic_string@DU?$char_traits@D@std@@V?$allocator@D@2@@std@@V12@U?$less@V?$basic_string@DU?$char_traits@D@std@@V?$allocator@D@2@@std@@@2@@property_tree@boost@@@std@@V?$allocator@U?$pair@$$CBV?$basic_string@DU?$char_traits@D@std@@V?$allocator@D@2@@std@@V?$basic_ptree@V?$basic_string@DU?$char_traits@D@std@@V?$allocator@D@2@@std@@V12@U?$less@V?$basic_string@DU?$char_traits@D@std@@V?$allocator@D@2@@std@@@2@@property_tree@boost@@@std@@@2@@234@@detail@multi_index@boost@@@detail@multi_index@boost@@@std@@QAE@ABV?$allocator@U?$pair@$$CBV?$basic_string@DU?$char_traits@D@std@@V?$allocator@D@2@@std@@V?$basic_ptree@V?$basic_string@DU?$char_traits@D@std@@V?$allocator@D@2@@std@@V12@U?$less@V?$basic_string@DU?$char_traits@D@std@@V?$allocator@D@2@@std@@@2@@property_tree@boost@@@std@@@1@@Z 10001620 f i JsonWriter.obj
 0001:00000630       _detectFaces               10001630 f   detectFaces.obj
 0001:000007e0       ?__autoclassinit2@?$_Uninitialized_backout_al@PAV?$Rect_@H@cv@@V?$allocator@V?$Rect_@H@cv@@@std@@@std@@QAEXI@Z 100017e0 f i detectFaces.obj
 0001:000007e0       ?__autoclassinit2@?$vector@V?$Point_@H@cv@@V?$allocator@V?$Point_@H@cv@@@std@@@std@@QAEXI@Z 100017e0 f i Detector.obj
 0001:000007e0       ?__autoclassinit2@?$basic_oaltstringstream@DU?$char_traits@D@std@@V?$allocator@D@2@@io@boost@@QAEXI@Z 100017e0 f i Face.obj
 0001:000007e0       ?__autoclassinit2@?$holder@V?$string_path@V?$basic_string@DU?$char_traits@D@std@@V?$allocator@D@2@@std@@U?$id_translator@V?$basic_string@DU?$char_traits@D@std@@V?$allocator@D@2@@std@@@property_tree@boost@@@property_tree@boost@@@any@boost@@QAEXI@Z 100017e0 f i JsonWriter.obj
 0001:000007e0       ?__autoclassinit2@?$optional@AAV?$basic_ptree@V?$basic_string@DU?$char_traits@D@std@@V?$allocator@D@2@@std@@V12@U?$less@V?$basic_string@DU?$char_traits@D@std@@V?$allocator@D@2@@std@@@2@@property_tree@boost@@@boost@@QAEXI@Z 100017e0 f i JsonWriter.obj
 0001:000007e0       ?__autoclassinit2@?$string_path@V?$basic_string@DU?$char_traits@D@std@@V?$allocator@D@2@@std@@U?$id_translator@V?$basic_string@DU?$char_traits@D@std@@V?$allocator@D@2@@std@@@property_tree@boost@@@property_tree@boost@@QAEXI@Z 100017e0 f i JsonWriter.obj
 0001:000007e0       ?__autoclassinit2@Face@@QAEXI@Z 100017e0 f i Detector.obj
 0001:000007e0       ?__autoclassinit2@?$unique_ptr@V_Facet_base@std@@U?$default_delete@V_Facet_base@std@@@2@@std@@QAEXI@Z 100017e0 f i Face.obj
 0001:000007e0       ?__autoclassinit2@?$_Uninitialized_backout_al@PAIV?$allocator@I@std@@@std@@QAEXI@Z 100017e0 f i Face.obj
 0001:000007e0       ?__autoclassinit2@?$basic_ptree@V?$basic_string@DU?$char_traits@D@std@@V?$allocator@D@2@@std@@V12@U?$less@V?$basic_string@DU?$char_traits@D@std@@V?$allocator@D@2@@std@@@2@@property_tree@boost@@QAEXI@Z 100017e0 f i JsonWriter.obj
 0001:000007e0       ?__autoclassinit2@Mat@cv@@QAEXI@Z 100017e0 f i Detector.obj
 0001:000007e0       ?__autoclassinit2@?$_Uninitialized_backout_al@PAV?$Point_@H@cv@@V?$allocator@V?$Point_@H@cv@@@std@@@std@@QAEXI@Z 100017e0 f i detectFaces.obj
 0001:000007e0       ?__autoclassinit2@?$_String_const_iterator@V?$_String_val@U?$_Simple_types@D@std@@@std@@@std@@QAEXI@Z 100017e0 f i Face.obj
 0001:000007e0       ?__autoclassinit2@?$copy_map@U?$sequenced_index_node@U?$ordered_index_node@Unull_augment_policy@detail@multi_index@boost@@U?$index_node_base@U?$pair@$$CBV?$basic_string@DU?$char_traits@D@std@@V?$allocator@D@2@@std@@V?$basic_ptree@V?$basic_string@DU?$char_traits@D@std@@V?$allocator@D@2@@std@@V12@U?$less@V?$basic_string@DU?$char_traits@D@std@@V?$allocator@D@2@@std@@@2@@property_tree@boost@@@std@@V?$allocator@U?$pair@$$CBV?$basic_string@DU?$char_traits@D@std@@V?$allocator@D@2@@std@@V?$basic_ptree@V?$basic_string@DU?$char_traits@D@std@@V?$allocator@D@2@@std@@V12@U?$less@V?$basic_string@DU?$char_traits@D@std@@V?$allocator@D@2@@std@@@2@@property_tree@boost@@@std@@@2@@234@@detail@multi_index@boost@@@detail@multi_index@boost@@V?$allocator@U?$pair@$$CBV?$basic_string@DU?$char_traits@D@std@@V?$allocator@D@2@@std@@V?$basic_ptree@V?$basic_string@DU?$char_traits@D@std@@V?$allocator@D@2@@std@@V12@U?$less@V?$basic_string@DU?$char_traits@D@std@@V?$allocator@D@2@@std@@@2@@property_tree@boost@@@std@@@std@@@detail@multi_index@boost@@QAEXI@Z 100017e0 f i JsonWriter.obj
 0001:000007e0       ?__autoclassinit2@?$vector@VFace@@V?$allocator@VFace@@@std@@@std@@QAEXI@Z 100017e0 f i detectFaces.obj
 0001:000007e0       ?__autoclassinit2@?$_Uninitialized_backout_al@PAU?$format_item@DU?$char_traits@D@std@@V?$allocator@D@2@@detail@io@boost@@V?$allocator@U?$format_item@DU?$char_traits@D@std@@V?$allocator@D@2@@detail@io@boost@@@std@@@std@@QAEXI@Z 100017e0 f i Face.obj
 0001:000007e0       ?__autoclassinit2@?$sp_counted_impl_pd@PAV?$basic_altstringbuf@DU?$char_traits@D@std@@V?$allocator@D@2@@io@boost@@VNo_Op@?$basic_oaltstringstream@DU?$char_traits@D@std@@V?$allocator@D@2@@23@@detail@boost@@QAEXI@Z 100017e0 f i Face.obj
 0001:000007e0       ?__autoclassinit2@?$basic_ofstream@DU?$char_traits@D@std@@@std@@QAEXI@Z 100017e0 f i JsonWriter.obj
 0001:000007e0       ?__autoclassinit2@?$_Vb_iterator@U?$_Wrap_alloc@V?$allocator@I@std@@@std@@@std@@QAEXI@Z 100017e0 f i Face.obj
 0001:000007e0       ?__autoclassinit2@assoc_iterator@?$basic_ptree@V?$basic_string@DU?$char_traits@D@std@@V?$allocator@D@2@@std@@V12@U?$less@V?$basic_string@DU?$char_traits@D@std@@V?$allocator@D@2@@std@@@2@@property_tree@boost@@QAEXI@Z 100017e0 f i JsonWriter.obj
 0001:000007e0       ?__autoclassinit2@Detector@@QAEXI@Z 100017e0 f i detectFaces.obj
 0001:000007e0       ?__autoclassinit2@?$_Vector_iterator@V?$_Vector_val@U?$_Simple_types@I@std@@@std@@@std@@QAEXI@Z 100017e0 f i Face.obj
 0001:000007e0       ?__autoclassinit2@?$basic_ostringstream@DU?$char_traits@D@std@@V?$allocator@D@2@@std@@QAEXI@Z 100017e0 f i JsonWriter.obj
 0001:000007e0       ?__autoclassinit2@const_iterator@?$basic_ptree@V?$basic_string@DU?$char_traits@D@std@@V?$allocator@D@2@@std@@V12@U?$less@V?$basic_string@DU?$char_traits@D@std@@V?$allocator@D@2@@std@@@2@@property_tree@boost@@QAEXI@Z 100017e0 f i JsonWriter.obj
 0001:000007e0       ?__autoclassinit2@?$_Uninitialized_backout_al@PAVFace@@V?$allocator@VFace@@@std@@@std@@QAEXI@Z 100017e0 f i detectFaces.obj
 0001:000007e0       ?__autoclassinit2@?$basic_string_view@_WU?$char_traits@_W@std@@@std@@QAEXI@Z 100017e0 f i Face.obj
 0001:000007e0       ?__autoclassinit2@?$vector@V?$Rect_@H@cv@@V?$allocator@V?$Rect_@H@cv@@@std@@@std@@QAEXI@Z 100017e0 f i detectFaces.obj
 0001:000007e0       ?__autoclassinit2@?$basic_stringstream@DU?$char_traits@D@std@@V?$allocator@D@2@@std@@QAEXI@Z 100017e0 f i JsonWriter.obj
 0001:000007e0       ?__autoclassinit2@?$_String_iterator@V?$_String_val@U?$_Simple_types@D@std@@@std@@@std@@QAEXI@Z 100017e0 f i JsonWriter.obj
 0001:000007e0       ?__autoclassinit2@CascadeClassifier@cv@@QAEXI@Z 100017e0 f i Detector.obj
 0001:000007e0       ?__autoclassinit2@?$refcount_ptr@Uerror_info_container@exception_detail@boost@@@exception_detail@boost@@QAEXI@Z 100017e0 f i Face.obj
 0001:000007e0       ?__autoclassinit2@const_assoc_iterator@?$basic_ptree@V?$basic_string@DU?$char_traits@D@std@@V?$allocator@D@2@@std@@V12@U?$less@V?$basic_string@DU?$char_traits@D@std@@V?$allocator@D@2@@std@@@2@@property_tree@boost@@QAEXI@Z 100017e0 f i JsonWriter.obj
 0001:000007e0       ?__autoclassinit2@?$bidir_node_iterator@U?$sequenced_index_node@U?$ordered_index_node@Unull_augment_policy@detail@multi_index@boost@@U?$index_node_base@U?$pair@$$CBV?$basic_string@DU?$char_traits@D@std@@V?$allocator@D@2@@std@@V?$basic_ptree@V?$basic_string@DU?$char_traits@D@std@@V?$allocator@D@2@@std@@V12@U?$less@V?$basic_string@DU?$char_traits@D@std@@V?$allocator@D@2@@std@@@2@@property_tree@boost@@@std@@V?$allocator@U?$pair@$$CBV?$basic_string@DU?$char_traits@D@std@@V?$allocator@D@2@@std@@V?$basic_ptree@V?$basic_string@DU?$char_traits@D@std@@V?$allocator@D@2@@std@@V12@U?$less@V?$basic_string@DU?$char_traits@D@std@@V?$allocator@D@2@@std@@@2@@property_tree@boost@@@std@@@2@@234@@detail@multi_index@boost@@@detail@multi_index@boost@@@detail@multi_index@boost@@QAEXI@Z 100017e0 f i JsonWriter.obj
 0001:00000800       ?getInformation@@YAXV?$basic_string@DU?$char_traits@D@std@@V?$allocator@D@2@@std@@V?$vector@VFace@@V?$allocator@VFace@@@std@@@2@@Z 10001800 f   detectFaces.obj
 0001:00000950       ?size@?$vector@VFace@@V?$allocator@VFace@@@std@@@std@@QBEIXZ 10001950 f i detectFaces.obj
 0001:00000980       ??1?$vector@VFace@@V?$allocator@VFace@@@std@@@std@@QAE@XZ 10001980 f i detectFaces.obj
 0001:000009c0       ??0?$vector@VFace@@V?$allocator@VFace@@@std@@@std@@QAE@ABV01@@Z 100019c0 f i detectFaces.obj
 0001:00000ab0       ??1?$vector@V?$Rect_@H@cv@@V?$allocator@V?$Rect_@H@cv@@@std@@@std@@QAE@XZ 10001ab0 f i detectFaces.obj
 0001:00000af0       ??0?$vector@V?$Rect_@H@cv@@V?$allocator@V?$Rect_@H@cv@@@std@@@std@@QAE@ABV01@@Z 10001af0 f i detectFaces.obj
 0001:00000be0       ??1?$vector@V?$Point_@H@cv@@V?$allocator@V?$Point_@H@cv@@@std@@@std@@QAE@XZ 10001be0 f i detectFaces.obj
 0001:00000c20       ?_Orphan_all@?$_String_alloc@U?$_String_base_types@DV?$allocator@D@std@@@std@@@std@@QAEXXZ 10001c20 f i detectFaces.obj
 0001:00000c20       ?_Orphan_all@?$_Vector_alloc@U?$_Vec_base_types@HV?$allocator@H@std@@@std@@@std@@QAEXXZ 10001c20 f i Face.obj
 0001:00000c20       ?_Orphan_all@?$_Vector_alloc@U?$_Vec_base_types@IV?$allocator@I@std@@@std@@@std@@QAEXXZ 10001c20 f i Face.obj
 0001:00000c20       ?_Orphan_all@?$_Vector_alloc@U?$_Vec_base_types@U?$format_item@DU?$char_traits@D@std@@V?$allocator@D@2@@detail@io@boost@@V?$allocator@U?$format_item@DU?$char_traits@D@std@@V?$allocator@D@2@@detail@io@boost@@@std@@@std@@@std@@QAEXXZ 10001c20 f i Face.obj
 0001:00000c20       ?_Orphan_all@?$_Vector_alloc@U?$_Vec_base_types@VFace@@V?$allocator@VFace@@@std@@@std@@@std@@QAEXXZ 10001c20 f i detectFaces.obj
 0001:00000c20       ?_Orphan_all@?$_Vector_alloc@U?$_Vec_base_types@V?$Rect_@H@cv@@V?$allocator@V?$Rect_@H@cv@@@std@@@std@@@std@@QAEXXZ 10001c20 f i detectFaces.obj
 0001:00000c20       ?_Orphan_all@?$_Vector_alloc@U?$_Vec_base_types@V?$Point_@H@cv@@V?$allocator@V?$Point_@H@cv@@@std@@@std@@@std@@QAEXXZ 10001c20 f i detectFaces.obj
 0001:00000c20       ?_Orphan_all@?$_String_alloc@U?$_String_base_types@_WV?$allocator@_W@std@@@std@@@std@@QAEXXZ 10001c20 f i detectFaces.obj
 0001:00000c40       ?max_size@?$basic_string@_WU?$char_traits@_W@std@@V?$allocator@_W@2@@std@@QBEIXZ 10001c40 f i detectFaces.obj
 0001:00000cc0       ??$max@I@std@@YAABIABI0@Z  10001cc0 f i Face.obj
 0001:00000cc0       ??$_Max_value@I@std@@YAABIABI0@Z 10001cc0 f i detectFaces.obj
 0001:00000cf0       ??1?$basic_string@_WU?$char_traits@_W@std@@V?$allocator@_W@2@@std@@QAE@XZ 10001cf0 f i detectFaces.obj
 0001:00000d40       ??0?$basic_string@_WU?$char_traits@_W@std@@V?$allocator@_W@2@@std@@QAE@ABV01@@Z 10001d40 f i detectFaces.obj
 0001:00000dc0       ?size@?$basic_string@DU?$char_traits@D@std@@V?$allocator@D@2@@std@@QBEIXZ 10001dc0 f i detectFaces.obj
 0001:00000de0       ??1?$basic_string@DU?$char_traits@D@std@@V?$allocator@D@2@@std@@QAE@XZ 10001de0 f i detectFaces.obj
 0001:00000e30       ??0?$basic_string@DU?$char_traits@D@std@@V?$allocator@D@2@@std@@QAE@ABV01@@Z 10001e30 f i detectFaces.obj
 0001:00000eb0       ??1?$_String_alloc@U?$_String_base_types@_WV?$allocator@_W@std@@@std@@@std@@QAE@XZ 10001eb0 f i detectFaces.obj
 0001:00000eb0       ??1?$_String_alloc@U?$_String_base_types@DV?$allocator@D@std@@@std@@@std@@QAE@XZ 10001eb0 f i detectFaces.obj
 0001:00000ed0       ??1?$sequenced_index@U?$nth_layer@$00U?$pair@$$CBV?$basic_string@DU?$char_traits@D@std@@V?$allocator@D@2@@std@@V?$basic_ptree@V?$basic_string@DU?$char_traits@D@std@@V?$allocator@D@2@@std@@V12@U?$less@V?$basic_string@DU?$char_traits@D@std@@V?$allocator@D@2@@std@@@2@@property_tree@boost@@@std@@U?$indexed_by@U?$sequenced@U?$tag@Una@mpl@boost@@U123@U123@U123@U123@U123@U123@U123@U123@U123@U123@U123@U123@U123@U123@U123@U123@U123@U123@U123@@multi_index@boost@@@multi_index@boost@@U?$ordered_non_unique@U?$tag@Uby_name@subs@?$basic_ptree@V?$basic_string@DU?$char_traits@D@std@@V?$allocator@D@2@@std@@V12@U?$less@V?$basic_string@DU?$char_traits@D@std@@V?$allocator@D@2@@std@@@2@@property_tree@boost@@Una@mpl@5@U675@U675@U675@U675@U675@U675@U675@U675@U675@U675@U675@U675@U675@U675@U675@U675@U675@U675@@multi_index@boost@@U?$member@U?$pair@$$CBV?$basic_string@DU?$char_traits@D@std@@V?$allocator@D@2@@std@@V?$basic_ptree@V?$basic_string@DU?$char_traits@D@std@@V?$allocator@D@2@@std@@V12@U?$less@V?$basic_string@DU?$char_traits@D@std@@V?$allocator@D@2@@std@@@2@@property_tree@boost@@@std@@$$CBV?$basic_string@DU?$char_traits@D@std@@V?$allocator@D@2@@2@$0A@@23@U?$less@V?$basic_string@DU?$char_traits@D@std@@V?$allocator@D@2@@std@@@std@@@23@Una@mpl@3@U563@U563@U563@U563@U563@U563@U563@U563@U563@U563@U563@U563@U563@U563@U563@U563@U563@@multi_index@boost@@V?$allocator@U?$pair@$$CBV?$basic_string@DU?$char_traits@D@std@@V?$allocator@D@2@@std@@V?$basic_ptree@V?$basic_string@DU?$char_traits@D@std@@V?$allocator@D@2@@std@@V12@U?$less@V?$basic_string@DU?$char_traits@D@std@@V?$allocator@D@2@@std@@@2@@property_tree@boost@@@std@@@2@@detail@multi_index@boost@@U?$vector0@Una@mpl@boost@@@mpl@4@@detail@multi_index@boost@@IAE@XZ 10001ed0 f i JsonWriter.obj
 0001:00000ed0       ??1?$_Compressed_pair@V?$allocator@D@std@@V?$_String_val@U?$_Simple_types@D@std@@@2@$00@std@@QAE@XZ 10001ed0 f i detectFaces.obj
 0001:00000ed0       ??1?$_Compressed_pair@V?$allocator@_W@std@@V?$_String_val@U?$_Simple_types@_W@std@@@2@$00@std@@QAE@XZ 10001ed0 f i detectFaces.obj
 0001:00000ef0       ??1_System_error_category@std@@UAE@XZ 10001ef0 f i Detector.obj
 0001:00000ef0       ??1_Generic_error_category@std@@UAE@XZ 10001ef0 f i Detector.obj
 0001:00000ef0       ??1?$ordered_index@U?$member@U?$pair@$$CBV?$basic_string@DU?$char_traits@D@std@@V?$allocator@D@2@@std@@V?$basic_ptree@V?$basic_string@DU?$char_traits@D@std@@V?$allocator@D@2@@std@@V12@U?$less@V?$basic_string@DU?$char_traits@D@std@@V?$allocator@D@2@@std@@@2@@property_tree@boost@@@std@@$$CBV?$basic_string@DU?$char_traits@D@std@@V?$allocator@D@2@@2@$0A@@multi_index@boost@@U?$less@V?$basic_string@DU?$char_traits@D@std@@V?$allocator@D@2@@std@@@std@@U?$nth_layer@$01U?$pair@$$CBV?$basic_string@DU?$char_traits@D@std@@V?$allocator@D@2@@std@@V?$basic_ptree@V?$basic_string@DU?$char_traits@D@std@@V?$allocator@D@2@@std@@V12@U?$less@V?$basic_string@DU?$char_traits@D@std@@V?$allocator@D@2@@std@@@2@@property_tree@boost@@@std@@U?$indexed_by@U?$sequenced@U?$tag@Una@mpl@boost@@U123@U123@U123@U123@U123@U123@U123@U123@U123@U123@U123@U123@U123@U123@U123@U123@U123@U123@U123@@multi_index@boost@@@multi_index@boost@@U?$ordered_non_unique@U?$tag@Uby_name@subs@?$basic_ptree@V?$basic_string@DU?$char_traits@D@std@@V?$allocator@D@2@@std@@V12@U?$less@V?$basic_string@DU?$char_traits@D@std@@V?$allocator@D@2@@std@@@2@@property_tree@boost@@Una@mpl@5@U675@U675@U675@U675@U675@U675@U675@U675@U675@U675@U675@U675@U675@U675@U675@U675@U675@U675@@multi_index@boost@@U?$member@U?$pair@$$CBV?$basic_string@DU?$char_traits@D@std@@V?$allocator@D@2@@std@@V?$basic_ptree@V?$basic_string@DU?$char_traits@D@std@@V?$allocator@D@2@@std@@V12@U?$less@V?$basic_string@DU?$char_traits@D@std@@V?$allocator@D@2@@std@@@2@@property_tree@boost@@@std@@$$CBV?$basic_string@DU?$char_traits@D@std@@V?$allocator@D@2@@2@$0A@@23@U?$less@V?$basic_string@DU?$char_traits@D@std@@V?$allocator@D@2@@std@@@std@@@23@Una@mpl@3@U563@U563@U563@U563@U563@U563@U563@U563@U563@U563@U563@U563@U563@U563@U563@U563@U563@@multi_index@boost@@V?$allocator@U?$pair@$$CBV?$basic_string@DU?$char_traits@D@std@@V?$allocator@D@2@@std@@V?$basic_ptree@V?$basic_string@DU?$char_traits@D@std@@V?$allocator@D@2@@std@@V12@U?$less@V?$basic_string@DU?$char_traits@D@std@@V?$allocator@D@2@@std@@@2@@property_tree@boost@@@std@@@2@@detail@23@U?$vector1@Uby_name@subs@?$basic_ptree@V?$basic_string@DU?$char_traits@D@std@@V?$allocator@D@2@@std@@V12@U?$less@V?$basic_string@DU?$char_traits@D@std@@V?$allocator@D@2@@std@@@2@@property_tree@boost@@@mpl@3@Uordered_non_unique_tag@723@Unull_augment_policy@723@@detail@multi_index@boost@@QAE@XZ 10001ef0 f i JsonWriter.obj
 0001:00000ef0       ??1?$_String_val@U?$_Simple_types@_W@std@@@std@@QAE@XZ 10001ef0 f i detectFaces.obj
 0001:00000ef0       ??1?$_String_val@U?$_Simple_types@D@std@@@std@@QAE@XZ 10001ef0 f i detectFaces.obj
 0001:00000f10       ?_Mylast@?$_Vector_alloc@U?$_Vec_base_types@V?$Point_@H@cv@@V?$allocator@V?$Point_@H@cv@@@std@@@std@@@std@@QBEABQAV?$Point_@H@cv@@XZ 10001f10 f i detectFaces.obj
 0001:00000f10       ?_Mylast@?$_Vector_alloc@U?$_Vec_base_types@IV?$allocator@I@std@@@std@@@std@@QBEABQAIXZ 10001f10 f i Face.obj
 0001:00000f10       ?_Mylast@?$_Vector_alloc@U?$_Vec_base_types@V?$Rect_@H@cv@@V?$allocator@V?$Rect_@H@cv@@@std@@@std@@@std@@QAEAAPAV?$Rect_@H@cv@@XZ 10001f10 f i detectFaces.obj
 0001:00000f10       ?_Mylast@?$_Vector_alloc@U?$_Vec_base_types@VFace@@V?$allocator@VFace@@@std@@@std@@@std@@QBEABQAVFace@@XZ 10001f10 f i detectFaces.obj
 0001:00000f10       ?_Mylast@?$_Vector_alloc@U?$_Vec_base_types@V?$Rect_@H@cv@@V?$allocator@V?$Rect_@H@cv@@@std@@@std@@@std@@QBEABQAV?$Rect_@H@cv@@XZ 10001f10 f i detectFaces.obj
 0001:00000f10       ?_Mylast@?$_Vector_alloc@U?$_Vec_base_types@IV?$allocator@I@std@@@std@@@std@@QAEAAPAIXZ 10001f10 f i Face.obj
 0001:00000f10       ?_Mylast@?$_Vector_alloc@U?$_Vec_base_types@U?$format_item@DU?$char_traits@D@std@@V?$allocator@D@2@@detail@io@boost@@V?$allocator@U?$format_item@DU?$char_traits@D@std@@V?$allocator@D@2@@detail@io@boost@@@std@@@std@@@std@@QAEAAPAU?$format_item@DU?$char_traits@D@std@@V?$allocator@D@2@@detail@io@boost@@XZ 10001f10 f i Face.obj
 0001:00000f10       ?_Mylast@?$_Vector_alloc@U?$_Vec_base_types@HV?$allocator@H@std@@@std@@@std@@QAEAAPAHXZ 10001f10 f i Face.obj
 0001:00000f10       ?_Mylast@?$_Vector_alloc@U?$_Vec_base_types@U?$format_item@DU?$char_traits@D@std@@V?$allocator@D@2@@detail@io@boost@@V?$allocator@U?$format_item@DU?$char_traits@D@std@@V?$allocator@D@2@@detail@io@boost@@@std@@@std@@@std@@QBEABQAU?$format_item@DU?$char_traits@D@std@@V?$allocator@D@2@@detail@io@boost@@XZ 10001f10 f i Face.obj
 0001:00000f10       ?_Mylast@?$_Vector_alloc@U?$_Vec_base_types@V?$Point_@H@cv@@V?$allocator@V?$Point_@H@cv@@@std@@@std@@@std@@QAEAAPAV?$Point_@H@cv@@XZ 10001f10 f i detectFaces.obj
 0001:00000f10       ?_Mylast@?$_Vector_alloc@U?$_Vec_base_types@VFace@@V?$allocator@VFace@@@std@@@std@@@std@@QAEAAPAVFace@@XZ 10001f10 f i detectFaces.obj
 0001:00000f30       ?_Myfirst@?$_Vector_alloc@U?$_Vec_base_types@U?$format_item@DU?$char_traits@D@std@@V?$allocator@D@2@@detail@io@boost@@V?$allocator@U?$format_item@DU?$char_traits@D@std@@V?$allocator@D@2@@detail@io@boost@@@std@@@std@@@std@@QBEABQAU?$format_item@DU?$char_traits@D@std@@V?$allocator@D@2@@detail@io@boost@@XZ 10001f30 f i Face.obj
 0001:00000f30       ?ref@?$aligned_storage@Vlocale@std@@@optional_detail@boost@@QAEAAVlocale@std@@XZ 10001f30 f i Face.obj
 0001:00000f30       ?_Myfirst@?$_Vector_alloc@U?$_Vec_base_types@V?$Point_@H@cv@@V?$allocator@V?$Point_@H@cv@@@std@@@std@@@std@@QBEABQAV?$Point_@H@cv@@XZ 10001f30 f i detectFaces.obj
 0001:00000f30       ?ref@?$aligned_storage@V?$basic_string@DU?$char_traits@D@std@@V?$allocator@D@2@@std@@@optional_detail@boost@@QAEAAV?$basic_string@DU?$char_traits@D@std@@V?$allocator@D@2@@std@@XZ 10001f30 f i JsonWriter.obj
 0001:00000f30       ?_Myfirst@?$_Vector_alloc@U?$_Vec_base_types@U?$format_item@DU?$char_traits@D@std@@V?$allocator@D@2@@detail@io@boost@@V?$allocator@U?$format_item@DU?$char_traits@D@std@@V?$allocator@D@2@@detail@io@boost@@@std@@@std@@@std@@QAEAAPAU?$format_item@DU?$char_traits@D@std@@V?$allocator@D@2@@detail@io@boost@@XZ 10001f30 f i Face.obj
 0001:00000f30       ?_Myfirst@?$_Vector_alloc@U?$_Vec_base_types@VFace@@V?$allocator@VFace@@@std@@@std@@@std@@QBEABQAVFace@@XZ 10001f30 f i detectFaces.obj
 0001:00000f30       ?_Myfirst@?$_Vector_alloc@U?$_Vec_base_types@HV?$allocator@H@std@@@std@@@std@@QAEAAPAHXZ 10001f30 f i Face.obj
 0001:00000f30       ?_Myfirst@?$_Vector_alloc@U?$_Vec_base_types@V?$Point_@H@cv@@V?$allocator@V?$Point_@H@cv@@@std@@@std@@@std@@QAEAAPAV?$Point_@H@cv@@XZ 10001f30 f i detectFaces.obj
 0001:00000f30       ?ref@?$aligned_storage@Vlocale@std@@@optional_detail@boost@@QBEABVlocale@std@@XZ 10001f30 f i Face.obj
 0001:00000f30       ?_Myfirst@?$_Vector_alloc@U?$_Vec_base_types@HV?$allocator@H@std@@@std@@@std@@QBEABQAHXZ 10001f30 f i Face.obj
 0001:00000f30       ?_Myfirst@?$_Vector_alloc@U?$_Vec_base_types@IV?$allocator@I@std@@@std@@@std@@QAEAAPAIXZ 10001f30 f i Face.obj
 0001:00000f30       ?_Myfirst@?$_Vector_alloc@U?$_Vec_base_types@V?$Rect_@H@cv@@V?$allocator@V?$Rect_@H@cv@@@std@@@std@@@std@@QBEABQAV?$Rect_@H@cv@@XZ 10001f30 f i detectFaces.obj
 0001:00000f30       ?_Myfirst@?$_Vector_alloc@U?$_Vec_base_types@IV?$allocator@I@std@@@std@@@std@@QBEABQAIXZ 10001f30 f i Face.obj
 0001:00000f30       ?_Myfirst@?$_Vector_alloc@U?$_Vec_base_types@V?$Rect_@H@cv@@V?$allocator@V?$Rect_@H@cv@@@std@@@std@@@std@@QAEAAPAV?$Rect_@H@cv@@XZ 10001f30 f i detectFaces.obj
 0001:00000f30       ?_Myfirst@?$_Vector_alloc@U?$_Vec_base_types@VFace@@V?$allocator@VFace@@@std@@@std@@@std@@QAEAAPAVFace@@XZ 10001f30 f i detectFaces.obj
 0001:00000f50       ?_Getal@?$_Vector_alloc@U?$_Vec_base_types@U?$format_item@DU?$char_traits@D@std@@V?$allocator@D@2@@detail@io@boost@@V?$allocator@U?$format_item@DU?$char_traits@D@std@@V?$allocator@D@2@@detail@io@boost@@@std@@@std@@@std@@QBEABV?$allocator@U?$format_item@DU?$char_traits@D@std@@V?$allocator@D@2@@detail@io@boost@@@2@XZ 10001f50 f i Face.obj
 0001:00000f50       ?_Get_data@?$_Vector_alloc@U?$_Vec_base_types@U?$format_item@DU?$char_traits@D@std@@V?$allocator@D@2@@detail@io@boost@@V?$allocator@U?$format_item@DU?$char_traits@D@std@@V?$allocator@D@2@@detail@io@boost@@@std@@@std@@@std@@QAEAAV?$_Vector_val@U?$_Simple_types@U?$format_item@DU?$char_traits@D@std@@V?$allocator@D@2@@detail@io@boost@@@std@@@2@XZ 10001f50 f i Face.obj
 0001:00000f50       ?_Get_data@?$_Vector_alloc@U?$_Vec_base_types@IV?$allocator@I@std@@@std@@@std@@QBEABV?$_Vector_val@U?$_Simple_types@I@std@@@2@XZ 10001f50 f i Face.obj
 0001:00000f50       ?_Get_data@?$_Vector_alloc@U?$_Vec_base_types@VFace@@V?$allocator@VFace@@@std@@@std@@@std@@QBEABV?$_Vector_val@U?$_Simple_types@VFace@@@std@@@2@XZ 10001f50 f i detectFaces.obj
 0001:00000f50       ?_Get_data@?$_Vector_alloc@U?$_Vec_base_types@V?$Rect_@H@cv@@V?$allocator@V?$Rect_@H@cv@@@std@@@std@@@std@@QAEAAV?$_Vector_val@U?$_Simple_types@V?$Rect_@H@cv@@@std@@@2@XZ 10001f50 f i detectFaces.obj
 0001:00000f50       ?_Get_data@?$_String_alloc@U?$_String_base_types@_WV?$allocator@_W@std@@@std@@@std@@QAEAAV?$_String_val@U?$_Simple_types@_W@std@@@2@XZ 10001f50 f i detectFaces.obj
 0001:00000f50       ?_Get_data@?$_Vector_alloc@U?$_Vec_base_types@V?$Point_@H@cv@@V?$allocator@V?$Point_@H@cv@@@std@@@std@@@std@@QAEAAV?$_Vector_val@U?$_Simple_types@V?$Point_@H@cv@@@std@@@2@XZ 10001f50 f i detectFaces.obj
 0001:00000f50       ?_Get_data@?$_String_alloc@U?$_String_base_types@_WV?$allocator@_W@std@@@std@@@std@@QBEABV?$_String_val@U?$_Simple_types@_W@std@@@2@XZ 10001f50 f i detectFaces.obj
 0001:00000f50       ?_Getal@?$_Vector_alloc@U?$_Vec_base_types@V?$Point_@H@cv@@V?$allocator@V?$Point_@H@cv@@@std@@@std@@@std@@QBEABV?$allocator@V?$Point_@H@cv@@@2@XZ 10001f50 f i detectFaces.obj
 0001:00000f50       ?_Getal@?$_Vector_alloc@U?$_Vec_base_types@V?$Rect_@H@cv@@V?$allocator@V?$Rect_@H@cv@@@std@@@std@@@std@@QAEAAV?$allocator@V?$Rect_@H@cv@@@2@XZ 10001f50 f i detectFaces.obj
 0001:00000f50       ?_Myptr@?$_Unique_ptr_base@V_Facet_base@std@@U?$default_delete@V_Facet_base@std@@@2@@std@@QAEAAPAV_Facet_base@2@XZ 10001f50 f i Face.obj
 0001:00000f50       ?_Getal@?$_Vector_alloc@U?$_Vec_base_types@IV?$allocator@I@std@@@std@@@std@@QAEAAV?$allocator@I@2@XZ 10001f50 f i Face.obj
 0001:00000f50       ?_Get_data@?$_Vector_alloc@U?$_Vec_base_types@U?$format_item@DU?$char_traits@D@std@@V?$allocator@D@2@@detail@io@boost@@V?$allocator@U?$format_item@DU?$char_traits@D@std@@V?$allocator@D@2@@detail@io@boost@@@std@@@std@@@std@@QBEABV?$_Vector_val@U?$_Simple_types@U?$format_item@DU?$char_traits@D@std@@V?$allocator@D@2@@detail@io@boost@@@std@@@2@XZ 10001f50 f i Face.obj
 0001:00000f50       ?_Getal@?$_String_alloc@U?$_String_base_types@_WV?$allocator@_W@std@@@std@@@std@@QBEABV?$allocator@_W@2@XZ 10001f50 f i detectFaces.obj
 0001:00000f50       ?_Getal@?$_Vector_alloc@U?$_Vec_base_types@V?$Point_@H@cv@@V?$allocator@V?$Point_@H@cv@@@std@@@std@@@std@@QAEAAV?$allocator@V?$Point_@H@cv@@@2@XZ 10001f50 f i detectFaces.obj
 0001:00000f50       ?_Get_data@?$_String_alloc@U?$_String_base_types@DV?$allocator@D@std@@@std@@@std@@QAEAAV?$_String_val@U?$_Simple_types@D@std@@@2@XZ 10001f50 f i detectFaces.obj
 0001:00000f50       ?_Myptr@?$_Unique_ptr_base@V_Facet_base@std@@U?$default_delete@V_Facet_base@std@@@2@@std@@QBEABQAV_Facet_base@2@XZ 10001f50 f i Face.obj
 0001:00000f50       ?_Getal@?$_Vector_alloc@U?$_Vec_base_types@V?$Rect_@H@cv@@V?$allocator@V?$Rect_@H@cv@@@std@@@std@@@std@@QBEABV?$allocator@V?$Rect_@H@cv@@@2@XZ 10001f50 f i detectFaces.obj
 0001:00000f50       ?_Getal@?$_Vector_alloc@U?$_Vec_base_types@VFace@@V?$allocator@VFace@@@std@@@std@@@std@@QAEAAV?$allocator@VFace@@@2@XZ 10001f50 f i detectFaces.obj
 0001:00000f50       ?ptr_ref@?$aligned_storage@Vlocale@std@@@optional_detail@boost@@QAEPAVlocale@std@@XZ 10001f50 f i Face.obj
 0001:00000f50       ?_Get_data@?$_Vector_alloc@U?$_Vec_base_types@V?$Point_@H@cv@@V?$allocator@V?$Point_@H@cv@@@std@@@std@@@std@@QBEABV?$_Vector_val@U?$_Simple_types@V?$Point_@H@cv@@@std@@@2@XZ 10001f50 f i detectFaces.obj
 0001:00000f50       ?_Getal@?$_String_alloc@U?$_String_base_types@_WV?$allocator@_W@std@@@std@@@std@@QAEAAV?$allocator@_W@2@XZ 10001f50 f i detectFaces.obj
 0001:00000f50       ?_Get_data@?$_Vector_alloc@U?$_Vec_base_types@HV?$allocator@H@std@@@std@@@std@@QBEABV?$_Vector_val@U?$_Simple_types@H@std@@@2@XZ 10001f50 f i Face.obj
 0001:00000f50       ?_Get_data@?$_Vector_alloc@U?$_Vec_base_types@V?$Rect_@H@cv@@V?$allocator@V?$Rect_@H@cv@@@std@@@std@@@std@@QBEABV?$_Vector_val@U?$_Simple_types@V?$Rect_@H@cv@@@std@@@2@XZ 10001f50 f i detectFaces.obj
 0001:00000f50       ?ptr_ref@?$aligned_storage@Vlocale@std@@@optional_detail@boost@@QBEPBVlocale@std@@XZ 10001f50 f i Face.obj
 0001:00000f50       ?_Getal@?$_Vector_alloc@U?$_Vec_base_types@U?$format_item@DU?$char_traits@D@std@@V?$allocator@D@2@@detail@io@boost@@V?$allocator@U?$format_item@DU?$char_traits@D@std@@V?$allocator@D@2@@detail@io@boost@@@std@@@std@@@std@@QAEAAV?$allocator@U?$format_item@DU?$char_traits@D@std@@V?$allocator@D@2@@detail@io@boost@@@2@XZ 10001f50 f i Face.obj
 0001:00000f50       ?ptr_ref@?$aligned_storage@V?$basic_string@DU?$char_traits@D@std@@V?$allocator@D@2@@std@@@optional_detail@boost@@QAEPAV?$basic_string@DU?$char_traits@D@std@@V?$allocator@D@2@@std@@XZ 10001f50 f i JsonWriter.obj
 0001:00000f50       ?_Getal@?$_Vector_alloc@U?$_Vec_base_types@IV?$allocator@I@std@@@std@@@std@@QBEABV?$allocator@I@2@XZ 10001f50 f i Face.obj
 0001:00000f50       ?_Getal@?$_String_alloc@U?$_String_base_types@DV?$allocator@D@std@@@std@@@std@@QAEAAV?$allocator@D@2@XZ 10001f50 f i detectFaces.obj
 0001:00000f50       ?_Getal@?$_Vector_alloc@U?$_Vec_base_types@HV?$allocator@H@std@@@std@@@std@@QAEAAV?$allocator@H@2@XZ 10001f50 f i Face.obj
 0001:00000f50       ?_Get_data@?$_Vector_alloc@U?$_Vec_base_types@HV?$allocator@H@std@@@std@@@std@@QAEAAV?$_Vector_val@U?$_Simple_types@H@std@@@2@XZ 10001f50 f i Face.obj
 0001:00000f50       ?_Get_data@?$_Vector_alloc@U?$_Vec_base_types@VFace@@V?$allocator@VFace@@@std@@@std@@@std@@QAEAAV?$_Vector_val@U?$_Simple_types@VFace@@@std@@@2@XZ 10001f50 f i detectFaces.obj
 0001:00000f50       ?_Get_data@?$_Vector_alloc@U?$_Vec_base_types@IV?$allocator@I@std@@@std@@@std@@QAEAAV?$_Vector_val@U?$_Simple_types@I@std@@@2@XZ 10001f50 f i Face.obj
 0001:00000f50       ?_Get_data@?$_String_alloc@U?$_String_base_types@DV?$allocator@D@std@@@std@@@std@@QBEABV?$_String_val@U?$_Simple_types@D@std@@@2@XZ 10001f50 f i detectFaces.obj
 0001:00000f50       ?_Getal@?$_String_alloc@U?$_String_base_types@DV?$allocator@D@std@@@std@@@std@@QBEABV?$allocator@D@2@XZ 10001f50 f i detectFaces.obj
 0001:00000f50       ?_Getal@?$_Vector_alloc@U?$_Vec_base_types@VFace@@V?$allocator@VFace@@@std@@@std@@@std@@QBEABV?$allocator@VFace@@@2@XZ 10001f50 f i detectFaces.obj
 0001:00000f50       ?get_deleter@?$_Unique_ptr_base@V_Facet_base@std@@U?$default_delete@V_Facet_base@std@@@2@@std@@QAEAAU?$default_delete@V_Facet_base@std@@@2@XZ 10001f50 f i Face.obj
 0001:00000f70       ?_Tidy@?$vector@VFace@@V?$allocator@VFace@@@std@@@std@@AAEXXZ 10001f70 f i detectFaces.obj
 0001:00001010       ?_Buy@?$vector@VFace@@V?$allocator@VFace@@@std@@@std@@AAE_NI@Z 10002010 f i detectFaces.obj
 0001:000010c0       ?_Tidy@?$vector@V?$Rect_@H@cv@@V?$allocator@V?$Rect_@H@cv@@@std@@@std@@AAEXXZ 100020c0 f i detectFaces.obj
 0001:00001160       ?_Buy@?$vector@V?$Rect_@H@cv@@V?$allocator@V?$Rect_@H@cv@@@std@@@std@@AAE_NI@Z 10002160 f i detectFaces.obj
 0001:00001210       ?size@?$vector@V?$Rect_@H@cv@@V?$allocator@V?$Rect_@H@cv@@@std@@@std@@QBEIXZ 10002210 f i detectFaces.obj
 0001:00001240       ?_Tidy@?$vector@V?$Point_@H@cv@@V?$allocator@V?$Point_@H@cv@@@std@@@std@@AAEXXZ 10002240 f i detectFaces.obj
 0001:000012e0       ?_Large_string_engaged@?$_String_val@U?$_Simple_types@_W@std@@@std@@QBE_NXZ 100022e0 f i detectFaces.obj
 0001:00001310       ?_Myptr@?$_String_val@U?$_Simple_types@_W@std@@@std@@QBEPB_WXZ 10002310 f i detectFaces.obj
 0001:00001310       ?_Myptr@?$_String_val@U?$_Simple_types@_W@std@@@std@@QAEPA_WXZ 10002310 f i Face.obj
 0001:00001350       ??Bsentry@?$basic_ostream@DU?$char_traits@D@std@@@std@@QBE_NXZ 10002350 f i detectFaces.obj
 0001:00001370       ??1sentry@?$basic_ostream@DU?$char_traits@D@std@@@std@@QAE@XZ 10002370 f i detectFaces.obj
 0001:000013d0       ??0sentry@?$basic_ostream@DU?$char_traits@D@std@@@std@@QAE@AAV12@@Z 100023d0 f i detectFaces.obj
 0001:000014b0       ?_Large_string_engaged@?$_String_val@U?$_Simple_types@D@std@@@std@@QBE_NXZ 100024b0 f i detectFaces.obj
 0001:000014e0       ?_Myptr@?$_String_val@U?$_Simple_types@D@std@@@std@@QBEPBDXZ 100024e0 f i detectFaces.obj
 0001:000014e0       ?_Myptr@?$_String_val@U?$_Simple_types@D@std@@@std@@QAEPADXZ 100024e0 f i Detector.obj
 0001:00001520       ?_Tidy_deallocate@?$basic_string@_WU?$char_traits@_W@std@@V?$allocator@_W@2@@std@@QAEXXZ 10002520 f i detectFaces.obj
 0001:000015d0       ?_Construct_lv_contents@?$basic_string@_WU?$char_traits@_W@std@@V?$allocator@_W@2@@std@@QAEXABV12@@Z 100025d0 f i detectFaces.obj
 0001:000016f0       ?_Tidy_deallocate@?$basic_string@DU?$char_traits@D@std@@V?$allocator@D@2@@std@@QAEXXZ 100026f0 f i detectFaces.obj
 0001:000017a0       ?max_size@?$basic_string@DU?$char_traits@D@std@@V?$allocator@D@2@@std@@QBEIXZ 100027a0 f i detectFaces.obj
 0001:00001820       ?_Construct_lv_contents@?$basic_string@DU?$char_traits@D@std@@V?$allocator@D@2@@std@@QAEXABV12@@Z 10002820 f i detectFaces.obj
 0001:00001940       ?allocate@?$allocator@D@std@@QAEPADI@Z 10002940 f i detectFaces.obj
 0001:00001970       ?deallocate@?$allocator@D@std@@QAEXQADI@Z 10002970 f i detectFaces.obj
 0001:00001990       ?assign@?$_WChar_traits@_W@std@@SAXAA_WAB_W@Z 10002990 f i detectFaces.obj
 0001:000019b0       ?copy@?$_WChar_traits@_W@std@@SAPA_WQA_WQB_WI@Z 100029b0 f i detectFaces.obj
 0001:000019d0       ?derived@?$iterator_facade_base@Vconst_iterator@?$basic_ptree@V?$basic_string@DU?$char_traits@D@std@@V?$allocator@D@2@@std@@V12@U?$less@V?$basic_string@DU?$char_traits@D@std@@V?$allocator@D@2@@std@@@2@@property_tree@boost@@U?$pair@$$CBV?$basic_string@DU?$char_traits@D@std@@V?$allocator@D@2@@std@@V?$basic_ptree@V?$basic_string@DU?$char_traits@D@std@@V?$allocator@D@2@@std@@V12@U?$less@V?$basic_string@DU?$char_traits@D@std@@V?$allocator@D@2@@std@@@2@@property_tree@boost@@@std@@Ubidirectional_traversal_tag@iterators@4@ABU56@H$0A@$0A@@detail@iterators@boost@@IAEAAVconst_iterator@?$basic_ptree@V?$basic_string@DU?$char_traits@D@std@@V?$allocator@D@2@@std@@V12@U?$less@V?$basic_string@DU?$char_traits@D@std@@V?$allocator@D@2@@std@@@2@@property_tree@4@XZ 100029d0 f i JsonWriter.obj
 0001:000019d0       ?_Get_first@?$_Compressed_pair@V?$allocator@U?$format_item@DU?$char_traits@D@std@@V?$allocator@D@2@@detail@io@boost@@@std@@V?$_Vector_val@U?$_Simple_types@U?$format_item@DU?$char_traits@D@std@@V?$allocator@D@2@@detail@io@boost@@@std@@@2@$00@std@@QBEABV?$allocator@U?$format_item@DU?$char_traits@D@std@@V?$allocator@D@2@@detail@io@boost@@@2@XZ 100029d0 f i Face.obj
 0001:000019d0       ?_Get_first@?$_Compressed_pair@V?$allocator@VFace@@@std@@V?$_Vector_val@U?$_Simple_types@VFace@@@std@@@2@$00@std@@QAEAAV?$allocator@VFace@@@2@XZ 100029d0 f i detectFaces.obj
 0001:000019d0       ?_Get_second@?$_Compressed_pair@V?$allocator@U?$format_item@DU?$char_traits@D@std@@V?$allocator@D@2@@detail@io@boost@@@std@@V?$_Vector_val@U?$_Simple_types@U?$format_item@DU?$char_traits@D@std@@V?$allocator@D@2@@detail@io@boost@@@std@@@2@$00@std@@QAEAAV?$_Vector_val@U?$_Simple_types@U?$format_item@DU?$char_traits@D@std@@V?$allocator@D@2@@detail@io@boost@@@std@@@2@XZ 100029d0 f i Face.obj
 0001:000019d0       ?_Get_second@?$_Compressed_pair@V?$allocator@H@std@@V?$_Vector_val@U?$_Simple_types@H@std@@@2@$00@std@@QAEAAV?$_Vector_val@U?$_Simple_types@H@std@@@2@XZ 100029d0 f i Face.obj
 0001:000019d0       ?_Get_first@?$_Compressed_pair@V?$allocator@I@std@@V?$_Vector_val@U?$_Simple_types@I@std@@@2@$00@std@@QBEABV?$allocator@I@2@XZ 100029d0 f i Face.obj
 0001:000019d0       ?_Get_second@?$_Compressed_pair@V?$allocator@V?$Rect_@H@cv@@@std@@V?$_Vector_val@U?$_Simple_types@V?$Rect_@H@cv@@@std@@@2@$00@std@@QAEAAV?$_Vector_val@U?$_Simple_types@V?$Rect_@H@cv@@@std@@@2@XZ 100029d0 f i detectFaces.obj
 0001:000019d0       ??0?$allocator@U?$format_item@DU?$char_traits@D@std@@V?$allocator@D@2@@detail@io@boost@@@std@@QAE@XZ 100029d0 f i Face.obj
 0001:000019d0       ?data@?$basic_ptree@V?$basic_string@DU?$char_traits@D@std@@V?$allocator@D@2@@std@@V12@U?$less@V?$basic_string@DU?$char_traits@D@std@@V?$allocator@D@2@@std@@@2@@property_tree@boost@@QAEAAV?$basic_string@DU?$char_traits@D@std@@V?$allocator@D@2@@std@@XZ 100029d0 f i JsonWriter.obj
 0001:000019d0       ?_Get_first@?$_Compressed_pair@V?$allocator@V?$Point_@H@cv@@@std@@V?$_Vector_val@U?$_Simple_types@V?$Point_@H@cv@@@std@@@2@$00@std@@QAEAAV?$allocator@V?$Point_@H@cv@@@2@XZ 100029d0 f i detectFaces.obj
 0001:000019d0       ?_Get_first@?$_Compressed_pair@V?$allocator@V?$Rect_@H@cv@@@std@@V?$_Vector_val@U?$_Simple_types@V?$Rect_@H@cv@@@std@@@2@$00@std@@QBEABV?$allocator@V?$Rect_@H@cv@@@2@XZ 100029d0 f i detectFaces.obj
 0001:000019d0       ?_Get_first@?$_Compressed_pair@V?$allocator@U?$format_item@DU?$char_traits@D@std@@V?$allocator@D@2@@detail@io@boost@@@std@@V?$_Vector_val@U?$_Simple_types@U?$format_item@DU?$char_traits@D@std@@V?$allocator@D@2@@detail@io@boost@@@std@@@2@$00@std@@QAEAAV?$allocator@U?$format_item@DU?$char_traits@D@std@@V?$allocator@D@2@@detail@io@boost@@@2@XZ 100029d0 f i Face.obj
 0001:000019d0       ?data@?$basic_ptree@V?$basic_string@DU?$char_traits@D@std@@V?$allocator@D@2@@std@@V12@U?$less@V?$basic_string@DU?$char_traits@D@std@@V?$allocator@D@2@@std@@@2@@property_tree@boost@@QBEABV?$basic_string@DU?$char_traits@D@std@@V?$allocator@D@2@@std@@XZ 100029d0 f i JsonWriter.obj
 0001:000019d0       ?_Get_second@?$_Compressed_pair@V?$allocator@U?$format_item@DU?$char_traits@D@std@@V?$allocator@D@2@@detail@io@boost@@@std@@V?$_Vector_val@U?$_Simple_types@U?$format_item@DU?$char_traits@D@std@@V?$allocator@D@2@@detail@io@boost@@@std@@@2@$00@std@@QBEABV?$_Vector_val@U?$_Simple_types@U?$format_item@DU?$char_traits@D@std@@V?$allocator@D@2@@detail@io@boost@@@std@@@2@XZ 100029d0 f i Face.obj
 0001:000019d0       ??0?$allocator@I@std@@QAE@XZ 100029d0 f i Face.obj
 0001:000019d0       ?_Get_second@?$_Compressed_pair@V?$allocator@H@std@@V?$_Vector_val@U?$_Simple_types@H@std@@@2@$00@std@@QBEABV?$_Vector_val@U?$_Simple_types@H@std@@@2@XZ 100029d0 f i Face.obj
 0001:000019d0       ?_Get_first@?$_Compressed_pair@V?$allocator@_W@std@@V?$_String_val@U?$_Simple_types@_W@std@@@2@$00@std@@QAEAAV?$allocator@_W@2@XZ 100029d0 f i detectFaces.obj
 0001:000019d0       ?base_reference@?$iterator_adaptor@Vassoc_iterator@?$basic_ptree@V?$basic_string@DU?$char_traits@D@std@@V?$allocator@D@2@@std@@V12@U?$less@V?$basic_string@DU?$char_traits@D@std@@V?$allocator@D@2@@std@@@2@@property_tree@boost@@V?$bidir_node_iterator@U?$ordered_index_node@Unull_augment_policy@detail@multi_index@boost@@U?$index_node_base@U?$pair@$$CBV?$basic_string@DU?$char_traits@D@std@@V?$allocator@D@2@@std@@V?$basic_ptree@V?$basic_string@DU?$char_traits@D@std@@V?$allocator@D@2@@std@@V12@U?$less@V?$basic_string@DU?$char_traits@D@std@@V?$allocator@D@2@@std@@@2@@property_tree@boost@@@std@@V?$allocator@U?$pair@$$CBV?$basic_string@DU?$char_traits@D@std@@V?$allocator@D@2@@std@@V?$basic_ptree@V?$basic_string@DU?$char_traits@D@std@@V?$allocator@D@2@@std@@V12@U?$less@V?$basic_string@DU?$char_traits@D@std@@V?$allocator@D@2@@std@@@2@@property_tree@boost@@@std@@@2@@234@@detail@multi_index@boost@@@detail@multi_index@4@U?$pair@$$CBV?$basic_string@DU?$char_traits@D@std@@V?$allocator@D@2@@std@@V?$basic_ptree@V?$basic_string@DU?$char_traits@D@std@@V?$allocator@D@2@@std@@V12@U?$less@V?$basic_string@DU?$char_traits@D@std@@V?$allocator@D@2@@std@@@2@@property_tree@boost@@@std@@Uuse_default@iterators@4@Uuse_default@iterators@4@Uuse_default@iterators@4@@iterators@boost@@IBEABV?$bidir_node_iterator@U?$ordered_index_node@Unull_augment_policy@detail@multi_index@boost@@U?$index_node_base@U?$pair@$$CBV?$basic_string@DU?$char_traits@D@std@@V?$allocator@D@2@@std@@V?$basic_ptree@V?$basic_string@DU?$char_traits@D@std@@V?$allocator@D@2@@std@@V12@U?$less@V?$basic_string@DU?$char_traits@D@std@@V?$allocator@D@2@@std@@@2@@property_tree@boost@@@std@@V?$allocator@U?$pair@$$CBV?$basic_string@DU?$char_traits@D@std@@V?$allocator@D@2@@std@@V?$basic_ptree@V?$basic_string@DU?$char_traits@D@std@@V?$allocator@D@2@@std@@V12@U?$less@V?$basic_string@DU?$char_traits@D@std@@V?$allocator@D@2@@std@@@2@@property_tree@boost@@@std@@@2@@234@@detail@multi_index@boost@@@detail@multi_index@3@XZ 100029d0 f i JsonWriter.obj
 0001:000019d0       ?_Get_second@?$_Compressed_pair@V?$allocator@_W@std@@V?$_String_val@U?$_Simple_types@_W@std@@@2@$00@std@@QAEAAV?$_String_val@U?$_Simple_types@_W@std@@@2@XZ 100029d0 f i detectFaces.obj
 0001:000019d0       ?_Get_second@?$_Compressed_pair@V?$allocator@D@std@@V?$_String_val@U?$_Simple_types@D@std@@@2@$00@std@@QAEAAV?$_String_val@U?$_Simple_types@D@std@@@2@XZ 100029d0 f i detectFaces.obj
 0001:000019d0       ?_Get_first@?$_Compressed_pair@V?$allocator@_W@std@@V?$_String_val@U?$_Simple_types@_W@std@@@2@$00@std@@QBEABV?$allocator@_W@2@XZ 100029d0 f i detectFaces.obj
 0001:000019d0       ?address@?$aligned_storage@Vlocale@std@@@optional_detail@boost@@QAEPAXXZ 100029d0 f i Face.obj
 0001:000019d0       ?derived@?$iterator_facade_base@Viterator@?$basic_ptree@V?$basic_string@DU?$char_traits@D@std@@V?$allocator@D@2@@std@@V12@U?$less@V?$basic_string@DU?$char_traits@D@std@@V?$allocator@D@2@@std@@@2@@property_tree@boost@@U?$pair@$$CBV?$basic_string@DU?$char_traits@D@std@@V?$allocator@D@2@@std@@V?$basic_ptree@V?$basic_string@DU?$char_traits@D@std@@V?$allocator@D@2@@std@@V12@U?$less@V?$basic_string@DU?$char_traits@D@std@@V?$allocator@D@2@@std@@@2@@property_tree@boost@@@std@@Ubidirectional_traversal_tag@iterators@4@AAU56@H$0A@$0A@@detail@iterators@boost@@IBEABViterator@?$basic_ptree@V?$basic_string@DU?$char_traits@D@std@@V?$allocator@D@2@@std@@V12@U?$less@V?$basic_string@DU?$char_traits@D@std@@V?$allocator@D@2@@std@@@2@@property_tree@4@XZ 100029d0 f i JsonWriter.obj
 0001:000019d0       ?_Get_first@?$_Compressed_pair@U?$default_delete@V_Facet_base@std@@@std@@PAV_Facet_base@2@$00@std@@QAEAAU?$default_delete@V_Facet_base@std@@@2@XZ 100029d0 f i Face.obj
 0001:000019d0       ?prior@?$sequenced_index_node_impl@V?$allocator@D@std@@@detail@multi_index@boost@@QAEAAPAU1234@XZ 100029d0 f i JsonWriter.obj
 0001:000019d0       ?derived@?$iterator_facade_base@Vconst_assoc_iterator@?$basic_ptree@V?$basic_string@DU?$char_traits@D@std@@V?$allocator@D@2@@std@@V12@U?$less@V?$basic_string@DU?$char_traits@D@std@@V?$allocator@D@2@@std@@@2@@property_tree@boost@@U?$pair@$$CBV?$basic_string@DU?$char_traits@D@std@@V?$allocator@D@2@@std@@V?$basic_ptree@V?$basic_string@DU?$char_traits@D@std@@V?$allocator@D@2@@std@@V12@U?$less@V?$basic_string@DU?$char_traits@D@std@@V?$allocator@D@2@@std@@@2@@property_tree@boost@@@std@@Ubidirectional_traversal_tag@iterators@4@ABU56@H$0A@$0A@@detail@iterators@boost@@IBEABVconst_assoc_iterator@?$basic_ptree@V?$basic_string@DU?$char_traits@D@std@@V?$allocator@D@2@@std@@V12@U?$less@V?$basic_string@DU?$char_traits@D@std@@V?$allocator@D@2@@std@@@2@@property_tree@4@XZ 100029d0 f i JsonWriter.obj
 0001:000019d0       ?value@?$index_node_base@U?$pair@$$CBV?$basic_string@DU?$char_traits@D@std@@V?$allocator@D@2@@std@@V?$basic_ptree@V?$basic_string@DU?$char_traits@D@std@@V?$allocator@D@2@@std@@V12@U?$less@V?$basic_string@DU?$char_traits@D@std@@V?$allocator@D@2@@std@@@2@@property_tree@boost@@@std@@V?$allocator@U?$pair@$$CBV?$basic_string@DU?$char_traits@D@std@@V?$allocator@D@2@@std@@V?$basic_ptree@V?$basic_string@DU?$char_traits@D@std@@V?$allocator@D@2@@std@@V12@U?$less@V?$basic_string@DU?$char_traits@D@std@@V?$allocator@D@2@@std@@@2@@property_tree@boost@@@std@@@2@@detail@multi_index@boost@@QAEAAU?$pair@$$CBV?$basic_string@DU?$char_traits@D@std@@V?$allocator@D@2@@std@@V?$basic_ptree@V?$basic_string@DU?$char_traits@D@std@@V?$allocator@D@2@@std@@V12@U?$less@V?$basic_string@DU?$char_traits@D@std@@V?$allocator@D@2@@std@@@2@@property_tree@boost@@@std@@XZ 100029d0 f i JsonWriter.obj
 0001:000019d0       ?_Get_second@?$_Compressed_pair@V?$allocator@VFace@@@std@@V?$_Vector_val@U?$_Simple_types@VFace@@@std@@@2@$00@std@@QBEABV?$_Vector_val@U?$_Simple_types@VFace@@@std@@@2@XZ 100029d0 f i detectFaces.obj
 0001:000019d0       ??0?$allocator@U?$pair@$$CBV?$basic_string@DU?$char_traits@D@std@@V?$allocator@D@2@@std@@V?$basic_ptree@V?$basic_string@DU?$char_traits@D@std@@V?$allocator@D@2@@std@@V12@U?$less@V?$basic_string@DU?$char_traits@D@std@@V?$allocator@D@2@@std@@@2@@property_tree@boost@@@std@@@std@@QAE@XZ 100029d0 f i JsonWriter.obj
 0001:000019d0       ?_Get_first@?$_Compressed_pair@V?$allocator@V?$Point_@H@cv@@@std@@V?$_Vector_val@U?$_Simple_types@V?$Point_@H@cv@@@std@@@2@$00@std@@QBEABV?$allocator@V?$Point_@H@cv@@@2@XZ 100029d0 f i detectFaces.obj
 0001:000019d0       ?_Get_first@?$_Compressed_pair@V?$allocator@D@std@@V?$_String_val@U?$_Simple_types@D@std@@@2@$00@std@@QBEABV?$allocator@D@2@XZ 100029d0 f i detectFaces.obj
 0001:000019d0       ?_Get_first@?$_Compressed_pair@V?$allocator@VFace@@@std@@V?$_Vector_val@U?$_Simple_types@VFace@@@std@@@2@$00@std@@QBEABV?$allocator@VFace@@@2@XZ 100029d0 f i detectFaces.obj
 0001:000019d0       ??0?$allocator@_W@std@@QAE@XZ 100029d0 f i Face.obj
 0001:000019d0       ?base_reference@?$iterator_adaptor@Viterator@?$basic_ptree@V?$basic_string@DU?$char_traits@D@std@@V?$allocator@D@2@@std@@V12@U?$less@V?$basic_string@DU?$char_traits@D@std@@V?$allocator@D@2@@std@@@2@@property_tree@boost@@V?$bidir_node_iterator@U?$sequenced_index_node@U?$ordered_index_node@Unull_augment_policy@detail@multi_index@boost@@U?$index_node_base@U?$pair@$$CBV?$basic_string@DU?$char_traits@D@std@@V?$allocator@D@2@@std@@V?$basic_ptree@V?$basic_string@DU?$char_traits@D@std@@V?$allocator@D@2@@std@@V12@U?$less@V?$basic_string@DU?$char_traits@D@std@@V?$allocator@D@2@@std@@@2@@property_tree@boost@@@std@@V?$allocator@U?$pair@$$CBV?$basic_string@DU?$char_traits@D@std@@V?$allocator@D@2@@std@@V?$basic_ptree@V?$basic_string@DU?$char_traits@D@std@@V?$allocator@D@2@@std@@V12@U?$less@V?$basic_string@DU?$char_traits@D@std@@V?$allocator@D@2@@std@@@2@@property_tree@boost@@@std@@@2@@234@@detail@multi_index@boost@@@detail@multi_index@boost@@@detail@multi_index@4@U?$pair@$$CBV?$basic_string@DU?$char_traits@D@std@@V?$allocator@D@2@@std@@V?$basic_ptree@V?$basic_string@DU?$char_traits@D@std@@V?$allocator@D@2@@std@@V12@U?$less@V?$basic_string@DU?$char_traits@D@std@@V?$allocator@D@2@@std@@@2@@property_tree@boost@@@std@@Uuse_default@iterators@4@Uuse_default@iterators@4@Uuse_default@iterators@4@@iterators@boost@@IBEABV?$bidir_node_iterator@U?$sequenced_index_node@U?$ordered_index_node@Unull_augment_policy@detail@multi_index@boost@@U?$index_node_base@U?$pair@$$CBV?$basic_string@DU?$char_traits@D@std@@V?$allocator@D@2@@std@@V?$basic_ptree@V?$basic_string@DU?$char_traits@D@std@@V?$allocator@D@2@@std@@V12@U?$less@V?$basic_string@DU?$char_traits@D@std@@V?$allocator@D@2@@std@@@2@@property_tree@boost@@@std@@V?$allocator@U?$pair@$$CBV?$basic_string@DU?$char_traits@D@std@@V?$allocator@D@2@@std@@V?$basic_ptree@V?$basic_string@DU?$char_traits@D@std@@V?$allocator@D@2@@std@@V12@U?$less@V?$basic_string@DU?$char_traits@D@std@@V?$allocator@D@2@@std@@@2@@property_tree@boost@@@std@@@2@@234@@detail@multi_index@boost@@@detail@multi_index@boost@@@detail@multi_index@3@XZ 100029d0 f i JsonWriter.obj
 0001:000019d0       ?_Get_first@?$_Compressed_pair@V?$allocator@V?$Rect_@H@cv@@@std@@V?$_Vector_val@U?$_Simple_types@V?$Rect_@H@cv@@@std@@@2@$00@std@@QAEAAV?$allocator@V?$Rect_@H@cv@@@2@XZ 100029d0 f i detectFaces.obj
 0001:000019d0       ?_Get_second@?$_Compressed_pair@V?$allocator@V?$Point_@H@cv@@@std@@V?$_Vector_val@U?$_Simple_types@V?$Point_@H@cv@@@std@@@2@$00@std@@QBEABV?$_Vector_val@U?$_Simple_types@V?$Point_@H@cv@@@std@@@2@XZ 100029d0 f i detectFaces.obj
 0001:000019d0       ?_Get_first@?$_Compressed_pair@V?$allocator@D@std@@V?$_String_val@U?$_Simple_types@D@std@@@2@$00@std@@QAEAAV?$allocator@D@2@XZ 100029d0 f i detectFaces.obj
 0001:000019d0       ?address@?$aligned_storage@Vlocale@std@@@optional_detail@boost@@QBEPBXXZ 100029d0 f i Face.obj
 0001:000019d0       ?_Get_second@?$_Compressed_pair@V?$allocator@I@std@@V?$_Vector_val@U?$_Simple_types@I@std@@@2@$00@std@@QBEABV?$_Vector_val@U?$_Simple_types@I@std@@@2@XZ 100029d0 f i Face.obj
 0001:000019d0       ?address@?$aligned_storage@V?$basic_string@DU?$char_traits@D@std@@V?$allocator@D@2@@std@@@optional_detail@boost@@QAEPAXXZ 100029d0 f i JsonWriter.obj
 0001:000019d0       ?derived@?$iterator_facade_base@Vconst_iterator@?$basic_ptree@V?$basic_string@DU?$char_traits@D@std@@V?$allocator@D@2@@std@@V12@U?$less@V?$basic_string@DU?$char_traits@D@std@@V?$allocator@D@2@@std@@@2@@property_tree@boost@@U?$pair@$$CBV?$basic_string@DU?$char_traits@D@std@@V?$allocator@D@2@@std@@V?$basic_ptree@V?$basic_string@DU?$char_traits@D@std@@V?$allocator@D@2@@std@@V12@U?$less@V?$basic_string@DU?$char_traits@D@std@@V?$allocator@D@2@@std@@@2@@property_tree@boost@@@std@@Ubidirectional_traversal_tag@iterators@4@ABU56@H$0A@$0A@@detail@iterators@boost@@IBEABVconst_iterator@?$basic_ptree@V?$basic_string@DU?$char_traits@D@std@@V?$allocator@D@2@@std@@V12@U?$less@V?$basic_string@DU?$char_traits@D@std@@V?$allocator@D@2@@std@@@2@@property_tree@4@XZ 100029d0 f i JsonWriter.obj
 0001:000019d0       ?_Get_second@?$_Compressed_pair@V?$allocator@V?$Rect_@H@cv@@@std@@V?$_Vector_val@U?$_Simple_types@V?$Rect_@H@cv@@@std@@@2@$00@std@@QBEABV?$_Vector_val@U?$_Simple_types@V?$Rect_@H@cv@@@std@@@2@XZ 100029d0 f i detectFaces.obj
 0001:000019d0       ?get_head@?$cons@V?$tuple@U?$member@U?$pair@$$CBV?$basic_string@DU?$char_traits@D@std@@V?$allocator@D@2@@std@@V?$basic_ptree@V?$basic_string@DU?$char_traits@D@std@@V?$allocator@D@2@@std@@V12@U?$less@V?$basic_string@DU?$char_traits@D@std@@V?$allocator@D@2@@std@@@2@@property_tree@boost@@@std@@$$CBV?$basic_string@DU?$char_traits@D@std@@V?$allocator@D@2@@2@$0A@@multi_index@boost@@U?$less@V?$basic_string@DU?$char_traits@D@std@@V?$allocator@D@2@@std@@@std@@Unull_type@tuples@3@U673@U673@U673@U673@U673@U673@U673@@tuples@boost@@Unull_type@23@@tuples@boost@@QBEABV?$tuple@U?$member@U?$pair@$$CBV?$basic_string@DU?$char_traits@D@std@@V?$allocator@D@2@@std@@V?$basic_ptree@V?$basic_string@DU?$char_traits@D@std@@V?$allocator@D@2@@std@@V12@U?$less@V?$basic_string@DU?$char_traits@D@std@@V?$allocator@D@2@@std@@@2@@property_tree@boost@@@std@@$$CBV?$basic_string@DU?$char_traits@D@std@@V?$allocator@D@2@@2@$0A@@multi_index@boost@@U?$less@V?$basic_string@DU?$char_traits@D@std@@V?$allocator@D@2@@std@@@std@@Unull_type@tuples@3@U673@U673@U673@U673@U673@U673@U673@@23@XZ 100029d0 f i JsonWriter.obj
 0001:000019d0       ?base@?$iterator_adaptor@Vconst_iterator@?$basic_ptree@V?$basic_string@DU?$char_traits@D@std@@V?$allocator@D@2@@std@@V12@U?$less@V?$basic_string@DU?$char_traits@D@std@@V?$allocator@D@2@@std@@@2@@property_tree@boost@@V?$bidir_node_iterator@U?$sequenced_index_node@U?$ordered_index_node@Unull_augment_policy@detail@multi_index@boost@@U?$index_node_base@U?$pair@$$CBV?$basic_string@DU?$char_traits@D@std@@V?$allocator@D@2@@std@@V?$basic_ptree@V?$basic_string@DU?$char_traits@D@std@@V?$allocator@D@2@@std@@V12@U?$less@V?$basic_string@DU?$char_traits@D@std@@V?$allocator@D@2@@std@@@2@@property_tree@boost@@@std@@V?$allocator@U?$pair@$$CBV?$basic_string@DU?$char_traits@D@std@@V?$allocator@D@2@@std@@V?$basic_ptree@V?$basic_string@DU?$char_traits@D@std@@V?$allocator@D@2@@std@@V12@U?$less@V?$basic_string@DU?$char_traits@D@std@@V?$allocator@D@2@@std@@@2@@property_tree@boost@@@std@@@2@@234@@detail@multi_index@boost@@@detail@multi_index@boost@@@detail@multi_index@4@Uuse_default@iterators@4@U894@U894@U894@@iterators@boost@@QBEABV?$bidir_node_iterator@U?$sequenced_index_node@U?$ordered_index_node@Unull_augment_policy@detail@multi_index@boost@@U?$index_node_base@U?$pair@$$CBV?$basic_string@DU?$char_traits@D@std@@V?$allocator@D@2@@std@@V?$basic_ptree@V?$basic_string@DU?$char_traits@D@std@@V?$allocator@D@2@@std@@V12@U?$less@V?$basic_string@DU?$char_traits@D@std@@V?$allocator@D@2@@std@@@2@@property_tree@boost@@@std@@V?$allocator@U?$pair@$$CBV?$basic_string@DU?$char_traits@D@std@@V?$allocator@D@2@@std@@V?$basic_ptree@V?$basic_string@DU?$char_traits@D@std@@V?$allocator@D@2@@std@@V12@U?$less@V?$basic_string@DU?$char_traits@D@std@@V?$allocator@D@2@@std@@@2@@property_tree@boost@@@std@@@2@@234@@detail@multi_index@boost@@@detail@multi_index@boost@@@detail@multi_index@3@XZ 100029d0 f i JsonWriter.obj
 0001:000019d0       ??0?$allocator@D@std@@QAE@XZ 100029d0 f i Detector.obj
 0001:000019d0       ??0?$cons@U?$less@V?$basic_string@DU?$char_traits@D@std@@V?$allocator@D@2@@std@@@std@@Unull_type@tuples@boost@@@tuples@boost@@QAE@XZ 100029d0 f i JsonWriter.obj
 0001:000019d0       ?derived@?$iterator_facade_base@Vassoc_iterator@?$basic_ptree@V?$basic_string@DU?$char_traits@D@std@@V?$allocator@D@2@@std@@V12@U?$less@V?$basic_string@DU?$char_traits@D@std@@V?$allocator@D@2@@std@@@2@@property_tree@boost@@U?$pair@$$CBV?$basic_string@DU?$char_traits@D@std@@V?$allocator@D@2@@std@@V?$basic_ptree@V?$basic_string@DU?$char_traits@D@std@@V?$allocator@D@2@@std@@V12@U?$less@V?$basic_string@DU?$char_traits@D@std@@V?$allocator@D@2@@std@@@2@@property_tree@boost@@@std@@Ubidirectional_traversal_tag@iterators@4@AAU56@H$0A@$0A@@detail@iterators@boost@@IBEABVassoc_iterator@?$basic_ptree@V?$basic_string@DU?$char_traits@D@std@@V?$allocator@D@2@@std@@V12@U?$less@V?$basic_string@DU?$char_traits@D@std@@V?$allocator@D@2@@std@@@2@@property_tree@4@XZ 100029d0 f i JsonWriter.obj
 0001:000019d0       ?_Get_second@?$_Compressed_pair@V?$allocator@I@std@@V?$_Vector_val@U?$_Simple_types@I@std@@@2@$00@std@@QAEAAV?$_Vector_val@U?$_Simple_types@I@std@@@2@XZ 100029d0 f i Face.obj
 0001:000019d0       ??0JsonWriter@@QAE@XZ      100029d0 f i JsonWriter.obj
 0001:000019d0       ?_Get_second@?$_Compressed_pair@V?$allocator@D@std@@V?$_String_val@U?$_Simple_types@D@std@@@2@$00@std@@QBEABV?$_String_val@U?$_Simple_types@D@std@@@2@XZ 100029d0 f i detectFaces.obj
 0001:000019d0       ??0_Bxty@?$_String_val@U?$_Simple_types@D@std@@@std@@QAE@XZ 100029d0 f i detectFaces.obj
 0001:000019d0       ??0?$allocator@V?$Rect_@H@cv@@@std@@QAE@XZ 100029d0 f i Detector.obj
 0001:000019d0       ??0?$allocator@V?$Point_@H@cv@@@std@@QAE@XZ 100029d0 f i Detector.obj
 0001:000019d0       ?_Get_first@?$_Compressed_pair@V?$allocator@I@std@@V?$_Vector_val@U?$_Simple_types@I@std@@@2@$00@std@@QAEAAV?$allocator@I@2@XZ 100029d0 f i Face.obj
 0001:000019d0       ?_Get_second@?$_Compressed_pair@V?$allocator@_W@std@@V?$_String_val@U?$_Simple_types@_W@std@@@2@$00@std@@QBEABV?$_String_val@U?$_Simple_types@_W@std@@@2@XZ 100029d0 f i detectFaces.obj
 0001:000019d0       ?_Get_first@?$_Compressed_pair@V?$allocator@H@std@@V?$_Vector_val@U?$_Simple_types@H@std@@@2@$00@std@@QAEAAV?$allocator@H@2@XZ 100029d0 f i Face.obj
 0001:000019d0       ??0?$allocator@VFace@@@std@@QAE@XZ 100029d0 f i Detector.obj
 0001:000019d0       ?_Get_second@?$_Compressed_pair@U?$default_delete@V_Facet_base@std@@@std@@PAV_Facet_base@2@$00@std@@QAEAAPAV_Facet_base@2@XZ 100029d0 f i Face.obj
 0001:000019d0       ?base@?$iterator_adaptor@Vconst_assoc_iterator@?$basic_ptree@V?$basic_string@DU?$char_traits@D@std@@V?$allocator@D@2@@std@@V12@U?$less@V?$basic_string@DU?$char_traits@D@std@@V?$allocator@D@2@@std@@@2@@property_tree@boost@@V?$bidir_node_iterator@U?$ordered_index_node@Unull_augment_policy@detail@multi_index@boost@@U?$index_node_base@U?$pair@$$CBV?$basic_string@DU?$char_traits@D@std@@V?$allocator@D@2@@std@@V?$basic_ptree@V?$basic_string@DU?$char_traits@D@std@@V?$allocator@D@2@@std@@V12@U?$less@V?$basic_string@DU?$char_traits@D@std@@V?$allocator@D@2@@std@@@2@@property_tree@boost@@@std@@V?$allocator@U?$pair@$$CBV?$basic_string@DU?$char_traits@D@std@@V?$allocator@D@2@@std@@V?$basic_ptree@V?$basic_string@DU?$char_traits@D@std@@V?$allocator@D@2@@std@@V12@U?$less@V?$basic_string@DU?$char_traits@D@std@@V?$allocator@D@2@@std@@@2@@property_tree@boost@@@std@@@2@@234@@detail@multi_index@boost@@@detail@multi_index@4@Uuse_default@iterators@4@U894@U894@U894@@iterators@boost@@QBEABV?$bidir_node_iterator@U?$ordered_index_node@Unull_augment_policy@detail@multi_index@boost@@U?$index_node_base@U?$pair@$$CBV?$basic_string@DU?$char_traits@D@std@@V?$allocator@D@2@@std@@V?$basic_ptree@V?$basic_string@DU?$char_traits@D@std@@V?$allocator@D@2@@std@@V12@U?$less@V?$basic_string@DU?$char_traits@D@std@@V?$allocator@D@2@@std@@@2@@property_tree@boost@@@std@@V?$allocator@U?$pair@$$CBV?$basic_string@DU?$char_traits@D@std@@V?$allocator@D@2@@std@@V?$basic_ptree@V?$basic_string@DU?$char_traits@D@std@@V?$allocator@D@2@@std@@V12@U?$less@V?$basic_string@DU?$char_traits@D@std@@V?$allocator@D@2@@std@@@2@@property_tree@boost@@@std@@@2@@234@@detail@multi_index@boost@@@detail@multi_index@3@XZ 100029d0 f i JsonWriter.obj
 0001:000019d0       ??0?$allocator@H@std@@QAE@XZ 100029d0 f i Face.obj
 0001:000019d0       ?base@?$iterator_adaptor@Vassoc_iterator@?$basic_ptree@V?$basic_string@DU?$char_traits@D@std@@V?$allocator@D@2@@std@@V12@U?$less@V?$basic_string@DU?$char_traits@D@std@@V?$allocator@D@2@@std@@@2@@property_tree@boost@@V?$bidir_node_iterator@U?$ordered_index_node@Unull_augment_policy@detail@multi_index@boost@@U?$index_node_base@U?$pair@$$CBV?$basic_string@DU?$char_traits@D@std@@V?$allocator@D@2@@std@@V?$basic_ptree@V?$basic_string@DU?$char_traits@D@std@@V?$allocator@D@2@@std@@V12@U?$less@V?$basic_string@DU?$char_traits@D@std@@V?$allocator@D@2@@std@@@2@@property_tree@boost@@@std@@V?$allocator@U?$pair@$$CBV?$basic_string@DU?$char_traits@D@std@@V?$allocator@D@2@@std@@V?$basic_ptree@V?$basic_string@DU?$char_traits@D@std@@V?$allocator@D@2@@std@@V12@U?$less@V?$basic_string@DU?$char_traits@D@std@@V?$allocator@D@2@@std@@@2@@property_tree@boost@@@std@@@2@@234@@detail@multi_index@boost@@@detail@multi_index@4@U?$pair@$$CBV?$basic_string@DU?$char_traits@D@std@@V?$allocator@D@2@@std@@V?$basic_ptree@V?$basic_string@DU?$char_traits@D@std@@V?$allocator@D@2@@std@@V12@U?$less@V?$basic_string@DU?$char_traits@D@std@@V?$allocator@D@2@@std@@@2@@property_tree@boost@@@std@@Uuse_default@iterators@4@Uuse_default@iterators@4@Uuse_default@iterators@4@@iterators@boost@@QBEABV?$bidir_node_iterator@U?$ordered_index_node@Unull_augment_policy@detail@multi_index@boost@@U?$index_node_base@U?$pair@$$CBV?$basic_string@DU?$char_traits@D@std@@V?$allocator@D@2@@std@@V?$basic_ptree@V?$basic_string@DU?$char_traits@D@std@@V?$allocator@D@2@@std@@V12@U?$less@V?$basic_string@DU?$char_traits@D@std@@V?$allocator@D@2@@std@@@2@@property_tree@boost@@@std@@V?$allocator@U?$pair@$$CBV?$basic_string@DU?$char_traits@D@std@@V?$allocator@D@2@@std@@V?$basic_ptree@V?$basic_string@DU?$char_traits@D@std@@V?$allocator@D@2@@std@@V12@U?$less@V?$basic_string@DU?$char_traits@D@std@@V?$allocator@D@2@@std@@@2@@property_tree@boost@@@std@@@2@@234@@detail@multi_index@boost@@@detail@multi_index@3@XZ 100029d0 f i JsonWriter.obj
 0001:000019d0       ?_Get_second@?$_Compressed_pair@V?$allocator@V?$Point_@H@cv@@@std@@V?$_Vector_val@U?$_Simple_types@V?$Point_@H@cv@@@std@@@2@$00@std@@QAEAAV?$_Vector_val@U?$_Simple_types@V?$Point_@H@cv@@@std@@@2@XZ 100029d0 f i detectFaces.obj
 0001:000019d0       ??0_Bxty@?$_String_val@U?$_Simple_types@_W@std@@@std@@QAE@XZ 100029d0 f i detectFaces.obj
 0001:000019d0       ?_Get_second@?$_Compressed_pair@V?$allocator@VFace@@@std@@V?$_Vector_val@U?$_Simple_types@VFace@@@std@@@2@$00@std@@QAEAAV?$_Vector_val@U?$_Simple_types@VFace@@@std@@@2@XZ 100029d0 f i detectFaces.obj
 0001:000019d0       ?_Get_second@?$_Compressed_pair@U?$default_delete@V_Facet_base@std@@@std@@PAV_Facet_base@2@$00@std@@QBEABQAV_Facet_base@2@XZ 100029d0 f i Face.obj
 0001:000019e0       ?_Myend@?$_Vector_alloc@U?$_Vec_base_types@U?$format_item@DU?$char_traits@D@std@@V?$allocator@D@2@@detail@io@boost@@V?$allocator@U?$format_item@DU?$char_traits@D@std@@V?$allocator@D@2@@detail@io@boost@@@std@@@std@@@std@@QAEAAPAU?$format_item@DU?$char_traits@D@std@@V?$allocator@D@2@@detail@io@boost@@XZ 100029e0 f i Face.obj
 0001:000019e0       ?_Myend@?$_Vector_alloc@U?$_Vec_base_types@HV?$allocator@H@std@@@std@@@std@@QAEAAPAHXZ 100029e0 f i Face.obj
 0001:000019e0       ?_Myend@?$_Vector_alloc@U?$_Vec_base_types@HV?$allocator@H@std@@@std@@@std@@QBEABQAHXZ 100029e0 f i Face.obj
 0001:000019e0       ?_Myend@?$_Vector_alloc@U?$_Vec_base_types@IV?$allocator@I@std@@@std@@@std@@QBEABQAIXZ 100029e0 f i Face.obj
 0001:000019e0       ?_Myend@?$_Vector_alloc@U?$_Vec_base_types@V?$Point_@H@cv@@V?$allocator@V?$Point_@H@cv@@@std@@@std@@@std@@QBEABQAV?$Point_@H@cv@@XZ 100029e0 f i detectFaces.obj
 0001:000019e0       ?_Myend@?$_Vector_alloc@U?$_Vec_base_types@IV?$allocator@I@std@@@std@@@std@@QAEAAPAIXZ 100029e0 f i Face.obj
 0001:000019e0       ?_Myend@?$_Vector_alloc@U?$_Vec_base_types@VFace@@V?$allocator@VFace@@@std@@@std@@@std@@QBEABQAVFace@@XZ 100029e0 f i detectFaces.obj
 0001:000019e0       ?_Myend@?$_Vector_alloc@U?$_Vec_base_types@VFace@@V?$allocator@VFace@@@std@@@std@@@std@@QAEAAPAVFace@@XZ 100029e0 f i detectFaces.obj
 0001:000019e0       ?_Myend@?$_Vector_alloc@U?$_Vec_base_types@V?$Rect_@H@cv@@V?$allocator@V?$Rect_@H@cv@@@std@@@std@@@std@@QAEAAPAV?$Rect_@H@cv@@XZ 100029e0 f i detectFaces.obj
 0001:000019e0       ?_Myend@?$_Vector_alloc@U?$_Vec_base_types@U?$format_item@DU?$char_traits@D@std@@V?$allocator@D@2@@detail@io@boost@@V?$allocator@U?$format_item@DU?$char_traits@D@std@@V?$allocator@D@2@@detail@io@boost@@@std@@@std@@@std@@QBEABQAU?$format_item@DU?$char_traits@D@std@@V?$allocator@D@2@@detail@io@boost@@XZ 100029e0 f i Face.obj
 0001:000019e0       ?_Myend@?$_Vector_alloc@U?$_Vec_base_types@V?$Point_@H@cv@@V?$allocator@V?$Point_@H@cv@@@std@@@std@@@std@@QAEAAPAV?$Point_@H@cv@@XZ 100029e0 f i detectFaces.obj
 0001:000019e0       ?_Myend@?$_Vector_alloc@U?$_Vec_base_types@V?$Rect_@H@cv@@V?$allocator@V?$Rect_@H@cv@@@std@@@std@@@std@@QBEABQAV?$Rect_@H@cv@@XZ 100029e0 f i detectFaces.obj
 0001:00001a00       ?_Xlength@?$vector@VFace@@V?$allocator@VFace@@@std@@@std@@CAXXZ 10002a00 f i detectFaces.obj
 0001:00001a00       ?_Xlength@?$vector@V?$Rect_@H@cv@@V?$allocator@V?$Rect_@H@cv@@@std@@@std@@CAXXZ 10002a00 f i detectFaces.obj
 0001:00001a00       ?_Xlength@?$vector@V?$Point_@H@cv@@V?$allocator@V?$Point_@H@cv@@@std@@@std@@CAXXZ 10002a00 f i detectFaces.obj
 0001:00001a00       ?_Xlength@?$vector@U?$format_item@DU?$char_traits@D@std@@V?$allocator@D@2@@detail@io@boost@@V?$allocator@U?$format_item@DU?$char_traits@D@std@@V?$allocator@D@2@@detail@io@boost@@@std@@@std@@CAXXZ 10002a00 f i Face.obj
 0001:00001a00       ?_Xlength@?$vector@IV?$allocator@I@std@@@std@@CAXXZ 10002a00 f i Face.obj
 0001:00001a10       ?_Destroy@?$vector@VFace@@V?$allocator@VFace@@@std@@@std@@AAEXPAVFace@@0@Z 10002a10 f i detectFaces.obj
 0001:00001a40       ?capacity@?$vector@VFace@@V?$allocator@VFace@@@std@@@std@@QBEIXZ 10002a40 f i detectFaces.obj
 0001:00001a70       ?max_size@?$vector@VFace@@V?$allocator@VFace@@@std@@@std@@QBEIXZ 10002a70 f i detectFaces.obj
 0001:00001ab0       ?allocate@?$allocator@VFace@@@std@@QAEPAVFace@@I@Z 10002ab0 f i detectFaces.obj
 0001:00001ae0       ?deallocate@?$allocator@VFace@@@std@@QAEXQAVFace@@I@Z 10002ae0 f i detectFaces.obj
 0001:00001b10       ?_Destroy@?$vector@V?$Point_@H@cv@@V?$allocator@V?$Point_@H@cv@@@std@@@std@@AAEXPAV?$Point_@H@cv@@0@Z 10002b10 f i detectFaces.obj
 0001:00001b10       ?_Destroy@?$vector@V?$Rect_@H@cv@@V?$allocator@V?$Rect_@H@cv@@@std@@@std@@AAEXPAV?$Rect_@H@cv@@0@Z 10002b10 f i detectFaces.obj
 0001:00001b10       ?_Destroy@?$vector@HV?$allocator@H@std@@@std@@AAEXPAH0@Z 10002b10 f i Face.obj
 0001:00001b10       ?_Destroy@?$vector@IV?$allocator@I@std@@@std@@AAEXPAI0@Z 10002b10 f i Face.obj
 0001:00001b40       ?capacity@?$vector@V?$Rect_@H@cv@@V?$allocator@V?$Rect_@H@cv@@@std@@@std@@QBEIXZ 10002b40 f i detectFaces.obj
 0001:00001b70       ?max_size@?$vector@V?$Rect_@H@cv@@V?$allocator@V?$Rect_@H@cv@@@std@@@std@@QBEIXZ 10002b70 f i detectFaces.obj
 0001:00001bb0       ?allocate@?$allocator@V?$Rect_@H@cv@@@std@@QAEPAV?$Rect_@H@cv@@I@Z 10002bb0 f i detectFaces.obj
 0001:00001be0       ?deallocate@?$allocator@V?$Rect_@H@cv@@@std@@QAEXQAV?$Rect_@H@cv@@I@Z 10002be0 f i detectFaces.obj
 0001:00001c00       ?capacity@?$vector@V?$Point_@H@cv@@V?$allocator@V?$Point_@H@cv@@@std@@@std@@QBEIXZ 10002c00 f i detectFaces.obj
 0001:00001c30       ?deallocate@?$allocator@V?$Point_@H@cv@@@std@@QAEXQAV?$Point_@H@cv@@I@Z 10002c30 f i detectFaces.obj
 0001:00001c50       ??1_Sentry_base@?$basic_ostream@DU?$char_traits@D@std@@@std@@QAE@XZ 10002c50 f i detectFaces.obj
 0001:00001cd0       ??0_Sentry_base@?$basic_ostream@DU?$char_traits@D@std@@@std@@QAE@AAV12@@Z 10002cd0 f i detectFaces.obj
 0001:00001d30       ?allocate@?$allocator@_W@std@@QAEPA_WI@Z 10002d30 f i detectFaces.obj
 0001:00001d60       ?deallocate@?$allocator@_W@std@@QAEXQA_WI@Z 10002d60 f i detectFaces.obj
 0001:00001d80       ?max_size@?$_Default_allocator_traits@V?$allocator@VFace@@@std@@@std@@SAIABV?$allocator@VFace@@@2@@Z 10002d80 f i detectFaces.obj
 0001:00001d90       ?max_size@?$_Default_allocator_traits@V?$allocator@V?$Rect_@H@cv@@@std@@@std@@SAIABV?$allocator@V?$Rect_@H@cv@@@2@@Z 10002d90 f i detectFaces.obj
 0001:00001da0       ??$min@K@std@@YAABKABK0@Z  10002da0 f i JsonWriter.obj
 0001:00001da0       ??$min@I@std@@YAABIABI0@Z  10002da0 f i Face.obj
 0001:00001da0       ??$_Min_value@I@std@@YAABIABI0@Z 10002da0 f i detectFaces.obj
 0001:00001dd0       ??4?$Point_@H@cv@@QAEAAV01@ABV01@@Z 10002dd0 f i Detector.obj
 0001:00001dd0       ??0?$Point_@H@cv@@QAE@ABV01@@Z 10002dd0 f i detectFaces.obj
 0001:00001e00       ??$?6U?$char_traits@D@std@@@std@@YAAAV?$basic_ostream@DU?$char_traits@D@std@@@0@AAV10@PBD@Z 10002e00 f i detectFaces.obj
 0001:00002140       ??$?6DU?$char_traits@D@std@@V?$allocator@D@1@@std@@YAAAV?$basic_ostream@DU?$char_traits@D@std@@@0@AAV10@ABV?$basic_string@DU?$char_traits@D@std@@V?$allocator@D@2@@0@@Z 10003140 f i detectFaces.obj
 0001:00002170       ??$endl@DU?$char_traits@D@std@@@std@@YAAAV?$basic_ostream@DU?$char_traits@D@std@@@0@AAV10@@Z 10003170 f i detectFaces.obj
 0001:000021b0       ??$?0V?$allocator@V?$Point_@H@cv@@@std@@X@?$_Vector_alloc@U?$_Vec_base_types@V?$Point_@H@cv@@V?$allocator@V?$Point_@H@cv@@@std@@@std@@@std@@QAE@$$QAV?$allocator@V?$Point_@H@cv@@@1@@Z 100031b0 f i detectFaces.obj
 0001:000021b0       ??$?0V?$allocator@V?$Rect_@H@cv@@@std@@X@?$_Vector_alloc@U?$_Vec_base_types@V?$Rect_@H@cv@@V?$allocator@V?$Rect_@H@cv@@@std@@@std@@@std@@QAE@$$QAV?$allocator@V?$Rect_@H@cv@@@1@@Z 100031b0 f i detectFaces.obj
 0001:000021b0       ??$?0V?$allocator@VFace@@@std@@X@?$_Vector_alloc@U?$_Vec_base_types@VFace@@V?$allocator@VFace@@@std@@@std@@@std@@QAE@$$QAV?$allocator@VFace@@@1@@Z 100031b0 f i detectFaces.obj
 0001:000021e0       ??$_Ucopy@PAVFace@@@?$vector@VFace@@V?$allocator@VFace@@@std@@@std@@AAEPAVFace@@PAV2@00@Z 100031e0 f i detectFaces.obj
 0001:00002210       ??$_Ucopy@PAV?$Rect_@H@cv@@@?$vector@V?$Rect_@H@cv@@V?$allocator@V?$Rect_@H@cv@@@std@@@std@@AAEPAV?$Rect_@H@cv@@PAV23@00@Z 10003210 f i detectFaces.obj
 0001:00002240       ??$?0ABV?$allocator@_W@std@@X@?$_String_alloc@U?$_String_base_types@_WV?$allocator@_W@std@@@std@@@std@@QAE@ABV?$allocator@_W@1@@Z 10003240 f i Face.obj
 0001:00002240       ??$?0V?$allocator@_W@std@@X@?$_String_alloc@U?$_String_base_types@_WV?$allocator@_W@std@@@std@@@std@@QAE@$$QAV?$allocator@_W@1@@Z 10003240 f i detectFaces.obj
 0001:00002240       ??$?0V?$allocator@D@std@@X@?$_String_alloc@U?$_String_base_types@DV?$allocator@D@std@@@std@@@std@@QAE@$$QAV?$allocator@D@1@@Z 10003240 f i detectFaces.obj
 0001:00002240       ??$?0ABV?$allocator@D@std@@X@?$_String_alloc@U?$_String_base_types@DV?$allocator@D@std@@@std@@@std@@QAE@ABV?$allocator@D@1@@Z 10003240 f i Detector.obj
 0001:00002270       ??$add@PAU?$ordered_index_node_impl@Unull_augment_policy@detail@multi_index@boost@@V?$allocator@D@std@@@detail@multi_index@boost@@@null_augment_policy@detail@multi_index@boost@@SAXPAU?$ordered_index_node_impl@Unull_augment_policy@detail@multi_index@boost@@V?$allocator@D@std@@@123@0@Z 10003270 f i JsonWriter.obj
 0001:00002270       ??$_Destroy_range1@V?$allocator@H@std@@@std@@YAXPAH0AAV?$allocator@H@0@U?$integral_constant@_N$00@0@@Z 10003270 f i Face.obj
 0001:00002270       ??$copy@PAU?$ordered_index_node_impl@Unull_augment_policy@detail@multi_index@boost@@V?$allocator@D@std@@@detail@multi_index@boost@@@null_augment_policy@detail@multi_index@boost@@SAXPAU?$ordered_index_node_impl@Unull_augment_policy@detail@multi_index@boost@@V?$allocator@D@std@@@123@0@Z 10003270 f i JsonWriter.obj
 0001:00002270       ??$_Destroy_range1@V?$allocator@V?$Point_@H@cv@@@std@@@std@@YAXPAV?$Point_@H@cv@@0AAV?$allocator@V?$Point_@H@cv@@@0@U?$integral_constant@_N$00@0@@Z 10003270 f i detectFaces.obj
 0001:00002270       ??$put_head@DU?$char_traits@D@std@@V?$basic_string@DU?$char_traits@D@std@@V?$allocator@D@2@@2@@detail@io@boost@@YAXAAV?$basic_ostream@DU?$char_traits@D@std@@@std@@ABV?$basic_string@DU?$char_traits@D@std@@V?$allocator@D@2@@4@@Z 10003270 f i Face.obj
 0001:00002270       ??$_Destroy_range1@V?$allocator@V?$Rect_@H@cv@@@std@@@std@@YAXPAV?$Rect_@H@cv@@0AAV?$allocator@V?$Rect_@H@cv@@@0@U?$integral_constant@_N$00@0@@Z 10003270 f i detectFaces.obj
 0001:00002270       ?sp_enable_shared_from_this@detail@boost@@YAXZZ 10003270 f i Face.obj
 0001:00002270       ?throw_exception_assert_compatibility@boost@@YAXABVexception@std@@@Z 10003270 f i Face.obj
 0001:00002270       ??$_Pocca@V?$allocator@V?$Rect_@H@cv@@@std@@@std@@YAXAAV?$allocator@V?$Rect_@H@cv@@@0@ABV10@U?$integral_constant@_N$0A@@0@@Z 10003270 f i Face.obj
 0001:00002270       ??$_Pocca@V?$allocator@D@std@@@std@@YAXAAV?$allocator@D@0@ABV10@U?$integral_constant@_N$0A@@0@@Z 10003270 f i Face.obj
 0001:00002270       ??$_Destroy_range1@V?$allocator@I@std@@@std@@YAXPAI0AAV?$allocator@I@0@U?$integral_constant@_N$00@0@@Z 10003270 f i Face.obj
 0001:00002270       ??$rotate_left@PAU?$ordered_index_node_impl@Unull_augment_policy@detail@multi_index@boost@@V?$allocator@D@std@@@detail@multi_index@boost@@@null_augment_policy@detail@multi_index@boost@@SAXPAU?$ordered_index_node_impl@Unull_augment_policy@detail@multi_index@boost@@V?$allocator@D@std@@@123@0@Z 10003270 f i JsonWriter.obj
 0001:00002270       ??$put_head@DU?$char_traits@D@std@@H@detail@io@boost@@YAXAAV?$basic_ostream@DU?$char_traits@D@std@@@std@@ABH@Z 10003270 f i Face.obj
 0001:00002270       ??$rotate_right@PAU?$ordered_index_node_impl@Unull_augment_policy@detail@multi_index@boost@@V?$allocator@D@std@@@detail@multi_index@boost@@@null_augment_policy@detail@multi_index@boost@@SAXPAU?$ordered_index_node_impl@Unull_augment_policy@detail@multi_index@boost@@V?$allocator@D@std@@@123@0@Z 10003270 f i JsonWriter.obj
 0001:00002270       ??$destroy@PAD@?$_Default_allocator_traits@V?$allocator@D@std@@@std@@SAXAAV?$allocator@D@1@QAPAD@Z 10003270 f i detectFaces.obj
 0001:00002270       ??$destroy@PA_W@?$_Default_allocator_traits@V?$allocator@_W@std@@@std@@SAXAAV?$allocator@_W@1@QAPA_W@Z 10003270 f i detectFaces.obj
 0001:00002280       ??$construct@PA_WABQA_W@?$_Default_allocator_traits@V?$allocator@_W@std@@@std@@SAXAAV?$allocator@_W@1@QAPA_WABQA_W@Z 10003280 f i detectFaces.obj
 0001:00002280       ??$construct@PADABQAD@?$_Default_allocator_traits@V?$allocator@D@std@@@std@@SAXAAV?$allocator@D@1@QAPADABQAD@Z 10003280 f i detectFaces.obj
 0001:00002280       ??$construct@IABI@?$_Default_allocator_traits@V?$allocator@I@std@@@std@@SAXAAV?$allocator@I@1@QAIABI@Z 10003280 f i Face.obj
 0001:000022b0       ??$_Allocate@$07U_Default_allocate_traits@std@@$0A@@std@@YAPAXI@Z 100032b0 f i detectFaces.obj
 0001:000022f0       ??$_Deallocate@$07$0A@@std@@YAXPAXI@Z 100032f0 f i detectFaces.obj
 0001:00002320       ??$_Destroy_range@V?$allocator@VFace@@@std@@@std@@YAXPAVFace@@0AAV?$allocator@VFace@@@0@@Z 10003320 f i detectFaces.obj
 0001:00002350       ??$_Get_size_of_n@$0II@@std@@YAII@Z 10003350 f i detectFaces.obj
 0001:00002380       ??$_Destroy_range@V?$allocator@I@std@@@std@@YAXPAI0AAV?$allocator@I@0@@Z 10003380 f i Face.obj
 0001:00002380       ??$_Destroy_range@V?$allocator@H@std@@@std@@YAXPAH0AAV?$allocator@H@0@@Z 10003380 f i Face.obj
 0001:00002380       ??$_Destroy_range@V?$allocator@V?$Point_@H@cv@@@std@@@std@@YAXPAV?$Point_@H@cv@@0AAV?$allocator@V?$Point_@H@cv@@@0@@Z 10003380 f i detectFaces.obj
 0001:00002380       ??$_Destroy_range@V?$allocator@V?$Rect_@H@cv@@@std@@@std@@YAXPAV?$Rect_@H@cv@@0AAV?$allocator@V?$Rect_@H@cv@@@0@@Z 10003380 f i detectFaces.obj
 0001:000023b0       ??$_Get_size_of_n@$0BA@@std@@YAII@Z 100033b0 f i detectFaces.obj
 0001:000023e0       ??$_Get_size_of_n@$01@std@@YAII@Z 100033e0 f i detectFaces.obj
 0001:00002410       ??0?$_String_val@U?$_Simple_types@D@std@@@std@@QAE@XZ 10003410 f i detectFaces.obj
 0001:00002410       ??0?$_String_val@U?$_Simple_types@_W@std@@@std@@QAE@XZ 10003410 f i detectFaces.obj
 0001:00002440       ?data@?$basic_string@DU?$char_traits@D@std@@V?$allocator@D@2@@std@@QBEPBDXZ 10003440 f i detectFaces.obj
 0001:00002440       ?data@?$basic_string@DU?$char_traits@D@std@@V?$allocator@D@2@@std@@QAEPADXZ 10003440 f i Detector.obj
 0001:00002440       ?c_str@?$basic_string@DU?$char_traits@D@std@@V?$allocator@D@2@@std@@QBEPBDXZ 10003440 f i Detector.obj
 0001:00002490       ??$_Insert_string@DU?$char_traits@D@std@@I@std@@YAAAV?$basic_ostream@DU?$char_traits@D@std@@@0@AAV10@QBDI@Z 10003490 f i detectFaces.obj
 0001:00002770       ??$?0V?$allocator@V?$Point_@H@cv@@@std@@$$V@?$_Compressed_pair@V?$allocator@V?$Point_@H@cv@@@std@@V?$_Vector_val@U?$_Simple_types@V?$Point_@H@cv@@@std@@@2@$00@std@@QAE@U_One_then_variadic_args_t@1@$$QAV?$allocator@V?$Point_@H@cv@@@1@@Z 10003770 f i detectFaces.obj
 0001:00002770       ??$?0V?$allocator@V?$Rect_@H@cv@@@std@@$$V@?$_Compressed_pair@V?$allocator@V?$Rect_@H@cv@@@std@@V?$_Vector_val@U?$_Simple_types@V?$Rect_@H@cv@@@std@@@2@$00@std@@QAE@U_One_then_variadic_args_t@1@$$QAV?$allocator@V?$Rect_@H@cv@@@1@@Z 10003770 f i detectFaces.obj
 0001:00002770       ??$?0V?$allocator@VFace@@@std@@$$V@?$_Compressed_pair@V?$allocator@VFace@@@std@@V?$_Vector_val@U?$_Simple_types@VFace@@@std@@@2@$00@std@@QAE@U_One_then_variadic_args_t@1@$$QAV?$allocator@VFace@@@1@@Z 10003770 f i detectFaces.obj
 0001:000027a0       ??$_Uninitialized_copy@PAVFace@@PAV1@V?$allocator@VFace@@@std@@@std@@YAPAVFace@@QAV1@0PAV1@AAV?$allocator@VFace@@@0@@Z 100037a0 f i detectFaces.obj
 0001:00002840       ??$_Uninitialized_copy@PAV?$Rect_@H@cv@@PAV12@V?$allocator@V?$Rect_@H@cv@@@std@@@std@@YAPAV?$Rect_@H@cv@@QAV12@0PAV12@AAV?$allocator@V?$Rect_@H@cv@@@0@@Z 10003840 f i detectFaces.obj
 0001:000028e0       ??$?0V?$allocator@_W@std@@$$V@?$_Compressed_pair@V?$allocator@_W@std@@V?$_String_val@U?$_Simple_types@_W@std@@@2@$00@std@@QAE@U_One_then_variadic_args_t@1@$$QAV?$allocator@_W@1@@Z 100038e0 f i detectFaces.obj
 0001:000028e0       ??$?0ABV?$allocator@D@std@@$$V@?$_Compressed_pair@V?$allocator@D@std@@V?$_String_val@U?$_Simple_types@D@std@@@2@$00@std@@QAE@U_One_then_variadic_args_t@1@ABV?$allocator@D@1@@Z 100038e0 f i Detector.obj
 0001:000028e0       ??$?0ABV?$allocator@_W@std@@$$V@?$_Compressed_pair@V?$allocator@_W@std@@V?$_String_val@U?$_Simple_types@_W@std@@@2@$00@std@@QAE@U_One_then_variadic_args_t@1@ABV?$allocator@_W@1@@Z 100038e0 f i Face.obj
 0001:000028e0       ??$?0V?$allocator@D@std@@$$V@?$_Compressed_pair@V?$allocator@D@std@@V?$_String_val@U?$_Simple_types@D@std@@@2@$00@std@@QAE@U_One_then_variadic_args_t@1@$$QAV?$allocator@D@1@@Z 100038e0 f i detectFaces.obj
 0001:00002910       ??$_Allocate_manually_vector_aligned@U_Default_allocate_traits@std@@@std@@YAPAXI@Z 10003910 f i detectFaces.obj
 0001:00002970       ??$_Destroy_range1@V?$allocator@VFace@@@std@@@std@@YAXPAVFace@@0AAV?$allocator@VFace@@@0@U?$integral_constant@_N$0A@@0@@Z 10003970 f i detectFaces.obj
 0001:000029b0       ??0?$_Vector_val@U?$_Simple_types@H@std@@@std@@QAE@XZ 100039b0 f i Face.obj
 0001:000029b0       ??0?$_Vector_val@U?$_Simple_types@U?$format_item@DU?$char_traits@D@std@@V?$allocator@D@2@@detail@io@boost@@@std@@@std@@QAE@XZ 100039b0 f i Face.obj
 0001:000029b0       ??0?$_Vector_val@U?$_Simple_types@I@std@@@std@@QAE@XZ 100039b0 f i Face.obj
 0001:000029b0       ??0?$_Vector_val@U?$_Simple_types@V?$Rect_@H@cv@@@std@@@std@@QAE@XZ 100039b0 f i detectFaces.obj
 0001:000029b0       ??0?$_Vector_val@U?$_Simple_types@VFace@@@std@@@std@@QAE@XZ 100039b0 f i detectFaces.obj
 0001:000029b0       ??0?$_Vector_val@U?$_Simple_types@V?$Point_@H@cv@@@std@@@std@@QAE@XZ 100039b0 f i detectFaces.obj
 0001:000029e0       ??$_Ptr_copy_cat@V?$_Vb_iterator@U?$_Wrap_alloc@V?$allocator@I@std@@@std@@@std@@V12@@std@@YA?AU_General_ptr_iterator_tag@0@ABV?$_Vb_iterator@U?$_Wrap_alloc@V?$allocator@I@std@@@std@@@0@0@Z 100039e0 f i Face.obj
 0001:000029e0       ??$_Ptr_copy_cat@V?$Rect_@H@cv@@V12@@std@@YA?AU_General_ptr_iterator_tag@0@ABQAV?$Rect_@H@cv@@0@Z 100039e0 f i detectFaces.obj
 0001:000029e0       ??$_Ptr_move_cat@U?$format_item@DU?$char_traits@D@std@@V?$allocator@D@2@@detail@io@boost@@U1234@@std@@YA?AU_General_ptr_iterator_tag@0@ABQAU?$format_item@DU?$char_traits@D@std@@V?$allocator@D@2@@detail@io@boost@@0@Z 100039e0 f i Face.obj
 0001:000029e0       ??$_Ptr_copy_cat@VFace@@V1@@std@@YA?AU_General_ptr_iterator_tag@0@ABQAVFace@@0@Z 100039e0 f i detectFaces.obj
 0001:000029e0       ??$_Ptr_move_cat@V?$Point_@H@cv@@V12@@std@@YA?AU_General_ptr_iterator_tag@0@ABQAV?$Point_@H@cv@@0@Z 100039e0 f i Detector.obj
 0001:000029e0       ??$_Fill_memset_is_safe@PAU?$format_item@DU?$char_traits@D@std@@V?$allocator@D@2@@detail@io@boost@@U1234@@std@@YA?AU?$integral_constant@_N$0A@@0@ABQAU?$format_item@DU?$char_traits@D@std@@V?$allocator@D@2@@detail@io@boost@@ABU2345@@Z 100039e0 f i Face.obj
 0001:000029e0       ??$_Fill_memset_is_safe@V?$_Vb_iterator@U?$_Wrap_alloc@V?$allocator@I@std@@@std@@@std@@_N@std@@YA?AU?$integral_constant@_N$0A@@0@ABV?$_Vb_iterator@U?$_Wrap_alloc@V?$allocator@I@std@@@std@@@0@AB_N@Z 100039e0 f i Face.obj
 0001:000029e0       ??$_Ptr_copy_cat@V?$Point_@H@cv@@V12@@std@@YA?AU_General_ptr_iterator_tag@0@ABQAV?$Point_@H@cv@@0@Z 100039e0 f i detectFaces.obj
 0001:000029e0       ??$_Ptr_move_cat@VFace@@V1@@std@@YA?AU_General_ptr_iterator_tag@0@ABQAVFace@@0@Z 100039e0 f i Detector.obj
 0001:000029e0       ??$_Is_checked@V?$_Vb_iterator@U?$_Wrap_alloc@V?$allocator@I@std@@@std@@@std@@@std@@YA?AU?$integral_constant@_N$00@0@V?$_Vb_iterator@U?$_Wrap_alloc@V?$allocator@I@std@@@std@@@0@@Z 100039e0 f i Face.obj
 0001:000029e0       ??$_Idl_distance@V?$_Vb_iterator@U?$_Wrap_alloc@V?$allocator@I@std@@@std@@@std@@V12@@std@@YA?AU_Distance_unknown@0@ABV?$_Vb_iterator@U?$_Wrap_alloc@V?$allocator@I@std@@@std@@@0@0@Z 100039e0 f i Face.obj
 0001:000029f0       ??$_Uninitialized_copy_al_unchecked@PAVFace@@PAV1@V?$allocator@VFace@@@std@@@std@@YAPAVFace@@PAV1@QAV1@1AAV?$allocator@VFace@@@0@U_General_ptr_iterator_tag@0@U_Unused_parameter@0@@Z 100039f0 f i detectFaces.obj
 0001:00002aa0       ??$_Rechecked@V?$_String_val@U?$_Simple_types@D@std@@@std@@@std@@YAAAV?$_String_iterator@V?$_String_val@U?$_Simple_types@D@std@@@std@@@0@AAV10@QAD@Z 10003aa0 f i JsonWriter.obj
 0001:00002aa0       ??$_Rechecked@PAV?$Point_@H@cv@@PAV12@@std@@YAAAPAV?$Point_@H@cv@@AAPAV12@QAV12@@Z 10003aa0 f i detectFaces.obj
 0001:00002aa0       ??$_Rechecked@PAU?$format_item@DU?$char_traits@D@std@@V?$allocator@D@2@@detail@io@boost@@PAU1234@@std@@YAAAPAU?$format_item@DU?$char_traits@D@std@@V?$allocator@D@2@@detail@io@boost@@AAPAU1234@QAU1234@@Z 10003aa0 f i Face.obj
 0001:00002aa0       ??$_Rechecked@PAVFace@@PAV1@@std@@YAAAPAVFace@@AAPAV1@QAV1@@Z 10003aa0 f i detectFaces.obj
 0001:00002aa0       ??$_Rechecked@PAIPAI@std@@YAAAPAIAAPAIQAI@Z 10003aa0 f i Face.obj
 0001:00002aa0       ??$_Rechecked@PAV?$Rect_@H@cv@@PAV12@@std@@YAAAPAV?$Rect_@H@cv@@AAPAV12@QAV12@@Z 10003aa0 f i detectFaces.obj
 0001:00002aa0       ??$_Rechecked@PB_WPB_W@std@@YAAAPB_WAAPB_WQB_W@Z 10003aa0 f i Face.obj
 0001:00002aa0       ??$_Rechecked@V?$_String_val@U?$_Simple_types@D@std@@@std@@@std@@YAAAV?$_String_const_iterator@V?$_String_val@U?$_Simple_types@D@std@@@std@@@0@AAV10@QBD@Z 10003aa0 f i JsonWriter.obj
 0001:00002aa0       ??$_Rechecked@PBU?$copy_map_entry@U?$sequenced_index_node@U?$ordered_index_node@Unull_augment_policy@detail@multi_index@boost@@U?$index_node_base@U?$pair@$$CBV?$basic_string@DU?$char_traits@D@std@@V?$allocator@D@2@@std@@V?$basic_ptree@V?$basic_string@DU?$char_traits@D@std@@V?$allocator@D@2@@std@@V12@U?$less@V?$basic_string@DU?$char_traits@D@std@@V?$allocator@D@2@@std@@@2@@property_tree@boost@@@std@@V?$allocator@U?$pair@$$CBV?$basic_string@DU?$char_traits@D@std@@V?$allocator@D@2@@std@@V?$basic_ptree@V?$basic_string@DU?$char_traits@D@std@@V?$allocator@D@2@@std@@V12@U?$less@V?$basic_string@DU?$char_traits@D@std@@V?$allocator@D@2@@std@@@2@@property_tree@boost@@@std@@@2@@234@@detail@multi_index@boost@@@detail@multi_index@boost@@@detail@multi_index@boost@@PBU1234@@std@@YAAAPBU?$copy_map_entry@U?$sequenced_index_node@U?$ordered_index_node@Unull_augment_policy@detail@multi_index@boost@@U?$index_node_base@U?$pair@$$CBV?$basic_string@DU?$char_traits@D@std@@V?$allocator@D@2@@std@@V?$basic_ptree@V?$basic_string@DU?$char_traits@D@std@@V?$allocator@D@2@@std@@V12@U?$less@V?$basic_string@DU?$char_traits@D@std@@V?$allocator@D@2@@std@@@2@@property_tree@boost@@@std@@V?$allocator@U?$pair@$$CBV?$basic_string@DU?$char_traits@D@std@@V?$allocator@D@2@@std@@V?$basic_ptree@V?$basic_string@DU?$char_traits@D@std@@V?$allocator@D@2@@std@@V12@U?$less@V?$basic_string@DU?$char_traits@D@std@@V?$allocator@D@2@@std@@@2@@property_tree@boost@@@std@@@2@@234@@detail@multi_index@boost@@@detail@multi_index@boost@@@detail@multi_index@boost@@AAPBU1234@QBU1234@@Z 10003aa0 f i JsonWriter.obj
 0001:00002ab0       ??$_Uninitialized_copy_al_unchecked@PAV?$Rect_@H@cv@@PAV12@V?$allocator@V?$Rect_@H@cv@@@std@@@std@@YAPAV?$Rect_@H@cv@@PAV12@QAV12@1AAV?$allocator@V?$Rect_@H@cv@@@0@U_General_ptr_iterator_tag@0@U_Unused_parameter@0@@Z 10003ab0 f i detectFaces.obj
 0001:00002b50       ??$destroy@VFace@@@?$_Default_allocator_traits@V?$allocator@VFace@@@std@@@std@@SAXAAV?$allocator@VFace@@@1@QAVFace@@@Z 10003b50 f i detectFaces.obj
 0001:00002b60       ??_GFace@@QAEPAXI@Z        10003b60 f i detectFaces.obj
 0001:00002ba0       ?_Release@?$_Uninitialized_backout_al@PAU?$format_item@DU?$char_traits@D@std@@V?$allocator@D@2@@detail@io@boost@@V?$allocator@U?$format_item@DU?$char_traits@D@std@@V?$allocator@D@2@@detail@io@boost@@@std@@@std@@QAEPAU?$format_item@DU?$char_traits@D@std@@V?$allocator@D@2@@detail@io@boost@@XZ 10003ba0 f i Face.obj
 0001:00002ba0       ?_Release@?$_Uninitialized_backout_al@PAV?$Point_@H@cv@@V?$allocator@V?$Point_@H@cv@@@std@@@std@@QAEPAV?$Point_@H@cv@@XZ 10003ba0 f i detectFaces.obj
 0001:00002ba0       ?_Release@?$_Uninitialized_backout_al@PAVFace@@V?$allocator@VFace@@@std@@@std@@QAEPAVFace@@XZ 10003ba0 f i detectFaces.obj
 0001:00002ba0       ?_Release@?$_Uninitialized_backout_al@PAV?$Rect_@H@cv@@V?$allocator@V?$Rect_@H@cv@@@std@@@std@@QAEPAV?$Rect_@H@cv@@XZ 10003ba0 f i detectFaces.obj
 0001:00002ba0       ?_Release@?$_Uninitialized_backout_al@PAIV?$allocator@I@std@@@std@@QAEPAIXZ 10003ba0 f i Face.obj
 0001:00002bc0       ??1?$_Uninitialized_backout_al@PAV?$Point_@H@cv@@V?$allocator@V?$Point_@H@cv@@@std@@@std@@QAE@XZ 10003bc0 f i detectFaces.obj
 0001:00002bc0       ??1?$_Uninitialized_backout_al@PAV?$Rect_@H@cv@@V?$allocator@V?$Rect_@H@cv@@@std@@@std@@QAE@XZ 10003bc0 f i detectFaces.obj
 0001:00002bc0       ??1?$_Uninitialized_backout_al@PAIV?$allocator@I@std@@@std@@QAE@XZ 10003bc0 f i Face.obj
 0001:00002c20       ??0?$_Uninitialized_backout_al@PAV?$Rect_@H@cv@@V?$allocator@V?$Rect_@H@cv@@@std@@@std@@QAE@PAV?$Rect_@H@cv@@AAV?$allocator@V?$Rect_@H@cv@@@1@@Z 10003c20 f i detectFaces.obj
 0001:00002c20       ??0?$_Uninitialized_backout_al@PAU?$format_item@DU?$char_traits@D@std@@V?$allocator@D@2@@detail@io@boost@@V?$allocator@U?$format_item@DU?$char_traits@D@std@@V?$allocator@D@2@@detail@io@boost@@@std@@@std@@QAE@PAU?$format_item@DU?$char_traits@D@std@@V?$allocator@D@2@@detail@io@boost@@AAV?$allocator@U?$format_item@DU?$char_traits@D@std@@V?$allocator@D@2@@detail@io@boost@@@1@@Z 10003c20 f i Face.obj
 0001:00002c20       ??0?$_Uninitialized_backout_al@PAV?$Point_@H@cv@@V?$allocator@V?$Point_@H@cv@@@std@@@std@@QAE@PAV?$Point_@H@cv@@AAV?$allocator@V?$Point_@H@cv@@@1@@Z 10003c20 f i detectFaces.obj
 0001:00002c20       ??0?$_Uninitialized_backout_al@PAIV?$allocator@I@std@@@std@@QAE@PAIAAV?$allocator@I@1@@Z 10003c20 f i Face.obj
 0001:00002c20       ??0?$_Uninitialized_backout_al@PAVFace@@V?$allocator@VFace@@@std@@@std@@QAE@PAVFace@@AAV?$allocator@VFace@@@1@@Z 10003c20 f i detectFaces.obj
 0001:00002c50       ??1?$_Uninitialized_backout_al@PAVFace@@V?$allocator@VFace@@@std@@@std@@QAE@XZ 10003c50 f i detectFaces.obj
 0001:00002cb0       ??$_Emplace_back@AAVFace@@@?$_Uninitialized_backout_al@PAVFace@@V?$allocator@VFace@@@std@@@std@@QAEXAAVFace@@@Z 10003cb0 f i detectFaces.obj
 0001:00002cb0       ??$_Emplace_back@VFace@@@?$_Uninitialized_backout_al@PAVFace@@V?$allocator@VFace@@@std@@@std@@QAEX$$QAVFace@@@Z 10003cb0 f i Detector.obj
 0001:00002d00       ??$_Emplace_back@AAV?$Rect_@H@cv@@@?$_Uninitialized_backout_al@PAV?$Rect_@H@cv@@V?$allocator@V?$Rect_@H@cv@@@std@@@std@@QAEXAAV?$Rect_@H@cv@@@Z 10003d00 f i detectFaces.obj
 0001:00002d50       ??$construct@VFace@@V1@@?$_Default_allocator_traits@V?$allocator@VFace@@@std@@@std@@SAXAAV?$allocator@VFace@@@1@QAVFace@@$$QAV3@@Z 10003d50 f i Detector.obj
 0001:00002d50       ??$construct@VFace@@ABV1@@?$_Default_allocator_traits@V?$allocator@VFace@@@std@@@std@@SAXAAV?$allocator@VFace@@@1@QAVFace@@ABV3@@Z 10003d50 f i Detector.obj
 0001:00002d50       ??$construct@VFace@@AAV1@@?$_Default_allocator_traits@V?$allocator@VFace@@@std@@@std@@SAXAAV?$allocator@VFace@@@1@QAVFace@@AAV3@@Z 10003d50 f i detectFaces.obj
 0001:00002d90       ??$construct@V?$Rect_@H@cv@@AAV12@@?$_Default_allocator_traits@V?$allocator@V?$Rect_@H@cv@@@std@@@std@@SAXAAV?$allocator@V?$Rect_@H@cv@@@1@QAV?$Rect_@H@cv@@AAV34@@Z 10003d90 f i detectFaces.obj
 0001:00002dc0       ??0Face@@QAE@ABV0@@Z       10003dc0 f i detectFaces.obj
 0001:00002e80       ??0?$vector@V?$Point_@H@cv@@V?$allocator@V?$Point_@H@cv@@@std@@@std@@QAE@ABV01@@Z 10003e80 f i detectFaces.obj
 0001:00002f70       ?_Buy@?$vector@V?$Point_@H@cv@@V?$allocator@V?$Point_@H@cv@@@std@@@std@@AAE_NI@Z 10003f70 f i detectFaces.obj
 0001:00003020       ?size@?$vector@V?$Point_@H@cv@@V?$allocator@V?$Point_@H@cv@@@std@@@std@@QBEIXZ 10004020 f i detectFaces.obj
 0001:00003050       ?max_size@?$vector@V?$Point_@H@cv@@V?$allocator@V?$Point_@H@cv@@@std@@@std@@QBEIXZ 10004050 f i detectFaces.obj
 0001:00003090       ?allocate@?$allocator@V?$Point_@H@cv@@@std@@QAEPAV?$Point_@H@cv@@I@Z 10004090 f i detectFaces.obj
 0001:000030c0       ?max_size@?$_Default_allocator_traits@V?$allocator@V?$Point_@H@cv@@@std@@@std@@SAIABV?$allocator@V?$Point_@H@cv@@@2@@Z 100040c0 f i detectFaces.obj
 0001:000030d0       ??4?$Rect_@H@cv@@QAEAAV01@ABV01@@Z 100040d0 f i Face.obj
 0001:000030d0       ??0?$Rect_@H@cv@@QAE@ABV01@@Z 100040d0 f i detectFaces.obj
 0001:00003110       ??$_Ucopy@PAV?$Point_@H@cv@@@?$vector@V?$Point_@H@cv@@V?$allocator@V?$Point_@H@cv@@@std@@@std@@AAEPAV?$Point_@H@cv@@PAV23@00@Z 10004110 f i detectFaces.obj
 0001:00003140       ??$_Get_size_of_n@$07@std@@YAII@Z 10004140 f i detectFaces.obj
 0001:00003170       ??$_Uninitialized_copy@PAV?$Point_@H@cv@@PAV12@V?$allocator@V?$Point_@H@cv@@@std@@@std@@YAPAV?$Point_@H@cv@@QAV12@0PAV12@AAV?$allocator@V?$Point_@H@cv@@@0@@Z 10004170 f i detectFaces.obj
 0001:00003210       ??$_Uninitialized_copy_al_unchecked@PAV?$Point_@H@cv@@PAV12@V?$allocator@V?$Point_@H@cv@@@std@@@std@@YAPAV?$Point_@H@cv@@PAV12@QAV12@1AAV?$allocator@V?$Point_@H@cv@@@0@U_General_ptr_iterator_tag@0@U_Unused_parameter@0@@Z 10004210 f i detectFaces.obj
 0001:000032b0       ??$_Emplace_back@V?$Point_@H@cv@@@?$_Uninitialized_backout_al@PAV?$Point_@H@cv@@V?$allocator@V?$Point_@H@cv@@@std@@@std@@QAEX$$QAV?$Point_@H@cv@@@Z 100042b0 f i Detector.obj
 0001:000032b0       ??$_Emplace_back@AAV?$Point_@H@cv@@@?$_Uninitialized_backout_al@PAV?$Point_@H@cv@@V?$allocator@V?$Point_@H@cv@@@std@@@std@@QAEXAAV?$Point_@H@cv@@@Z 100042b0 f i detectFaces.obj
 0001:00003300       ??$construct@V?$Point_@H@cv@@V12@@?$_Default_allocator_traits@V?$allocator@V?$Point_@H@cv@@@std@@@std@@SAXAAV?$allocator@V?$Point_@H@cv@@@1@QAV?$Point_@H@cv@@$$QAV34@@Z 10004300 f i Detector.obj
 0001:00003300       ??$construct@V?$Point_@H@cv@@ABV12@@?$_Default_allocator_traits@V?$allocator@V?$Point_@H@cv@@@std@@@std@@SAXAAV?$allocator@V?$Point_@H@cv@@@1@QAV?$Point_@H@cv@@ABV34@@Z 10004300 f i Face.obj
 0001:00003300       ??$construct@V?$Point_@H@cv@@AAV12@@?$_Default_allocator_traits@V?$allocator@V?$Point_@H@cv@@@std@@@std@@SAXAAV?$allocator@V?$Point_@H@cv@@@1@QAV?$Point_@H@cv@@AAV34@@Z 10004300 f i detectFaces.obj
 0001:00003330       ??0exception@std@@QAE@QBD@Z 10004330 f i Detector.obj
 0001:00003390       ??0exception@std@@QAE@ABV01@@Z 10004390 f i Detector.obj
 0001:000033d0       ??1exception@std@@UAE@XZ   100043d0 f i Detector.obj
 0001:00003400       ?what@exception@std@@UBEPBDXZ 10004400 f i Detector.obj
 0001:00003430       ??_Gexception@std@@UAEPAXI@Z 10004430 f i Detector.obj
 0001:00003430       ??_Eexception@std@@UAEPAXI@Z 10004430 f i * CIL library *:* CIL module *
 0001:00003460       ?move@?$char_traits@D@std@@SAPADQADQBDI@Z 10004460 f i Detector.obj
 0001:00003480       ?assign@?$char_traits@D@std@@SAPADQADID@Z 10004480 f i Detector.obj
 0001:000034a0       ?_Compat@?$_String_const_iterator@V?$_String_val@U?$_Simple_types@D@std@@@std@@@std@@QBEXABV12@@Z 100044a0 f i Face.obj
 0001:000034a0       ?_Compat@?$_Vb_const_iterator@U?$_Wrap_alloc@V?$allocator@I@std@@@std@@@std@@QBEXABV12@@Z 100044a0 f i Face.obj
 0001:000034a0       ?_Swap_all@_Container_base0@std@@QAEXAAU12@@Z 100044a0 f i Detector.obj
 0001:000034a0       ?_Adopt@_Iterator_base0@std@@QAEXPBX@Z 100044a0 f i Detector.obj
 0001:000034b0       ??0runtime_error@std@@QAE@ABV?$basic_string@DU?$char_traits@D@std@@V?$allocator@D@2@@1@@Z 100044b0 f i Detector.obj
 0001:000034e0       ??_Gformat_error@io@boost@@UAEPAXI@Z 100044e0 f i Face.obj
 0001:000034e0       ??_Eruntime_error@std@@UAEPAXI@Z 100044e0 f i * CIL library *:* CIL module *
 0001:000034e0       ??_Gruntime_error@std@@UAEPAXI@Z 100044e0 f i Detector.obj
 0001:000034e0       ??_Ebad_cast@std@@UAEPAXI@Z 100044e0 f i * CIL library *:* CIL module *
 0001:000034e0       ??_Gbad_cast@std@@UAEPAXI@Z 100044e0 f i Face.obj
 0001:000034e0       ??_Eformat_error@io@boost@@UAEPAXI@Z 100044e0 f i * CIL library *:* CIL module *
 0001:00003510       ??1format_error@io@boost@@UAE@XZ 10004510 f i Face.obj
 0001:00003510       ??1bad_cast@std@@UAE@XZ    10004510 f i Face.obj
 0001:00003510       ??1runtime_error@std@@UAE@XZ 10004510 f i Detector.obj
 0001:00003530       ??0runtime_error@std@@QAE@ABV01@@Z 10004530 f i Detector.obj
 0001:00003560       ??0error_category@std@@QAE@XZ 10004560 f i Detector.obj
 0001:00003580       ??8error_category@std@@QBE_NABV01@@Z 10004580 f i Detector.obj
 0001:000035b0       ??0?$copy_map_entry@U?$sequenced_index_node@U?$ordered_index_node@Unull_augment_policy@detail@multi_index@boost@@U?$index_node_base@U?$pair@$$CBV?$basic_string@DU?$char_traits@D@std@@V?$allocator@D@2@@std@@V?$basic_ptree@V?$basic_string@DU?$char_traits@D@std@@V?$allocator@D@2@@std@@V12@U?$less@V?$basic_string@DU?$char_traits@D@std@@V?$allocator@D@2@@std@@@2@@property_tree@boost@@@std@@V?$allocator@U?$pair@$$CBV?$basic_string@DU?$char_traits@D@std@@V?$allocator@D@2@@std@@V?$basic_ptree@V?$basic_string@DU?$char_traits@D@std@@V?$allocator@D@2@@std@@V12@U?$less@V?$basic_string@DU?$char_traits@D@std@@V?$allocator@D@2@@std@@@2@@property_tree@boost@@@std@@@2@@234@@detail@multi_index@boost@@@detail@multi_index@boost@@@detail@multi_index@boost@@QAE@PAU?$sequenced_index_node@U?$ordered_index_node@Unull_augment_policy@detail@multi_index@boost@@U?$index_node_base@U?$pair@$$CBV?$basic_string@DU?$char_traits@D@std@@V?$allocator@D@2@@std@@V?$basic_ptree@V?$basic_string@DU?$char_traits@D@std@@V?$allocator@D@2@@std@@V12@U?$less@V?$basic_string@DU?$char_traits@D@std@@V?$allocator@D@2@@std@@@2@@property_tree@boost@@@std@@V?$allocator@U?$pair@$$CBV?$basic_string@DU?$char_traits@D@std@@V?$allocator@D@2@@std@@V?$basic_ptree@V?$basic_string@DU?$char_traits@D@std@@V?$allocator@D@2@@std@@V12@U?$less@V?$basic_string@DU?$char_traits@D@std@@V?$allocator@D@2@@std@@@2@@property_tree@boost@@@std@@@2@@234@@detail@multi_index@boost@@@123@0@Z 100045b0 f i JsonWriter.obj
 0001:000035b0       ??0?$Point_@H@cv@@QAE@HH@Z 100045b0 f i Face.obj
 0001:000035b0       ??0?$basic_string_view@_WU?$char_traits@_W@std@@@std@@QAE@QB_WI@Z 100045b0 f i Detector.obj
 0001:000035b0       ??0error_condition@std@@QAE@HABVerror_category@1@@Z 100045b0 f i Detector.obj
 0001:000035b0       ??0error_code@std@@QAE@HABVerror_category@1@@Z 100045b0 f i Detector.obj
 0001:000035e0       ?get_node@?$bidir_node_iterator@U?$sequenced_index_node@U?$ordered_index_node@Unull_augment_policy@detail@multi_index@boost@@U?$index_node_base@U?$pair@$$CBV?$basic_string@DU?$char_traits@D@std@@V?$allocator@D@2@@std@@V?$basic_ptree@V?$basic_string@DU?$char_traits@D@std@@V?$allocator@D@2@@std@@V12@U?$less@V?$basic_string@DU?$char_traits@D@std@@V?$allocator@D@2@@std@@@2@@property_tree@boost@@@std@@V?$allocator@U?$pair@$$CBV?$basic_string@DU?$char_traits@D@std@@V?$allocator@D@2@@std@@V?$basic_ptree@V?$basic_string@DU?$char_traits@D@std@@V?$allocator@D@2@@std@@V12@U?$less@V?$basic_string@DU?$char_traits@D@std@@V?$allocator@D@2@@std@@@2@@property_tree@boost@@@std@@@2@@234@@detail@multi_index@boost@@@detail@multi_index@boost@@@detail@multi_index@boost@@QBEPAU?$sequenced_index_node@U?$ordered_index_node@Unull_augment_policy@detail@multi_index@boost@@U?$index_node_base@U?$pair@$$CBV?$basic_string@DU?$char_traits@D@std@@V?$allocator@D@2@@std@@V?$basic_ptree@V?$basic_string@DU?$char_traits@D@std@@V?$allocator@D@2@@std@@V12@U?$less@V?$basic_string@DU?$char_traits@D@std@@V?$allocator@D@2@@std@@@2@@property_tree@boost@@@std@@V?$allocator@U?$pair@$$CBV?$basic_string@DU?$char_traits@D@std@@V?$allocator@D@2@@std@@V?$basic_ptree@V?$basic_string@DU?$char_traits@D@std@@V?$allocator@D@2@@std@@V12@U?$less@V?$basic_string@DU?$char_traits@D@std@@V?$allocator@D@2@@std@@@2@@property_tree@boost@@@std@@@2@@234@@detail@multi_index@boost@@@234@XZ 100045e0 f i JsonWriter.obj
 0001:000035e0       ?get@?$refcount_ptr@Uerror_info_container@exception_detail@boost@@@exception_detail@boost@@QBEPAUerror_info_container@23@XZ 100045e0 f i Face.obj
 0001:000035e0       ?get@?$shared_ptr@V?$basic_altstringbuf@DU?$char_traits@D@std@@V?$allocator@D@2@@io@boost@@@boost@@QBEPAV?$basic_altstringbuf@DU?$char_traits@D@std@@V?$allocator@D@2@@io@2@XZ 100045e0 f i Face.obj
 0001:000035e0       ?value@error_code@std@@QBEHXZ 100045e0 f i Detector.obj
 0001:000035e0       ??D?$_String_const_iterator@V?$_String_val@U?$_Simple_types@D@std@@@std@@@std@@QBEABDXZ 100045e0 f i Face.obj
 0001:000035e0       ?_Getptr@?$_Vb_reference@U?$_Wrap_alloc@V?$allocator@I@std@@@std@@@std@@QBEPBIXZ 100045e0 f i Face.obj
 0001:000035e0       ?data@?$basic_string_view@_WU?$char_traits@_W@std@@@std@@QBEPB_WXZ 100045e0 f i Detector.obj
 0001:000035e0       ?value@error_condition@std@@QBEHXZ 100045e0 f i Detector.obj
 0001:000035e0       ?type_info@stl_type_index@typeindex@boost@@QBEABV0@XZ 100045e0 f i JsonWriter.obj
 0001:000035e0       ?get_node@?$bidir_node_iterator@U?$ordered_index_node@Unull_augment_policy@detail@multi_index@boost@@U?$index_node_base@U?$pair@$$CBV?$basic_string@DU?$char_traits@D@std@@V?$allocator@D@2@@std@@V?$basic_ptree@V?$basic_string@DU?$char_traits@D@std@@V?$allocator@D@2@@std@@V12@U?$less@V?$basic_string@DU?$char_traits@D@std@@V?$allocator@D@2@@std@@@2@@property_tree@boost@@@std@@V?$allocator@U?$pair@$$CBV?$basic_string@DU?$char_traits@D@std@@V?$allocator@D@2@@std@@V?$basic_ptree@V?$basic_string@DU?$char_traits@D@std@@V?$allocator@D@2@@std@@V12@U?$less@V?$basic_string@DU?$char_traits@D@std@@V?$allocator@D@2@@std@@@2@@property_tree@boost@@@std@@@2@@234@@detail@multi_index@boost@@@detail@multi_index@boost@@QBEPAU?$ordered_index_node@Unull_augment_policy@detail@multi_index@boost@@U?$index_node_base@U?$pair@$$CBV?$basic_string@DU?$char_traits@D@std@@V?$allocator@D@2@@std@@V?$basic_ptree@V?$basic_string@DU?$char_traits@D@std@@V?$allocator@D@2@@std@@V12@U?$less@V?$basic_string@DU?$char_traits@D@std@@V?$allocator@D@2@@std@@@2@@property_tree@boost@@@std@@V?$allocator@U?$pair@$$CBV?$basic_string@DU?$char_traits@D@std@@V?$allocator@D@2@@std@@V?$basic_ptree@V?$basic_string@DU?$char_traits@D@std@@V?$allocator@D@2@@std@@V12@U?$less@V?$basic_string@DU?$char_traits@D@std@@V?$allocator@D@2@@std@@@2@@property_tree@boost@@@std@@@2@@234@@234@XZ 100045e0 f i JsonWriter.obj
 0001:000035f0       ?category@error_condition@std@@QBEABVerror_category@2@XZ 100045f0 f i Detector.obj
 0001:000035f0       ?header@?$multi_index_container@U?$pair@$$CBV?$basic_string@DU?$char_traits@D@std@@V?$allocator@D@2@@std@@V?$basic_ptree@V?$basic_string@DU?$char_traits@D@std@@V?$allocator@D@2@@std@@V12@U?$less@V?$basic_string@DU?$char_traits@D@std@@V?$allocator@D@2@@std@@@2@@property_tree@boost@@@std@@U?$indexed_by@U?$sequenced@U?$tag@Una@mpl@boost@@U123@U123@U123@U123@U123@U123@U123@U123@U123@U123@U123@U123@U123@U123@U123@U123@U123@U123@U123@@multi_index@boost@@@multi_index@boost@@U?$ordered_non_unique@U?$tag@Uby_name@subs@?$basic_ptree@V?$basic_string@DU?$char_traits@D@std@@V?$allocator@D@2@@std@@V12@U?$less@V?$basic_string@DU?$char_traits@D@std@@V?$allocator@D@2@@std@@@2@@property_tree@boost@@Una@mpl@5@U675@U675@U675@U675@U675@U675@U675@U675@U675@U675@U675@U675@U675@U675@U675@U675@U675@U675@@multi_index@boost@@U?$member@U?$pair@$$CBV?$basic_string@DU?$char_traits@D@std@@V?$allocator@D@2@@std@@V?$basic_ptree@V?$basic_string@DU?$char_traits@D@std@@V?$allocator@D@2@@std@@V12@U?$less@V?$basic_string@DU?$char_traits@D@std@@V?$allocator@D@2@@std@@@2@@property_tree@boost@@@std@@$$CBV?$basic_string@DU?$char_traits@D@std@@V?$allocator@D@2@@2@$0A@@23@U?$less@V?$basic_string@DU?$char_traits@D@std@@V?$allocator@D@2@@std@@@std@@@23@Una@mpl@3@U563@U563@U563@U563@U563@U563@U563@U563@U563@U563@U563@U563@U563@U563@U563@U563@U563@@multi_index@boost@@V?$allocator@U?$pair@$$CBV?$basic_string@DU?$char_traits@D@std@@V?$allocator@D@2@@std@@V?$basic_ptree@V?$basic_string@DU?$char_traits@D@std@@V?$allocator@D@2@@std@@V12@U?$less@V?$basic_string@DU?$char_traits@D@std@@V?$allocator@D@2@@std@@@2@@property_tree@boost@@@std@@@2@@multi_index@boost@@IBEPAU?$sequenced_index_node@U?$ordered_index_node@Unull_augment_policy@detail@multi_index@boost@@U?$index_node_base@U?$pair@$$CBV?$basic_string@DU?$char_traits@D@std@@V?$allocator@D@2@@std@@V?$basic_ptree@V?$basic_string@DU?$char_traits@D@std@@V?$allocator@D@2@@std@@V12@U?$less@V?$basic_string@DU?$char_traits@D@std@@V?$allocator@D@2@@std@@@2@@property_tree@boost@@@std@@V?$allocator@U?$pair@$$CBV?$basic_string@DU?$char_traits@D@std@@V?$allocator@D@2@@std@@V?$basic_ptree@V?$basic_string@DU?$char_traits@D@std@@V?$allocator@D@2@@std@@V12@U?$less@V?$basic_string@DU?$char_traits@D@std@@V?$allocator@D@2@@std@@@2@@property_tree@boost@@@std@@@2@@234@@detail@multi_index@boost@@@detail@23@XZ 100045f0 f i JsonWriter.obj
 0001:000035f0       ?category@error_code@std@@QBEABVerror_category@2@XZ 100045f0 f i Detector.obj
 0001:000035f0       ?size@?$basic_string_view@_WU?$char_traits@_W@std@@@std@@QBEIXZ 100045f0 f i Detector.obj
 0001:00003610       ?message@error_code@std@@QBE?AV?$basic_string@DU?$char_traits@D@std@@V?$allocator@D@2@@2@XZ 10004610 f i Detector.obj
 0001:00003660       ??8std@@YA_NABVerror_condition@0@0@Z 10004660 f i Detector.obj
 0001:000036c0       ?default_error_condition@error_category@std@@UBE?AVerror_condition@2@H@Z 100046c0 f i Detector.obj
 0001:000036e0       ?equivalent@error_category@std@@UBE_NHABVerror_condition@2@@Z 100046e0 f i Detector.obj
 0001:00003720       ?equivalent@error_category@std@@UBE_NABVerror_code@2@H@Z 10004720 f i Detector.obj
 0001:00003770       ?make_error_code@std@@YA?AVerror_code@1@W4errc@1@@Z 10004770 f i Detector.obj
 0001:00003790       ?_Makestr@_System_error@std@@CA?AV?$basic_string@DU?$char_traits@D@std@@V?$allocator@D@2@@2@Verror_code@2@V32@@Z 10004790 f i Detector.obj
 0001:00003850       ??0_System_error@std@@IAE@Verror_code@1@ABV?$basic_string@DU?$char_traits@D@std@@V?$allocator@D@2@@1@@Z 10004850 f i Detector.obj
 0001:00003900       ??_Etoo_few_args@io@boost@@UAEPAXI@Z 10004900 f i * CIL library *:* CIL module *
 0001:00003900       ??_Gtoo_many_args@io@boost@@UAEPAXI@Z 10004900 f i Face.obj
 0001:00003900       ??_G_System_error@std@@UAEPAXI@Z 10004900 f i Detector.obj
 0001:00003900       ??_Etoo_many_args@io@boost@@UAEPAXI@Z 10004900 f i * CIL library *:* CIL module *
 0001:00003900       ??_Gtoo_few_args@io@boost@@UAEPAXI@Z 10004900 f i Face.obj
 0001:00003900       ??_Ebad_format_string@io@boost@@UAEPAXI@Z 10004900 f i * CIL library *:* CIL module *
 0001:00003900       ??_Gbad_format_string@io@boost@@UAEPAXI@Z 10004900 f i Face.obj
 0001:00003900       ??_E_System_error@std@@UAEPAXI@Z 10004900 f i * CIL library *:* CIL module *
 0001:00003930       ??1too_many_args@io@boost@@UAE@XZ 10004930 f i Face.obj
 0001:00003930       ??1too_few_args@io@boost@@UAE@XZ 10004930 f i Face.obj
 0001:00003930       ??1bad_format_string@io@boost@@UAE@XZ 10004930 f i Face.obj
 0001:00003930       ??1_System_error@std@@UAE@XZ 10004930 f i Detector.obj
 0001:00003950       ??0system_error@std@@QAE@Verror_code@1@@Z 10004950 f i Detector.obj
 0001:000039d0       ??_Gsystem_error@std@@UAEPAXI@Z 100049d0 f i Detector.obj
 0001:000039d0       ??_Esystem_error@std@@UAEPAXI@Z 100049d0 f i * CIL library *:* CIL module *
 0001:00003a00       ??1system_error@std@@UAE@XZ 10004a00 f i Detector.obj
 0001:00003a20       ??0_Generic_error_category@std@@QAE@XZ 10004a20 f i Detector.obj
 0001:00003a50       ?name@_Generic_error_category@std@@UBEPBDXZ 10004a50 f i Detector.obj
 0001:00003a60       ?message@_Generic_error_category@std@@UBE?AV?$basic_string@DU?$char_traits@D@std@@V?$allocator@D@2@@2@H@Z 10004a60 f i Detector.obj
 0001:00003aa0       ??_G_System_error_category@std@@UAEPAXI@Z 10004aa0 f i Detector.obj
 0001:00003aa0       ??_E_Generic_error_category@std@@UAEPAXI@Z 10004aa0 f i * CIL library *:* CIL module *
 0001:00003aa0       ??_G_Generic_error_category@std@@UAEPAXI@Z 10004aa0 f i Detector.obj
 0001:00003aa0       ??_E_System_error_category@std@@UAEPAXI@Z 10004aa0 f i * CIL library *:* CIL module *
 0001:00003ad0       ??0_System_error_category@std@@QAE@XZ 10004ad0 f i Detector.obj
 0001:00003b00       ?name@_System_error_category@std@@UBEPBDXZ 10004b00 f i Detector.obj
 0001:00003b10       ?message@_System_error_category@std@@UBE?AV?$basic_string@DU?$char_traits@D@std@@V?$allocator@D@2@@2@H@Z 10004b10 f i Detector.obj
 0001:00003bf0       ?default_error_condition@_System_error_category@std@@UBE?AVerror_condition@2@H@Z 10004bf0 f i Detector.obj
 0001:00003c70       ?generic_category@std@@YAABVerror_category@1@XZ 10004c70 f i Detector.obj
 0001:00003cb0       ?system_category@std@@YAABVerror_category@1@XZ 10004cb0 f i Detector.obj
 0001:00003cf0       ??0system_error@std@@QAE@ABV01@@Z 10004cf0 f i Detector.obj
 0001:00003d20       ??0_System_error@std@@QAE@ABV01@@Z 10004d20 f i Detector.obj
 0001:00003d60       ?_Xsystem_error_invalid_argument@filesystem@std@@YAXXZ 10004d60 f i Detector.obj
 0001:00003da0       ?_Make_ec@filesystem@std@@YA?AVerror_code@2@W4__std_win_error@@@Z 10004da0 f i Detector.obj
 0001:00003dd0       ?_Check_convert_result@filesystem@std@@YAHU__std_fs_convert_result@@@Z 10004dd0 f i Detector.obj
 0001:00003e10       ?string@path@filesystem@std@@QBE?AV?$basic_string@DU?$char_traits@D@std@@V?$allocator@D@2@@3@XZ 10004e10 f i Detector.obj
 0001:00003e50       ?initEmpty@Mat@cv@@IAEXXZ  10004e50 f i Detector.obj
 0001:00003ec0       ??0Mat@cv@@QAE@XZ          10004ec0 f i Detector.obj
 0001:00003f00       ??4Mat@cv@@QAEAAV01@ABV01@@Z 10004f00 f i Detector.obj
 0001:00004020       ??RMat@cv@@QBE?AV01@ABV?$Rect_@H@1@@Z 10005020 f i Detector.obj
 0001:00004060       ?setFaces@Detector@@QAEXV?$vector@V?$Rect_@H@cv@@V?$allocator@V?$Rect_@H@cv@@@std@@@std@@V?$basic_string@DU?$char_traits@D@std@@V?$allocator@D@2@@3@@Z 10005060 f   Detector.obj
 0001:000041d0       ?makeARoi@Detector@@AAE?AVMat@cv@@VFace@@V23@M@Z 100051d0 f   Detector.obj
 0001:000042d0       ?detectEyes@Detector@@QAEXXZ 100052d0 f   Detector.obj
 0001:00004500       ?convertFaceMembersCoordinatesFromRoiToImage@Detector@@QAEXXZ 10005500 f   Detector.obj
 0001:00004580       ?detectMouth@Detector@@QAEXXZ 10005580 f   Detector.obj
 0001:000047c0       ?getAllCoordinates@Detector@@QAE?AV?$vector@V?$Point_@H@cv@@V?$allocator@V?$Point_@H@cv@@@std@@@std@@V?$vector@VFace@@V?$allocator@VFace@@@std@@@3@@Z 100057c0 f   Detector.obj
 0001:00004a00       ?setImage@Detector@@QAEXVpath@filesystem@std@@@Z 10005a00 f   Detector.obj
 0001:00004ab0       ?getVectorOfFaces@Detector@@QAE?AV?$vector@VFace@@V?$allocator@VFace@@@std@@@std@@XZ 10005ab0 f   Detector.obj
 0001:00004af0       ?saveFaces@Detector@@QAEXVpath@filesystem@std@@V?$basic_string@DU?$char_traits@D@std@@V?$allocator@D@2@@4@@Z 10005af0 f   Detector.obj
 0001:00004bc0       ?detectFaces@Detector@@QAE?AV?$vector@V?$Rect_@H@cv@@V?$allocator@V?$Rect_@H@cv@@@std@@@std@@XZ 10005bc0 f   Detector.obj
 0001:00004d30       ??0Detector@@QAE@XZ        10005d30 f   Detector.obj
 0001:00004d60       ??1Detector@@QAE@XZ        10005d60 f   Detector.obj
 0001:00004d80       ??A?$vector@VFace@@V?$allocator@VFace@@@std@@@std@@QAEAAVFace@@I@Z 10005d80 f i Detector.obj
 0001:00004db0       ?_Unchecked_end@?$vector@VFace@@V?$allocator@VFace@@@std@@@std@@QAEPAVFace@@XZ 10005db0 f i Detector.obj
 0001:00004db0       ?_Unchecked_end@?$vector@V?$Point_@H@cv@@V?$allocator@V?$Point_@H@cv@@@std@@@std@@QAEPAV?$Point_@H@cv@@XZ 10005db0 f i JsonWriter.obj
 0001:00004dd0       ?_Unchecked_begin@?$vector@V?$Point_@H@cv@@V?$allocator@V?$Point_@H@cv@@@std@@@std@@QAEPAV?$Point_@H@cv@@XZ 10005dd0 f i JsonWriter.obj
 0001:00004dd0       ?_Unchecked_begin@?$vector@VFace@@V?$allocator@VFace@@@std@@@std@@QAEPAVFace@@XZ 10005dd0 f i Detector.obj
 0001:00004df0       ?push_back@?$vector@VFace@@V?$allocator@VFace@@@std@@@std@@QAEXABVFace@@@Z 10005df0 f i Detector.obj
 0001:00004e10       ??$emplace_back@ABVFace@@@?$vector@VFace@@V?$allocator@VFace@@@std@@@std@@QAEAAVFace@@ABV2@@Z 10005e10 f i Detector.obj
 0001:00004e70       ??$_Emplace_back_with_unused_capacity@ABVFace@@@?$vector@VFace@@V?$allocator@VFace@@@std@@@std@@AAEAAVFace@@ABV2@@Z 10005e70 f i Detector.obj
 0001:00004f00       ??0?$vector@V?$Point_@H@cv@@V?$allocator@V?$Point_@H@cv@@@std@@@std@@QAE@XZ 10005f00 f i Detector.obj
 0001:00004f00       ??0?$vector@U?$format_item@DU?$char_traits@D@std@@V?$allocator@D@2@@detail@io@boost@@V?$allocator@U?$format_item@DU?$char_traits@D@std@@V?$allocator@D@2@@detail@io@boost@@@std@@@std@@QAE@XZ 10005f00 f i Face.obj
 0001:00004f00       ??0?$vector@VFace@@V?$allocator@VFace@@@std@@@std@@QAE@XZ 10005f00 f i Detector.obj
 0001:00004f00       ??0?$vector@IV?$allocator@I@std@@@std@@QAE@XZ 10005f00 f i Face.obj
 0001:00004f00       ??0?$vector@V?$Rect_@H@cv@@V?$allocator@V?$Rect_@H@cv@@@std@@@std@@QAE@XZ 10005f00 f i Detector.obj
 0001:00004f00       ??0?$vector@HV?$allocator@H@std@@@std@@QAE@XZ 10005f00 f i Face.obj
 0001:00004f40       ??A?$vector@V?$Rect_@H@cv@@V?$allocator@V?$Rect_@H@cv@@@std@@@std@@QAEAAV?$Rect_@H@cv@@I@Z 10005f40 f i Detector.obj
 0001:00004f70       ??0?$vector@V?$Rect_@H@cv@@V?$allocator@V?$Rect_@H@cv@@@std@@@std@@QAE@$$QAV01@@Z 10005f70 f i Detector.obj
 0001:00004f70       ??0?$vector@V?$Point_@H@cv@@V?$allocator@V?$Point_@H@cv@@@std@@@std@@QAE@$$QAV01@@Z 10005f70 f i Detector.obj
 0001:00004ff0       ?end@?$vector@IV?$allocator@I@std@@@std@@QAE?AV?$_Vector_iterator@V?$_Vector_val@U?$_Simple_types@I@std@@@std@@@2@XZ 10005ff0 f i Face.obj
 0001:00004ff0       ?end@?$vector@V?$Point_@H@cv@@V?$allocator@V?$Point_@H@cv@@@std@@@std@@QAE?AV?$_Vector_iterator@V?$_Vector_val@U?$_Simple_types@V?$Point_@H@cv@@@std@@@std@@@2@XZ 10005ff0 f i Detector.obj
 0001:00005050       ?begin@?$vector@V?$Point_@H@cv@@V?$allocator@V?$Point_@H@cv@@@std@@@std@@QAE?AV?$_Vector_iterator@V?$_Vector_val@U?$_Simple_types@V?$Point_@H@cv@@@std@@@std@@@2@XZ 10006050 f i Detector.obj
 0001:00005050       ?begin@?$vector@IV?$allocator@I@std@@@std@@QAE?AV?$_Vector_iterator@V?$_Vector_val@U?$_Simple_types@I@std@@@std@@@2@XZ 10006050 f i Face.obj
 0001:000050b0       ??B?$basic_string@_WU?$char_traits@_W@std@@V?$allocator@_W@2@@std@@QBE?AV?$basic_string_view@_WU?$char_traits@_W@std@@@1@XZ 100060b0 f i Detector.obj
 0001:00005110       ?empty@?$basic_string@DU?$char_traits@D@std@@V?$allocator@D@2@@std@@QBE_NXZ 10006110 f i Detector.obj
 0001:00005140       ?resize@?$basic_string@DU?$char_traits@D@std@@V?$allocator@D@2@@std@@QAEXID@Z 10006140 f i Detector.obj
 0001:00005190       ??A?$basic_string@DU?$char_traits@D@std@@V?$allocator@D@2@@std@@QAEAADI@Z 10006190 f i Detector.obj
 0001:00005190       ??A?$basic_string@DU?$char_traits@D@std@@V?$allocator@D@2@@std@@QBEABDI@Z 10006190 f i Face.obj
 0001:000051c0       ?shrink_to_fit@?$basic_string@DU?$char_traits@D@std@@V?$allocator@D@2@@std@@QAEXXZ 100061c0 f i Detector.obj
 0001:000052c0       ?append@?$basic_string@DU?$char_traits@D@std@@V?$allocator@D@2@@std@@QAEAAV12@QBD@Z 100062c0 f i Detector.obj
 0001:000052f0       ?append@?$basic_string@DU?$char_traits@D@std@@V?$allocator@D@2@@std@@QAEAAV12@ABV12@@Z 100062f0 f i Detector.obj
 0001:00005330       ??4?$basic_string@DU?$char_traits@D@std@@V?$allocator@D@2@@std@@QAEAAV01@QBD@Z 10006330 f i Detector.obj
 0001:00005350       ??0?$basic_string@DU?$char_traits@D@std@@V?$allocator@D@2@@std@@QAE@$$QAV01@@Z 10006350 f i Detector.obj
 0001:000053d0       ??0?$basic_string@DU?$char_traits@D@std@@V?$allocator@D@2@@std@@QAE@ID@Z 100063d0 f i Detector.obj
 0001:00005440       ??0?$basic_string@DU?$char_traits@D@std@@V?$allocator@D@2@@std@@QAE@QBD@Z 10006440 f i Detector.obj
 0001:000054b0       ?empty@?$basic_string_view@_WU?$char_traits@_W@std@@@std@@QBE_NXZ 100064b0 f i Detector.obj
 0001:000054e0       ??0?$_Vector_alloc@U?$_Vec_base_types@V?$Rect_@H@cv@@V?$allocator@V?$Rect_@H@cv@@@std@@@std@@@std@@QAE@XZ 100064e0 f i Detector.obj
 0001:000054e0       ??0?$_Vector_alloc@U?$_Vec_base_types@V?$Point_@H@cv@@V?$allocator@V?$Point_@H@cv@@@std@@@std@@@std@@QAE@XZ 100064e0 f i Detector.obj
 0001:000054e0       ??0?$_Vector_alloc@U?$_Vec_base_types@U?$format_item@DU?$char_traits@D@std@@V?$allocator@D@2@@detail@io@boost@@V?$allocator@U?$format_item@DU?$char_traits@D@std@@V?$allocator@D@2@@detail@io@boost@@@std@@@std@@@std@@QAE@XZ 100064e0 f i Face.obj
 0001:000054e0       ??0?$_Vector_alloc@U?$_Vec_base_types@HV?$allocator@H@std@@@std@@@std@@QAE@XZ 100064e0 f i Face.obj
 0001:000054e0       ??0?$_Vector_alloc@U?$_Vec_base_types@VFace@@V?$allocator@VFace@@@std@@@std@@@std@@QAE@XZ 100064e0 f i Detector.obj
 0001:000054e0       ??0?$_Vector_alloc@U?$_Vec_base_types@IV?$allocator@I@std@@@std@@@std@@QAE@XZ 100064e0 f i Face.obj
 0001:00005500       ?_Orphan_range@?$vector@IV?$allocator@I@std@@@std@@ABEXPAI0@Z 10006500 f i Face.obj
 0001:00005500       ?_Orphan_range@?$vector@VFace@@V?$allocator@VFace@@@std@@@std@@ABEXPAVFace@@0@Z 10006500 f i Detector.obj
 0001:00005500       ?_Orphan_range@?$vector@U?$format_item@DU?$char_traits@D@std@@V?$allocator@D@2@@detail@io@boost@@V?$allocator@U?$format_item@DU?$char_traits@D@std@@V?$allocator@D@2@@detail@io@boost@@@std@@@std@@ABEXPAU?$format_item@DU?$char_traits@D@std@@V?$allocator@D@2@@detail@io@boost@@0@Z 10006500 f i Face.obj
 0001:00005500       ?copy_@?$index_base@U?$pair@$$CBV?$basic_string@DU?$char_traits@D@std@@V?$allocator@D@2@@std@@V?$basic_ptree@V?$basic_string@DU?$char_traits@D@std@@V?$allocator@D@2@@std@@V12@U?$less@V?$basic_string@DU?$char_traits@D@std@@V?$allocator@D@2@@std@@@2@@property_tree@boost@@@std@@U?$indexed_by@U?$sequenced@U?$tag@Una@mpl@boost@@U123@U123@U123@U123@U123@U123@U123@U123@U123@U123@U123@U123@U123@U123@U123@U123@U123@U123@U123@@multi_index@boost@@@multi_index@boost@@U?$ordered_non_unique@U?$tag@Uby_name@subs@?$basic_ptree@V?$basic_string@DU?$char_traits@D@std@@V?$allocator@D@2@@std@@V12@U?$less@V?$basic_string@DU?$char_traits@D@std@@V?$allocator@D@2@@std@@@2@@property_tree@boost@@Una@mpl@5@U675@U675@U675@U675@U675@U675@U675@U675@U675@U675@U675@U675@U675@U675@U675@U675@U675@U675@@multi_index@boost@@U?$member@U?$pair@$$CBV?$basic_string@DU?$char_traits@D@std@@V?$allocator@D@2@@std@@V?$basic_ptree@V?$basic_string@DU?$char_traits@D@std@@V?$allocator@D@2@@std@@V12@U?$less@V?$basic_string@DU?$char_traits@D@std@@V?$allocator@D@2@@std@@@2@@property_tree@boost@@@std@@$$CBV?$basic_string@DU?$char_traits@D@std@@V?$allocator@D@2@@2@$0A@@23@U?$less@V?$basic_string@DU?$char_traits@D@std@@V?$allocator@D@2@@std@@@std@@@23@Una@mpl@3@U563@U563@U563@U563@U563@U563@U563@U563@U563@U563@U563@U563@U563@U563@U563@U563@U563@@multi_index@boost@@V?$allocator@U?$pair@$$CBV?$basic_string@DU?$char_traits@D@std@@V?$allocator@D@2@@std@@V?$basic_ptree@V?$basic_string@DU?$char_traits@D@std@@V?$allocator@D@2@@std@@V12@U?$less@V?$basic_string@DU?$char_traits@D@std@@V?$allocator@D@2@@std@@@2@@property_tree@boost@@@std@@@2@@detail@multi_index@boost@@IAEXABV1234@ABV?$copy_map@U?$sequenced_index_node@U?$ordered_index_node@Unull_augment_policy@detail@multi_index@boost@@U?$index_node_base@U?$pair@$$CBV?$basic_string@DU?$char_traits@D@std@@V?$allocator@D@2@@std@@V?$basic_ptree@V?$basic_string@DU?$char_traits@D@std@@V?$allocator@D@2@@std@@V12@U?$less@V?$basic_string@DU?$char_traits@D@std@@V?$allocator@D@2@@std@@@2@@property_tree@boost@@@std@@V?$allocator@U?$pair@$$CBV?$basic_string@DU?$char_traits@D@std@@V?$allocator@D@2@@std@@V?$basic_ptree@V?$basic_string@DU?$char_traits@D@std@@V?$allocator@D@2@@std@@V12@U?$less@V?$basic_string@DU?$char_traits@D@std@@V?$allocator@D@2@@std@@@2@@property_tree@boost@@@std@@@2@@234@@detail@multi_index@boost@@@detail@multi_index@boost@@V?$allocator@U?$pair@$$CBV?$basic_string@DU?$char_traits@D@std@@V?$allocator@D@2@@std@@V?$basic_ptree@V?$basic_string@DU?$char_traits@D@std@@V?$allocator@D@2@@std@@V12@U?$less@V?$basic_string@DU?$char_traits@D@std@@V?$allocator@D@2@@std@@@2@@property_tree@boost@@@std@@@std@@@234@@Z 10006500 f i JsonWriter.obj
 0001:00005500       ?_Orphan_range@?$vector@V?$Point_@H@cv@@V?$allocator@V?$Point_@H@cv@@@std@@@std@@ABEXPAV?$Point_@H@cv@@0@Z 10006500 f i Detector.obj
 0001:00005510       ?_Has_unused_capacity@?$vector@VFace@@V?$allocator@VFace@@@std@@@std@@ABE_NXZ 10006510 f i Detector.obj
 0001:00005510       ?_Has_unused_capacity@?$vector@V?$Point_@H@cv@@V?$allocator@V?$Point_@H@cv@@@std@@@std@@ABE_NXZ 10006510 f i Face.obj
 0001:00005550       ??0?$_Vector_iterator@V?$_Vector_val@U?$_Simple_types@V?$Point_@H@cv@@@std@@@std@@@std@@QAE@PAV?$Point_@H@cv@@PBU_Container_base0@1@@Z 10006550 f i Detector.obj
 0001:00005550       ??0?$_Vector_iterator@V?$_Vector_val@U?$_Simple_types@I@std@@@std@@@std@@QAE@PAIPBU_Container_base0@1@@Z 10006550 f i Face.obj
 0001:00005550       ??0?$_String_iterator@V?$_String_val@U?$_Simple_types@D@std@@@std@@@std@@QAE@PADPBU_Container_base0@1@@Z 10006550 f i Face.obj
 0001:00005570       ?_Move_from@?$vector@V?$Rect_@H@cv@@V?$allocator@V?$Rect_@H@cv@@@std@@@std@@AAEX$$QAV12@U?$integral_constant@_N$00@2@@Z 10006570 f i Detector.obj
 0001:00005570       ?_Move_from@?$vector@V?$Point_@H@cv@@V?$allocator@V?$Point_@H@cv@@@std@@@std@@AAEX$$QAV12@U?$integral_constant@_N$00@2@@Z 10006570 f i Detector.obj
 0001:00005630       ??0?$_String_alloc@U?$_String_base_types@DV?$allocator@D@std@@@std@@@std@@QAE@XZ 10006630 f i Detector.obj
 0001:00005650       ?_Tidy_init@?$basic_string@DU?$char_traits@D@std@@V?$allocator@D@2@@std@@QAEXXZ 10006650 f i Detector.obj
 0001:000056a0       ?_Eos@?$basic_string@DU?$char_traits@D@std@@V?$allocator@D@2@@std@@QAEXI@Z 100066a0 f i Detector.obj
 0001:000056f0       ?_Become_small@?$basic_string@DU?$char_traits@D@std@@V?$allocator@D@2@@std@@QAEXXZ 100066f0 f i Detector.obj
 0001:00005780       ?assign@?$basic_string@DU?$char_traits@D@std@@V?$allocator@D@2@@std@@QAEAAV12@ID@Z 10006780 f i Detector.obj
 0001:00005850       ?assign@?$basic_string@DU?$char_traits@D@std@@V?$allocator@D@2@@std@@QAEAAV12@QBD@Z 10006850 f i Detector.obj
 0001:00005880       ?assign@?$basic_string@DU?$char_traits@D@std@@V?$allocator@D@2@@std@@QAEAAV12@QBDI@Z 10006880 f i Detector.obj
 0001:00005950       ?append@?$basic_string@DU?$char_traits@D@std@@V?$allocator@D@2@@std@@QAEAAV12@ID@Z 10006950 f i Detector.obj
 0001:00005a50       ?append@?$basic_string@DU?$char_traits@D@std@@V?$allocator@D@2@@std@@QAEAAV12@QBDI@Z 10006a50 f i Detector.obj
 0001:00005b50       ?_Assign_rv_contents_with_alloc_always_equal@?$basic_string@DU?$char_traits@D@std@@V?$allocator@D@2@@std@@QAEX$$QAV12@U?$integral_constant@_N$00@2@@Z 10006b50 f i Detector.obj
 0001:00005bf0       ?_Swap_all@?$_Vector_alloc@U?$_Vec_base_types@V?$Point_@H@cv@@V?$allocator@V?$Point_@H@cv@@@std@@@std@@@std@@QAEXAAV12@@Z 10006bf0 f i Detector.obj
 0001:00005bf0       ?_Swap_all@?$_Vector_alloc@U?$_Vec_base_types@V?$Rect_@H@cv@@V?$allocator@V?$Rect_@H@cv@@@std@@@std@@@std@@QAEXAAV12@@Z 10006bf0 f i Detector.obj
 0001:00005c20       ??0?$_Vector_const_iterator@V?$_Vector_val@U?$_Simple_types@V?$Point_@H@cv@@@std@@@std@@@std@@QAE@PAV?$Point_@H@cv@@PBU_Container_base0@1@@Z 10006c20 f i Detector.obj
 0001:00005c20       ??0?$_String_const_iterator@V?$_String_val@U?$_Simple_types@D@std@@@std@@@std@@QAE@PBDPBU_Container_base0@1@@Z 10006c20 f i Face.obj
 0001:00005c20       ??0?$_Vector_const_iterator@V?$_Vector_val@U?$_Simple_types@I@std@@@std@@@std@@QAE@PAIPBU_Container_base0@1@@Z 10006c20 f i Face.obj
 0001:00005c50       ??$_Immortalize@V_Generic_error_category@std@@@std@@YAAAV_Generic_error_category@0@XZ 10006c50 f i Detector.obj
 0001:00005c80       ??$_Immortalize@V_System_error_category@std@@@std@@YAAAV_System_error_category@0@XZ 10006c80 f i Detector.obj
 0001:00005cb0       ??$string@DU?$char_traits@D@std@@V?$allocator@D@2@$0A@@path@filesystem@std@@QBE?AV?$basic_string@DU?$char_traits@D@std@@V?$allocator@D@2@@2@ABV?$allocator@D@2@@Z 10006cb0 f i Detector.obj
 0001:00005d00       ??$_Convert_wide_to_narrow@U?$char_traits@D@std@@V?$allocator@D@2@@filesystem@std@@YA?AV?$basic_string@DU?$char_traits@D@std@@V?$allocator@D@2@@1@W4__std_code_page@@V?$basic_string_view@_WU?$char_traits@_W@std@@@1@ABV?$allocator@D@1@@Z 10006d00 f i Detector.obj
 0001:00005e30       ??0?$Size_@H@cv@@QAE@XZ    10006e30 f i Detector.obj
 0001:00005e30       ??0?$Point_@H@cv@@QAE@XZ   10006e30 f i Face.obj
 0001:00005e60       ??0?$Rect_@H@cv@@QAE@HHHH@Z 10006e60 f i Detector.obj
 0001:00005ea0       ??$insert@V?$_Vector_iterator@V?$_Vector_val@U?$_Simple_types@V?$Point_@H@cv@@@std@@@std@@@std@@X@?$vector@V?$Point_@H@cv@@V?$allocator@V?$Point_@H@cv@@@std@@@std@@QAE?AV?$_Vector_iterator@V?$_Vector_val@U?$_Simple_types@V?$Point_@H@cv@@@std@@@std@@@1@V?$_Vector_const_iterator@V?$_Vector_val@U?$_Simple_types@V?$Point_@H@cv@@@std@@@std@@@1@V21@1@Z 10006ea0 f i Detector.obj
 0001:00005f10       ??$_Emplace_reallocate@ABVFace@@@?$vector@VFace@@V?$allocator@VFace@@@std@@@std@@QAEPAVFace@@QAV2@ABV2@@Z 10006f10 f i Detector.obj
 0001:00006110       ??$?0$$V@?$_Compressed_pair@V?$allocator@V?$Point_@H@cv@@@std@@V?$_Vector_val@U?$_Simple_types@V?$Point_@H@cv@@@std@@@2@$00@std@@QAE@U_Zero_then_variadic_args_t@1@@Z 10007110 f i Detector.obj
 0001:00006110       ??$?0$$V@?$_Compressed_pair@V?$allocator@H@std@@V?$_Vector_val@U?$_Simple_types@H@std@@@2@$00@std@@QAE@U_Zero_then_variadic_args_t@1@@Z 10007110 f i Face.obj
 0001:00006110       ??$?0$$V@?$_Compressed_pair@V?$allocator@U?$format_item@DU?$char_traits@D@std@@V?$allocator@D@2@@detail@io@boost@@@std@@V?$_Vector_val@U?$_Simple_types@U?$format_item@DU?$char_traits@D@std@@V?$allocator@D@2@@detail@io@boost@@@std@@@2@$00@std@@QAE@U_Zero_then_variadic_args_t@1@@Z 10007110 f i Face.obj
 0001:00006110       ??$?0$$V@?$_Compressed_pair@V?$allocator@VFace@@@std@@V?$_Vector_val@U?$_Simple_types@VFace@@@std@@@2@$00@std@@QAE@U_Zero_then_variadic_args_t@1@@Z 10007110 f i Detector.obj
 0001:00006110       ??$?0$$V@?$_Compressed_pair@V?$allocator@I@std@@V?$_Vector_val@U?$_Simple_types@I@std@@@2@$00@std@@QAE@U_Zero_then_variadic_args_t@1@@Z 10007110 f i Face.obj
 0001:00006110       ??$?0$$V@?$_Compressed_pair@V?$allocator@V?$Rect_@H@cv@@@std@@V?$_Vector_val@U?$_Simple_types@V?$Rect_@H@cv@@@std@@@2@$00@std@@QAE@U_Zero_then_variadic_args_t@1@@Z 10007110 f i Detector.obj
 0001:00006130       ??$?0$$V@?$_Compressed_pair@V?$allocator@D@std@@V?$_String_val@U?$_Simple_types@D@std@@@2@$00@std@@QAE@U_Zero_then_variadic_args_t@1@@Z 10007130 f i Detector.obj
 0001:000065f0       ?_Change_array@?$vector@VFace@@V?$allocator@VFace@@@std@@@std@@AAEXQAVFace@@II@Z 100075f0 f i Detector.obj
 0001:00006690       ?_Calculate_growth@?$vector@VFace@@V?$allocator@VFace@@@std@@@std@@ABEII@Z 10007690 f i Detector.obj
 0001:000066e0       ?_Umove_if_noexcept@?$vector@VFace@@V?$allocator@VFace@@@std@@@std@@AAEXPAVFace@@00@Z 100076e0 f i Detector.obj
 0001:00006710       ?_Umove@?$vector@VFace@@V?$allocator@VFace@@@std@@@std@@AAEPAVFace@@PAV3@00@Z 10007710 f i Detector.obj
 0001:00006740       ?_Make_iterator_offset@?$_Vector_alloc@U?$_Vec_base_types@V?$Point_@H@cv@@V?$allocator@V?$Point_@H@cv@@@std@@@std@@@std@@QAE?AV?$_Vector_iterator@V?$_Vector_val@U?$_Simple_types@V?$Point_@H@cv@@@std@@@std@@@2@I@Z 10007740 f i Detector.obj
 0001:000067b0       ?_Xlen@?$basic_string@_WU?$char_traits@_W@std@@V?$allocator@_W@2@@std@@SAXXZ 100077b0 f i Face.obj
 0001:000067b0       ?_Xlen@?$basic_string@DU?$char_traits@D@std@@V?$allocator@D@2@@std@@SAXXZ 100077b0 f i Detector.obj
 0001:000067c0       ?_Calculate_growth@?$basic_string@DU?$char_traits@D@std@@V?$allocator@D@2@@std@@QBEII@Z 100077c0 f i Detector.obj
 0001:00006850       ??0?$basic_string@DU?$char_traits@D@std@@V?$allocator@D@2@@std@@QAE@ABV?$allocator@D@1@@Z 10007850 f i Detector.obj
 0001:000068a0       ?_Umove_if_noexcept1@?$vector@VFace@@V?$allocator@VFace@@@std@@@std@@AAEXPAVFace@@00U?$integral_constant@_N$0A@@2@@Z 100078a0 f i Detector.obj
 0001:000068d0       ??$_Immortalize_impl@V_Generic_error_category@std@@@std@@YGHPAX0PAPAX@Z 100078d0 f i Detector.obj
 0001:00006900       ??$_Immortalize_impl@V_System_error_category@std@@@std@@YGHPAX0PAPAX@Z 10007900 f i Detector.obj
 0001:00006930       ??$_Convert_wide_to@DU?$char_traits@D@std@@V?$allocator@D@2@@filesystem@std@@YA?AV?$basic_string@DU?$char_traits@D@std@@V?$allocator@D@2@@1@V?$basic_string_view@_WU?$char_traits@_W@std@@@1@ABV?$allocator@D@1@@Z 10007930 f i Detector.obj
 0001:00006970       ??$raw_ptr@PAU?$ordered_index_node_impl@Unull_augment_policy@detail@multi_index@boost@@V?$allocator@D@std@@@detail@multi_index@boost@@@detail@multi_index@boost@@YAPAU?$ordered_index_node_impl@Unull_augment_policy@detail@multi_index@boost@@V?$allocator@D@std@@@012@ABQAU3012@U?$bool_@$00@mpl@2@@Z 10007970 f i JsonWriter.obj
 0001:00006970       ??$raw_ptr@PAU?$sequenced_index_node@U?$ordered_index_node@Unull_augment_policy@detail@multi_index@boost@@U?$index_node_base@U?$pair@$$CBV?$basic_string@DU?$char_traits@D@std@@V?$allocator@D@2@@std@@V?$basic_ptree@V?$basic_string@DU?$char_traits@D@std@@V?$allocator@D@2@@std@@V12@U?$less@V?$basic_string@DU?$char_traits@D@std@@V?$allocator@D@2@@std@@@2@@property_tree@boost@@@std@@V?$allocator@U?$pair@$$CBV?$basic_string@DU?$char_traits@D@std@@V?$allocator@D@2@@std@@V?$basic_ptree@V?$basic_string@DU?$char_traits@D@std@@V?$allocator@D@2@@std@@V12@U?$less@V?$basic_string@DU?$char_traits@D@std@@V?$allocator@D@2@@std@@@2@@property_tree@boost@@@std@@@2@@234@@detail@multi_index@boost@@@detail@multi_index@boost@@@detail@multi_index@boost@@YAPAU?$sequenced_index_node@U?$ordered_index_node@Unull_augment_policy@detail@multi_index@boost@@U?$index_node_base@U?$pair@$$CBV?$basic_string@DU?$char_traits@D@std@@V?$allocator@D@2@@std@@V?$basic_ptree@V?$basic_string@DU?$char_traits@D@std@@V?$allocator@D@2@@std@@V12@U?$less@V?$basic_string@DU?$char_traits@D@std@@V?$allocator@D@2@@std@@@2@@property_tree@boost@@@std@@V?$allocator@U?$pair@$$CBV?$basic_string@DU?$char_traits@D@std@@V?$allocator@D@2@@std@@V?$basic_ptree@V?$basic_string@DU?$char_traits@D@std@@V?$allocator@D@2@@std@@V12@U?$less@V?$basic_string@DU?$char_traits@D@std@@V?$allocator@D@2@@std@@@2@@property_tree@boost@@@std@@@2@@234@@detail@multi_index@boost@@@012@ABQAU3012@U?$bool_@$00@mpl@2@@Z 10007970 f i JsonWriter.obj
 0001:00006970       ??$_Unchecked@V?$_Vector_val@U?$_Simple_types@V?$Point_@H@cv@@@std@@@std@@@std@@YAPAV?$Point_@H@cv@@ABV?$_Vector_iterator@V?$_Vector_val@U?$_Simple_types@V?$Point_@H@cv@@@std@@@std@@@0@@Z 10007970 f i Detector.obj
 0001:00006970       ??$raw_ptr@PAU?$sequenced_index_node_impl@V?$allocator@D@std@@@detail@multi_index@boost@@@detail@multi_index@boost@@YAPAU?$sequenced_index_node_impl@V?$allocator@D@std@@@012@ABQAU3012@U?$bool_@$00@mpl@2@@Z 10007970 f i JsonWriter.obj
 0001:00006970       ??$_Unchecked@V?$_String_val@U?$_Simple_types@D@std@@@std@@@std@@YAPBDABV?$_String_const_iterator@V?$_String_val@U?$_Simple_types@D@std@@@std@@@0@@Z 10007970 f i Face.obj
 0001:00006970       ??$raw_ptr@PAU?$copy_map_entry@U?$sequenced_index_node@U?$ordered_index_node@Unull_augment_policy@detail@multi_index@boost@@U?$index_node_base@U?$pair@$$CBV?$basic_string@DU?$char_traits@D@std@@V?$allocator@D@2@@std@@V?$basic_ptree@V?$basic_string@DU?$char_traits@D@std@@V?$allocator@D@2@@std@@V12@U?$less@V?$basic_string@DU?$char_traits@D@std@@V?$allocator@D@2@@std@@@2@@property_tree@boost@@@std@@V?$allocator@U?$pair@$$CBV?$basic_string@DU?$char_traits@D@std@@V?$allocator@D@2@@std@@V?$basic_ptree@V?$basic_string@DU?$char_traits@D@std@@V?$allocator@D@2@@std@@V12@U?$less@V?$basic_string@DU?$char_traits@D@std@@V?$allocator@D@2@@std@@@2@@property_tree@boost@@@std@@@2@@234@@detail@multi_index@boost@@@detail@multi_index@boost@@@detail@multi_index@boost@@@detail@multi_index@boost@@YAPAU?$copy_map_entry@U?$sequenced_index_node@U?$ordered_index_node@Unull_augment_policy@detail@multi_index@boost@@U?$index_node_base@U?$pair@$$CBV?$basic_string@DU?$char_traits@D@std@@V?$allocator@D@2@@std@@V?$basic_ptree@V?$basic_string@DU?$char_traits@D@std@@V?$allocator@D@2@@std@@V12@U?$less@V?$basic_string@DU?$char_traits@D@std@@V?$allocator@D@2@@std@@@2@@property_tree@boost@@@std@@V?$allocator@U?$pair@$$CBV?$basic_string@DU?$char_traits@D@std@@V?$allocator@D@2@@std@@V?$basic_ptree@V?$basic_string@DU?$char_traits@D@std@@V?$allocator@D@2@@std@@V12@U?$less@V?$basic_string@DU?$char_traits@D@std@@V?$allocator@D@2@@std@@@2@@property_tree@boost@@@std@@@2@@234@@detail@multi_index@boost@@@detail@multi_index@boost@@@012@ABQAU3012@U?$bool_@$00@mpl@2@@Z 10007970 f i JsonWriter.obj
 0001:00006980       ??$_Insert_range@PAV?$Point_@H@cv@@@?$vector@V?$Point_@H@cv@@V?$allocator@V?$Point_@H@cv@@@std@@@std@@AAEXV?$_Vector_const_iterator@V?$_Vector_val@U?$_Simple_types@V?$Point_@H@cv@@@std@@@std@@@1@PAV?$Point_@H@cv@@1Uforward_iterator_tag@1@@Z 10007980 f i Detector.obj
 0001:00006e70       ??$_Uninitialized_move@PAVFace@@PAV1@V?$allocator@VFace@@@std@@@std@@YAPAVFace@@QAV1@0PAV1@AAV?$allocator@VFace@@@0@@Z 10007e70 f i Detector.obj
 0001:00006f10       ?_Change_array@?$vector@V?$Point_@H@cv@@V?$allocator@V?$Point_@H@cv@@@std@@@std@@AAEXQAV?$Point_@H@cv@@II@Z 10007f10 f i Detector.obj
 0001:00006fb0       ?_Calculate_growth@?$vector@V?$Point_@H@cv@@V?$allocator@V?$Point_@H@cv@@@std@@@std@@ABEII@Z 10007fb0 f i Detector.obj
 0001:00007000       ?_Umove_if_noexcept@?$vector@V?$Point_@H@cv@@V?$allocator@V?$Point_@H@cv@@@std@@@std@@AAEXPAV?$Point_@H@cv@@00@Z 10008000 f i Detector.obj
 0001:00007030       ?_Umove@?$vector@V?$Point_@H@cv@@V?$allocator@V?$Point_@H@cv@@@std@@@std@@AAEPAV?$Point_@H@cv@@PAV34@00@Z 10008030 f i Detector.obj
 0001:00007060       ?_Unused_capacity@?$vector@V?$Point_@H@cv@@V?$allocator@V?$Point_@H@cv@@@std@@@std@@ABEIXZ 10008060 f i Detector.obj
 0001:00007090       ?_Umove_if_noexcept1@?$vector@V?$Point_@H@cv@@V?$allocator@V?$Point_@H@cv@@@std@@@std@@AAEXPAV?$Point_@H@cv@@00U?$integral_constant@_N$0A@@2@@Z 10008090 f i Detector.obj
 0001:000070c0       ??$distance@PAV?$Point_@H@cv@@@std@@YAHPAV?$Point_@H@cv@@0@Z 100080c0 f i Detector.obj
 0001:000070c0       ??$distance@PBU?$copy_map_entry@U?$sequenced_index_node@U?$ordered_index_node@Unull_augment_policy@detail@multi_index@boost@@U?$index_node_base@U?$pair@$$CBV?$basic_string@DU?$char_traits@D@std@@V?$allocator@D@2@@std@@V?$basic_ptree@V?$basic_string@DU?$char_traits@D@std@@V?$allocator@D@2@@std@@V12@U?$less@V?$basic_string@DU?$char_traits@D@std@@V?$allocator@D@2@@std@@@2@@property_tree@boost@@@std@@V?$allocator@U?$pair@$$CBV?$basic_string@DU?$char_traits@D@std@@V?$allocator@D@2@@std@@V?$basic_ptree@V?$basic_string@DU?$char_traits@D@std@@V?$allocator@D@2@@std@@V12@U?$less@V?$basic_string@DU?$char_traits@D@std@@V?$allocator@D@2@@std@@@2@@property_tree@boost@@@std@@@2@@234@@detail@multi_index@boost@@@detail@multi_index@boost@@@detail@multi_index@boost@@@std@@YAHPBU?$copy_map_entry@U?$sequenced_index_node@U?$ordered_index_node@Unull_augment_policy@detail@multi_index@boost@@U?$index_node_base@U?$pair@$$CBV?$basic_string@DU?$char_traits@D@std@@V?$allocator@D@2@@std@@V?$basic_ptree@V?$basic_string@DU?$char_traits@D@std@@V?$allocator@D@2@@std@@V12@U?$less@V?$basic_string@DU?$char_traits@D@std@@V?$allocator@D@2@@std@@@2@@property_tree@boost@@@std@@V?$allocator@U?$pair@$$CBV?$basic_string@DU?$char_traits@D@std@@V?$allocator@D@2@@std@@V?$basic_ptree@V?$basic_string@DU?$char_traits@D@std@@V?$allocator@D@2@@std@@V12@U?$less@V?$basic_string@DU?$char_traits@D@std@@V?$allocator@D@2@@std@@@2@@property_tree@boost@@@std@@@2@@234@@detail@multi_index@boost@@@detail@multi_index@boost@@@detail@multi_index@boost@@0@Z 100080c0 f i JsonWriter.obj
 0001:000070e0       ??$_Move_backward_unchecked@PAV?$Point_@H@cv@@PAV12@@std@@YAPAV?$Point_@H@cv@@PAV12@00@Z 100080e0 f i Detector.obj
 0001:00007120       ??$_Move_unchecked@PAV?$Point_@H@cv@@PAV12@@std@@YAPAV?$Point_@H@cv@@PAV12@00@Z 10008120 f i Detector.obj
 0001:00007160       ??$_Uninitialized_move_al_unchecked@PAVFace@@PAV1@V?$allocator@VFace@@@std@@@std@@YAPAVFace@@PAV1@QAV1@1AAV?$allocator@VFace@@@0@U_General_ptr_iterator_tag@0@U_Unused_parameter@0@@Z 10008160 f i Detector.obj
 0001:00007210       ??$_Uninitialized_move@PAV?$Point_@H@cv@@PAV12@V?$allocator@V?$Point_@H@cv@@@std@@@std@@YAPAV?$Point_@H@cv@@QAV12@0PAV12@AAV?$allocator@V?$Point_@H@cv@@@0@@Z 10008210 f i Detector.obj
 0001:000072b0       ??$_Distance1@PAV?$Point_@H@cv@@@std@@YAHPAV?$Point_@H@cv@@0Urandom_access_iterator_tag@0@@Z 100082b0 f i Detector.obj
 0001:000072b0       ??$_Distance1@PBU?$copy_map_entry@U?$sequenced_index_node@U?$ordered_index_node@Unull_augment_policy@detail@multi_index@boost@@U?$index_node_base@U?$pair@$$CBV?$basic_string@DU?$char_traits@D@std@@V?$allocator@D@2@@std@@V?$basic_ptree@V?$basic_string@DU?$char_traits@D@std@@V?$allocator@D@2@@std@@V12@U?$less@V?$basic_string@DU?$char_traits@D@std@@V?$allocator@D@2@@std@@@2@@property_tree@boost@@@std@@V?$allocator@U?$pair@$$CBV?$basic_string@DU?$char_traits@D@std@@V?$allocator@D@2@@std@@V?$basic_ptree@V?$basic_string@DU?$char_traits@D@std@@V?$allocator@D@2@@std@@V12@U?$less@V?$basic_string@DU?$char_traits@D@std@@V?$allocator@D@2@@std@@@2@@property_tree@boost@@@std@@@2@@234@@detail@multi_index@boost@@@detail@multi_index@boost@@@detail@multi_index@boost@@@std@@YAHPBU?$copy_map_entry@U?$sequenced_index_node@U?$ordered_index_node@Unull_augment_policy@detail@multi_index@boost@@U?$index_node_base@U?$pair@$$CBV?$basic_string@DU?$char_traits@D@std@@V?$allocator@D@2@@std@@V?$basic_ptree@V?$basic_string@DU?$char_traits@D@std@@V?$allocator@D@2@@std@@V12@U?$less@V?$basic_string@DU?$char_traits@D@std@@V?$allocator@D@2@@std@@@2@@property_tree@boost@@@std@@V?$allocator@U?$pair@$$CBV?$basic_string@DU?$char_traits@D@std@@V?$allocator@D@2@@std@@V?$basic_ptree@V?$basic_string@DU?$char_traits@D@std@@V?$allocator@D@2@@std@@V12@U?$less@V?$basic_string@DU?$char_traits@D@std@@V?$allocator@D@2@@std@@@2@@property_tree@boost@@@std@@@2@@234@@detail@multi_index@boost@@@detail@multi_index@boost@@@detail@multi_index@boost@@0Urandom_access_iterator_tag@0@@Z 100082b0 f i JsonWriter.obj
 0001:000072c0       ??$_Move_backward_unchecked1@PAV?$Point_@H@cv@@PAV12@@std@@YAPAV?$Point_@H@cv@@PAV12@00U_General_ptr_iterator_tag@0@@Z 100082c0 f i Detector.obj
 0001:00007310       ??$_Move_unchecked1@PAV?$Point_@H@cv@@PAV12@@std@@YAPAV?$Point_@H@cv@@PAV12@00U_General_ptr_iterator_tag@0@@Z 10008310 f i Detector.obj
 0001:00007360       ??$_Uninitialized_move_al_unchecked@PAV?$Point_@H@cv@@PAV12@V?$allocator@V?$Point_@H@cv@@@std@@@std@@YAPAV?$Point_@H@cv@@PAV12@QAV12@1AAV?$allocator@V?$Point_@H@cv@@@0@U_General_ptr_iterator_tag@0@U_Unused_parameter@0@@Z 10008360 f i Detector.obj
 0001:00007410       ??0exception@std@@QAE@XZ   10008410 f i Face.obj
 0001:00007440       ??0exception@std@@QAE@QBDH@Z 10008440 f i Face.obj
 0001:00007470       _wmemmove                  10008470 f i Face.obj
 0001:00007490       ?max@?$numeric_limits@_J@std@@SA_JXZ 10008490 f i Face.obj
 0001:000074a0       ?find@?$char_traits@D@std@@SAPBDQBDIABD@Z 100084a0 f i Face.obj
 0001:000074d0       ?eq@?$char_traits@D@std@@SA_NABD0@Z 100084d0 f i Face.obj
 0001:00007500       ?to_char_type@?$char_traits@D@std@@SADABH@Z 10008500 f i Face.obj
 0001:00007510       ?to_int_type@?$char_traits@D@std@@SAHABD@Z 10008510 f i Face.obj
 0001:00007520       ?not_eof@?$char_traits@D@std@@SAHABH@Z 10008520 f i Face.obj
 0001:00007570       ?_Getcont@_Iterator_base0@std@@QBEPBU_Container_base0@2@XZ 10008570 f i Face.obj
 0001:00007580       ??8type_info@@QBE_NABV0@@Z 10008580 f i Face.obj
 0001:000075c0       ??0bad_cast@std@@QAE@XZ    100085c0 f i Face.obj
 0001:000075f0       ??0locale@std@@QAE@ABV01@@Z 100085f0 f i Face.obj
 0001:00007650       ??0locale@std@@QAE@XZ      10008650 f i Face.obj
 0001:000076a0       ??1locale@std@@QAE@XZ      100086a0 f i Face.obj
 0001:00007720       ??4locale@std@@QAEAAV01@ABV01@@Z 10008720 f i Face.obj
 0001:000077d0       ?_Getfacet@locale@std@@QBEPBVfacet@12@I@Z 100087d0 f i Face.obj
 0001:00007860       ??R_Is_slash_oper@std@@QBE_N_W@Z 10008860 f i Face.obj
 0001:000078a0       ?_Is_drive_prefix@filesystem@std@@YA_NQB_W@Z 100088a0 f i Face.obj
 0001:000078f0       ?_Has_drive_letter_prefix@filesystem@std@@YA_NQB_W0@Z 100088f0 f i Face.obj
 0001:00007930       ?_Find_root_name_end@filesystem@std@@YAPB_WQB_W0@Z 10008930 f i Face.obj
 0001:00007ae0       ?_Find_relative_path@filesystem@std@@YAPB_WQB_W0@Z 10008ae0 f i Face.obj
 0001:00007b10       ?_Parse_parent_path@filesystem@std@@YA?AV?$basic_string_view@_WU?$char_traits@_W@std@@@2@V32@@Z 10008b10 f i Face.obj
 0001:00007bd0       ?parent_path@path@filesystem@std@@QBE?AV123@XZ 10008bd0 f i Face.obj
 0001:00007c20       ??0exception@boost@@IAE@XZ 10008c20 f i Face.obj
 0001:00007c60       ??1exception@boost@@MAE@XZ 10008c60 f i Face.obj
 0001:00007c80       ??1clone_base@exception_detail@boost@@UAE@XZ 10008c80 f i Face.obj
 0001:00007ca0       ??_Eclone_base@exception_detail@boost@@UAEPAXI@Z 10008ca0 f i * CIL library *:* CIL module *
 0001:00007ca0       ??_Gclone_base@exception_detail@boost@@UAEPAXI@Z 10008ca0 f i Face.obj
 0001:00007cd0       ?copy_boost_exception@exception_detail@boost@@YAXPAVexception@2@PBV32@@Z 10008cd0 f i Face.obj
 0001:00007dc0       ?_Fetch_add_relaxed_4@std@@YAKPCKK@Z 10008dc0 f i Face.obj
 0001:00007dc0       ?_Fetch_add_release_4@std@@YAKPCKK@Z 10008dc0 f i Face.obj
 0001:00007dc0       ?_Fetch_add_seq_cst_4@std@@YAKPCKK@Z 10008dc0 f i Face.obj
 0001:00007dc0       ?_Fetch_add_acquire_4@std@@YAKPCKK@Z 10008dc0 f i Face.obj
 0001:00007dd0       ?_Atomic_fetch_add_4@std@@YAKPCKKW4memory_order@1@@Z 10008dd0 f i Face.obj
 0001:00007e50       ?_Atomic_fetch_sub_4@std@@YAKPCKKW4memory_order@1@@Z 10008e50 f i Face.obj
 0001:00007e70       ?atomic_fetch_sub_explicit@std@@YAHPAU_Atomic_int@1@HW4memory_order@1@@Z 10008e70 f i Face.obj
 0001:00007ec0       ?fetch_sub@_Atomic_int@std@@QAEHHW4memory_order@2@@Z 10008ec0 f i Face.obj
 0001:00007ef0       ?atomic_decrement@detail@boost@@YAHPAU?$atomic@H@std@@@Z 10008ef0 f i Face.obj
 0001:00007f10       ??0sp_counted_base@detail@boost@@QAE@XZ 10008f10 f i Face.obj
 0001:00007f50       ??1sp_counted_base@detail@boost@@UAE@XZ 10008f50 f i Face.obj
 0001:00007f70       ?destroy@sp_counted_base@detail@boost@@UAEXXZ 10008f70 f i Face.obj
 0001:00007fb0       ?release@sp_counted_base@detail@boost@@QAEXXZ 10008fb0 f i Face.obj
 0001:00007ff0       ?weak_release@sp_counted_base@detail@boost@@QAEXXZ 10008ff0 f i Face.obj
 0001:00008020       ??_Gsp_counted_base@detail@boost@@UAEPAXI@Z 10009020 f i Face.obj
 0001:00008020       ??_Esp_counted_base@detail@boost@@UAEPAXI@Z 10009020 f i * CIL library *:* CIL module *
 0001:00008050       ??1shared_count@detail@boost@@QAE@XZ 10009050 f i Face.obj
 0001:000080a0       ??0format_error@io@boost@@QAE@XZ 100090a0 f i Face.obj
 0001:000080c0       ?what@format_error@io@boost@@UBEPBDXZ 100090c0 f i Face.obj
 0001:000080d0       ??0bad_format_string@io@boost@@QAE@II@Z 100090d0 f i Face.obj
 0001:00008110       ?what@bad_format_string@io@boost@@UBEPBDXZ 10009110 f i Face.obj
 0001:00008120       ??0too_few_args@io@boost@@QAE@II@Z 10009120 f i Face.obj
 0001:00008160       ?what@too_few_args@io@boost@@UBEPBDXZ 10009160 f i Face.obj
 0001:00008170       ??0too_many_args@io@boost@@QAE@II@Z 10009170 f i Face.obj
 0001:000081b0       ?what@too_many_args@io@boost@@UBEPBDXZ 100091b0 f i Face.obj
 0001:000081c0       ?maybe_throw_exception@detail@io@boost@@YAXEII@Z 100091c0 f i Face.obj
 0001:00008240       ?makeCoordinates@Face@@QAEXXZ 10009240 f   Face.obj
 0001:00008310       ?convertMouthCoordinatesFromRoiToImage@Face@@QAEXVMat@cv@@@Z 10009310 f   Face.obj
 0001:000084c0       ?convertEyesCoordinatesFromRoiToImage@Face@@QAEXVMat@cv@@@Z 100094c0 f   Face.obj
 0001:000086e0       ?getEyesCoordinates@Face@@QAE?AV?$vector@V?$Point_@H@cv@@V?$allocator@V?$Point_@H@cv@@@std@@@std@@XZ 100096e0 f   Face.obj
 0001:00008820       ?getMouthCoordinates@Face@@QAE?AV?$vector@V?$Point_@H@cv@@V?$allocator@V?$Point_@H@cv@@@std@@@std@@XZ 10009820 f   Face.obj
 0001:00008930       ?getCoordinatesFromRectangle@Face@@QAE?AV?$vector@V?$Point_@H@cv@@V?$allocator@V?$Point_@H@cv@@@std@@@std@@V?$Rect_@H@cv@@@Z 10009930 f   Face.obj
 0001:00008a40       ??0Face@@QAE@XZ            10009a40 f   Face.obj
 0001:00008ae0       ?setImage@Face@@QAEXVMat@cv@@@Z 10009ae0 f   Face.obj
 0001:00008b90       ?setRectangle@Face@@QAEXV?$Rect_@H@cv@@@Z 10009b90 f   Face.obj
 0001:00008bb0       ?generateName@Face@@QAEXHV?$basic_string@DU?$char_traits@D@std@@V?$allocator@D@2@@std@@@Z 10009bb0 f   Face.obj
 0001:00008cc0       ??1?$basic_format@DU?$char_traits@D@std@@V?$allocator@D@2@@boost@@QAE@XZ 10009cc0 f i Face.obj
 0001:00008d10       ??1?$optional@Vlocale@std@@@boost@@QAE@XZ 10009d10 f i Face.obj
 0001:00008d30       ?setEyes@Face@@QAEXV?$vector@V?$Rect_@H@cv@@V?$allocator@V?$Rect_@H@cv@@@std@@@std@@@Z 10009d30 f   Face.obj
 0001:00008d90       ?setMouth@Face@@QAEXV?$Rect_@H@cv@@@Z 10009d90 f   Face.obj
 0001:00008db0       ?getRectangle@Face@@QAE?AV?$Rect_@H@cv@@XZ 10009db0 f   Face.obj
 0001:00008dd0       ?getName@Face@@QAE?AV?$basic_string@DU?$char_traits@D@std@@V?$allocator@D@2@@std@@XZ 10009dd0 f   Face.obj
 0001:00008e10       ?getCoordinates@Face@@QAE?AV?$vector@V?$Point_@H@cv@@V?$allocator@V?$Point_@H@cv@@@std@@@std@@XZ 10009e10 f   Face.obj
 0001:00008e50       ?saveFace@Face@@QAEXVpath@filesystem@std@@V?$basic_string@DU?$char_traits@D@std@@V?$allocator@D@2@@4@@Z 10009e50 f   Face.obj
 0001:00008f50       ?mirrorEffect@Face@@AAEXXZ 10009f50 f   Face.obj
 0001:00008fa0       ?makeAFullPathToSaveImage@Face@@QAE?AV?$basic_string@DU?$char_traits@D@std@@V?$allocator@D@2@@std@@Vpath@filesystem@3@V23@@Z 10009fa0 f   Face.obj
 0001:000090d0       ??1Face@@QAE@XZ            1000a0d0 f   Face.obj
 0001:00009110       ??1?$vector@U?$format_item@DU?$char_traits@D@std@@V?$allocator@D@2@@detail@io@boost@@V?$allocator@U?$format_item@DU?$char_traits@D@std@@V?$allocator@D@2@@detail@io@boost@@@std@@@std@@QAE@XZ 1000a110 f i Face.obj
 0001:00009150       ??1?$basic_altstringbuf@DU?$char_traits@D@std@@V?$allocator@D@2@@io@boost@@UAE@XZ 1000a150 f i Face.obj
 0001:000091a0       ??4?$vector@V?$Rect_@H@cv@@V?$allocator@V?$Rect_@H@cv@@@std@@@std@@QAEAAV01@ABV01@@Z 1000a1a0 f i Face.obj
 0001:00009200       ?push_back@?$vector@V?$Point_@H@cv@@V?$allocator@V?$Point_@H@cv@@@std@@@std@@QAEXABV?$Point_@H@cv@@@Z 1000a200 f i Face.obj
 0001:00009220       ??$emplace_back@ABV?$Point_@H@cv@@@?$vector@V?$Point_@H@cv@@V?$allocator@V?$Point_@H@cv@@@std@@@std@@QAEAAV?$Point_@H@cv@@ABV23@@Z 1000a220 f i Face.obj
 0001:00009280       ??$_Emplace_back_with_unused_capacity@ABV?$Point_@H@cv@@@?$vector@V?$Point_@H@cv@@V?$allocator@V?$Point_@H@cv@@@std@@@std@@AAEAAV?$Point_@H@cv@@ABV23@@Z 1000a280 f i Face.obj
 0001:00009310       ??1?$vector@HV?$allocator@H@std@@@std@@QAE@XZ 1000a310 f i Face.obj
 0001:00009310       ??1?$vector@IV?$allocator@I@std@@@std@@QAE@XZ 1000a310 f i Face.obj
 0001:00009350       ??1?$optional_base@Vlocale@std@@@optional_detail@boost@@IAE@XZ 1000a350 f i Face.obj
 0001:00009390       ??9?$_Vb_const_iterator@U?$_Wrap_alloc@V?$allocator@I@std@@@std@@@std@@QBE_NABV01@@Z 1000a390 f i Face.obj
 0001:000093d0       ??E?$_Vb_const_iterator@U?$_Wrap_alloc@V?$allocator@I@std@@@std@@@std@@QAEAAV01@XZ 1000a3d0 f i Face.obj
 0001:000093f0       ??E?$_Vb_iterator@U?$_Wrap_alloc@V?$allocator@I@std@@@std@@@std@@QAEAAV01@XZ 1000a3f0 f i Face.obj
 0001:00009410       ??D?$_Vb_iterator@U?$_Wrap_alloc@V?$allocator@I@std@@@std@@@std@@QBE?AV?$_Vb_reference@U?$_Wrap_alloc@V?$allocator@I@std@@@std@@@1@XZ 1000a410 f i Face.obj
 0001:00009430       ??B?$_Vb_reference@U?$_Wrap_alloc@V?$allocator@I@std@@@std@@@std@@QBE_NXZ 1000a430 f i Face.obj
 0001:000094a0       ?size@?$vector@IV?$allocator@I@std@@@std@@QBEIXZ 1000a4a0 f i Face.obj
 0001:000094d0       ??1?$vector@_NV?$allocator@_N@std@@@std@@QAE@XZ 1000a4d0 f i Face.obj
 0001:000094f0       ??4?$refcount_ptr@Uerror_info_container@exception_detail@boost@@@exception_detail@boost@@QAEAAV012@ABV012@@Z 1000a4f0 f i Face.obj
 0001:00009510       ??1?$refcount_ptr@Uerror_info_container@exception_detail@boost@@@exception_detail@boost@@QAE@XZ 1000a510 f i Face.obj
 0001:00009550       ??0?$_String_const_iterator@V?$_String_val@U?$_Simple_types@D@std@@@std@@@std@@QAE@XZ 1000a550 f i Face.obj
 0001:00009550       ??0any@boost@@QAE@XZ       1000a550 f i JsonWriter.obj
 0001:00009550       ??0link_info@?$ordered_index_impl@U?$member@U?$pair@$$CBV?$basic_string@DU?$char_traits@D@std@@V?$allocator@D@2@@std@@V?$basic_ptree@V?$basic_string@DU?$char_traits@D@std@@V?$allocator@D@2@@std@@V12@U?$less@V?$basic_string@DU?$char_traits@D@std@@V?$allocator@D@2@@std@@@2@@property_tree@boost@@@std@@$$CBV?$basic_string@DU?$char_traits@D@std@@V?$allocator@D@2@@2@$0A@@multi_index@boost@@U?$less@V?$basic_string@DU?$char_traits@D@std@@V?$allocator@D@2@@std@@@std@@U?$nth_layer@$01U?$pair@$$CBV?$basic_string@DU?$char_traits@D@std@@V?$allocator@D@2@@std@@V?$basic_ptree@V?$basic_string@DU?$char_traits@D@std@@V?$allocator@D@2@@std@@V12@U?$less@V?$basic_string@DU?$char_traits@D@std@@V?$allocator@D@2@@std@@@2@@property_tree@boost@@@std@@U?$indexed_by@U?$sequenced@U?$tag@Una@mpl@boost@@U123@U123@U123@U123@U123@U123@U123@U123@U123@U123@U123@U123@U123@U123@U123@U123@U123@U123@U123@@multi_index@boost@@@multi_index@boost@@U?$ordered_non_unique@U?$tag@Uby_name@subs@?$basic_ptree@V?$basic_string@DU?$char_traits@D@std@@V?$allocator@D@2@@std@@V12@U?$less@V?$basic_string@DU?$char_traits@D@std@@V?$allocator@D@2@@std@@@2@@property_tree@boost@@Una@mpl@5@U675@U675@U675@U675@U675@U675@U675@U675@U675@U675@U675@U675@U675@U675@U675@U675@U675@U675@@multi_index@boost@@U?$member@U?$pair@$$CBV?$basic_string@DU?$char_traits@D@std@@V?$allocator@D@2@@std@@V?$basic_ptree@V?$basic_string@DU?$char_traits@D@std@@V?$allocator@D@2@@std@@V12@U?$less@V?$basic_string@DU?$char_traits@D@std@@V?$allocator@D@2@@std@@@2@@property_tree@boost@@@std@@$$CBV?$basic_string@DU?$char_traits@D@std@@V?$allocator@D@2@@2@$0A@@23@U?$less@V?$basic_string@DU?$char_traits@D@std@@V?$allocator@D@2@@std@@@std@@@23@Una@mpl@3@U563@U563@U563@U563@U563@U563@U563@U563@U563@U563@U563@U563@U563@U563@U563@U563@U563@@multi_index@boost@@V?$allocator@U?$pair@$$CBV?$basic_string@DU?$char_traits@D@std@@V?$allocator@D@2@@std@@V?$basic_ptree@V?$basic_string@DU?$char_traits@D@std@@V?$allocator@D@2@@std@@V12@U?$less@V?$basic_string@DU?$char_traits@D@std@@V?$allocator@D@2@@std@@@2@@property_tree@boost@@@std@@@2@@detail@23@U?$vector1@Uby_name@subs@?$basic_ptree@V?$basic_string@DU?$char_traits@D@std@@V?$allocator@D@2@@std@@V12@U?$less@V?$basic_string@DU?$char_traits@D@std@@V?$allocator@D@2@@std@@@2@@property_tree@boost@@@mpl@3@Uordered_non_unique_tag@723@Unull_augment_policy@723@@detail@multi_index@boost@@QAE@XZ 1000a550 f i JsonWriter.obj
 0001:00009550       ??0?$refcount_ptr@Uerror_info_container@exception_detail@boost@@@exception_detail@boost@@QAE@XZ 1000a550 f i Face.obj
 0001:00009550       ??0?$optional@AAV?$basic_ptree@V?$basic_string@DU?$char_traits@D@std@@V?$allocator@D@2@@std@@V12@U?$less@V?$basic_string@DU?$char_traits@D@std@@V?$allocator@D@2@@std@@@2@@property_tree@boost@@@boost@@QAE@XZ 1000a550 f i JsonWriter.obj
 0001:00009570       ?substr@?$basic_string@DU?$char_traits@D@std@@V?$allocator@D@2@@std@@QBE?AV12@II@Z 1000a570 f i Face.obj
 0001:000095c0       ?find_last_of@?$basic_string@DU?$char_traits@D@std@@V?$allocator@D@2@@std@@QBEIQBDI@Z 1000a5c0 f i Face.obj
 0001:00009640       ?reserve@?$basic_string@DU?$char_traits@D@std@@V?$allocator@D@2@@std@@QAEXI@Z 1000a640 f i Face.obj
 0001:00009700       ?end@?$basic_string@DU?$char_traits@D@std@@V?$allocator@D@2@@std@@QAE?AV?$_String_iterator@V?$_String_val@U?$_Simple_types@D@std@@@std@@@2@XZ 1000a700 f i Face.obj
 0001:00009780       ??Y?$basic_string@DU?$char_traits@D@std@@V?$allocator@D@2@@std@@QAEAAV01@ABV01@@Z 1000a780 f i Face.obj
 0001:000097a0       ??4?$basic_string@DU?$char_traits@D@std@@V?$allocator@D@2@@std@@QAEAAV01@ABV01@@Z 1000a7a0 f i Face.obj
 0001:00009810       ??0?$basic_string@DU?$char_traits@D@std@@V?$allocator@D@2@@std@@QAE@XZ 1000a810 f i Face.obj
 0001:00009860       ??_G?$basic_altstringbuf@DU?$char_traits@D@std@@V?$allocator@D@2@@io@boost@@UAEPAXI@Z 1000a860 f i Face.obj
 0001:00009860       ??_E?$basic_altstringbuf@DU?$char_traits@D@std@@V?$allocator@D@2@@io@boost@@UAEPAXI@Z 1000a860 f i * CIL library *:* CIL module *
 0001:00009890       ??_Glocale@std@@QAEPAXI@Z  1000a890 f i Face.obj
 0001:000098c0       ?_Tidy@?$vector@U?$format_item@DU?$char_traits@D@std@@V?$allocator@D@2@@detail@io@boost@@V?$allocator@U?$format_item@DU?$char_traits@D@std@@V?$allocator@D@2@@detail@io@boost@@@std@@@std@@AAEXXZ 1000a8c0 f i Face.obj
 0001:00009960       ?_Copy_alloc@?$_String_alloc@U?$_String_base_types@DV?$allocator@D@std@@@std@@@std@@QAEXABV?$allocator@D@2@@Z 1000a960 f i Face.obj
 0001:00009960       ?_Copy_alloc@?$_Vector_alloc@U?$_Vec_base_types@V?$Rect_@H@cv@@V?$allocator@V?$Rect_@H@cv@@@std@@@std@@@std@@QAEXABV?$allocator@V?$Rect_@H@cv@@@2@@Z 1000a960 f i Face.obj
 0001:00009990       ?_Tidy@?$vector@HV?$allocator@H@std@@@std@@AAEXXZ 1000a990 f i Face.obj
 0001:00009990       ?_Tidy@?$vector@IV?$allocator@I@std@@@std@@AAEXXZ 1000a990 f i Face.obj
 0001:00009a30       ?destroy@?$optional_base@Vlocale@std@@@optional_detail@boost@@IAEXXZ 1000aa30 f i Face.obj
 0001:00009a50       ?_Inc@?$_Vb_const_iterator@U?$_Wrap_alloc@V?$allocator@I@std@@@std@@@std@@QAEXXZ 1000aa50 f i Face.obj
 0001:00009a90       ??8?$_Vb_const_iterator@U?$_Wrap_alloc@V?$allocator@I@std@@@std@@@std@@QBE_NABV01@@Z 1000aa90 f i Face.obj
 0001:00009ae0       ?_Mask@?$_Vb_reference@U?$_Wrap_alloc@V?$allocator@I@std@@@std@@@std@@IBEIXZ 1000aae0 f i Face.obj
 0001:00009b00       ??0?$_Vb_reference@U?$_Wrap_alloc@V?$allocator@I@std@@@std@@@std@@QAE@ABV?$_Vb_iter_base@U?$_Wrap_alloc@V?$allocator@I@std@@@std@@@1@@Z 1000ab00 f i Face.obj
 0001:00009b30       ??1?$_Vb_val@V?$allocator@_N@std@@@std@@QAE@XZ 1000ab30 f i Face.obj
 0001:00009b80       ?release@?$refcount_ptr@Uerror_info_container@exception_detail@boost@@@exception_detail@boost@@AAEXXZ 1000ab80 f i Face.obj
 0001:00009bc0       ?adopt@?$refcount_ptr@Uerror_info_container@exception_detail@boost@@@exception_detail@boost@@QAEXPAUerror_info_container@23@@Z 1000abc0 f i Face.obj
 0001:00009bf0       ?_Tidy_init@?$basic_string@_WU?$char_traits@_W@std@@V?$allocator@_W@2@@std@@QAEXXZ 1000abf0 f i Face.obj
 0001:00009c40       ?assign@?$basic_string@_WU?$char_traits@_W@std@@V?$allocator@_W@2@@std@@QAEAAV12@QB_WI@Z 1000ac40 f i Face.obj
 0001:00009d10       ?get_allocator@?$basic_string@DU?$char_traits@D@std@@V?$allocator@D@2@@std@@QBE?AV?$allocator@D@2@XZ 1000ad10 f i Face.obj
 0001:00009d30       ??0?$basic_string@DU?$char_traits@D@std@@V?$allocator@D@2@@std@@QAE@ABV01@IIABV?$allocator@D@1@@Z 1000ad30 f i Face.obj
 0001:00009da0       ?move@?$_WChar_traits@_W@std@@SAPA_WQA_WQB_WI@Z 1000ada0 f i Face.obj
 0001:00009dc0       ??B?$fpos@U_Mbstatet@@@std@@QBE_JXZ 1000adc0 f i Face.obj
 0001:00009df0       ??0?$fpos@U_Mbstatet@@@std@@QAE@_J@Z 1000adf0 f i Face.obj
 0001:00009e30       ?_Destroy@?$vector@U?$format_item@DU?$char_traits@D@std@@V?$allocator@D@2@@detail@io@boost@@V?$allocator@U?$format_item@DU?$char_traits@D@std@@V?$allocator@D@2@@detail@io@boost@@@std@@@std@@AAEXPAU?$format_item@DU?$char_traits@D@std@@V?$allocator@D@2@@detail@io@boost@@0@Z 1000ae30 f i Face.obj
 0001:00009e60       ?capacity@?$vector@U?$format_item@DU?$char_traits@D@std@@V?$allocator@D@2@@detail@io@boost@@V?$allocator@U?$format_item@DU?$char_traits@D@std@@V?$allocator@D@2@@detail@io@boost@@@std@@@std@@QBEIXZ 1000ae60 f i Face.obj
 0001:00009e90       ?deallocate@?$allocator@U?$format_item@DU?$char_traits@D@std@@V?$allocator@D@2@@detail@io@boost@@@std@@QAEXQAU?$format_item@DU?$char_traits@D@std@@V?$allocator@D@2@@detail@io@boost@@I@Z 1000ae90 f i Face.obj
 0001:00009eb0       ?capacity@?$vector@IV?$allocator@I@std@@@std@@QBEIXZ 1000aeb0 f i Face.obj
 0001:00009eb0       ?capacity@?$vector@HV?$allocator@H@std@@@std@@QBEIXZ 1000aeb0 f i Face.obj
 0001:00009ee0       ?destroy_impl@?$optional_base@Vlocale@std@@@optional_detail@boost@@AAEXXZ 1000aee0 f i Face.obj
 0001:00009f10       ??0?$_Vb_iter_base@U?$_Wrap_alloc@V?$allocator@I@std@@@std@@@std@@QAE@PBIIPBU_Container_base0@1@@Z 1000af10 f i Face.obj
 0001:00009f40       ?deallocate@?$allocator@I@std@@QAEXQAII@Z 1000af40 f i Face.obj
 0001:00009f40       ?deallocate@?$allocator@H@std@@QAEXQAHI@Z 1000af40 f i Face.obj
 0001:00009f60       ?add_ref@?$refcount_ptr@Uerror_info_container@exception_detail@boost@@@exception_detail@boost@@AAEXXZ 1000af60 f i Face.obj
 0001:00009f90       ??9?$_String_const_iterator@V?$_String_val@U?$_Simple_types@D@std@@@std@@@std@@QBE_NABV01@@Z 1000af90 f i Face.obj
 0001:00009fd0       ??E?$_String_const_iterator@V?$_String_val@U?$_Simple_types@D@std@@@std@@@std@@QAEAAV01@XZ 1000afd0 f i Face.obj
 0001:00009ff0       ?assign@?$basic_string@DU?$char_traits@D@std@@V?$allocator@D@2@@std@@QAEAAV12@ABV12@II@Z 1000aff0 f i Face.obj
 0001:0000a050       ??8?$_String_const_iterator@V?$_String_val@U?$_Simple_types@D@std@@@std@@@std@@QBE_NABV01@@Z 1000b050 f i Face.obj
 0001:0000a090       ?_Clamp_suffix_size@?$_String_val@U?$_Simple_types@D@std@@@std@@QBEIII@Z 1000b090 f i Face.obj
 0001:0000a0c0       ?_Check_offset@?$_String_val@U?$_Simple_types@D@std@@@std@@QBEXI@Z 1000b0c0 f i Face.obj
 0001:0000a0e0       ??Y?$_String_const_iterator@V?$_String_val@U?$_Simple_types@D@std@@@std@@@std@@QAEAAV01@H@Z 1000b0e0 f i Face.obj
 0001:0000a100       ?_Xran@?$_String_val@U?$_Simple_types@D@std@@@std@@SAXXZ 1000b100 f i Face.obj
 0001:0000a110       ??$use_facet@V?$ctype@D@std@@@std@@YAABV?$ctype@D@0@ABVlocale@0@@Z 1000b110 f i Face.obj
 0001:0000a250       ??$_Unaligned_load@I@filesystem@std@@YAIPBX@Z 1000b250 f i Face.obj
 0001:0000a280       ??$find_if@PB_WU_Is_slash_oper@std@@@std@@YAPB_WPB_WQB_WU_Is_slash_oper@0@@Z 1000b280 f i Face.obj
 0001:0000a2f0       ??$find_if_not@PB_WU_Is_slash_oper@std@@@std@@YAPB_WPB_WQB_WU_Is_slash_oper@0@@Z 1000b2f0 f i Face.obj
 0001:0000a360       ??$?0V?$basic_string_view@_WU?$char_traits@_W@std@@@std@@$0A@@path@filesystem@std@@QAE@ABV?$basic_string_view@_WU?$char_traits@_W@std@@@2@W4format@012@@Z 1000b360 f i Face.obj
 0001:0000a390       ??$?6U?$char_traits@D@std@@@std@@YAAAV?$basic_ostream@DU?$char_traits@D@std@@@0@AAV10@D@Z 1000b390 f i Face.obj
 0001:0000a690       ??0?$basic_format@DU?$char_traits@D@std@@V?$allocator@D@2@@boost@@QAE@PBD@Z 1000b690 f i Face.obj
 0001:0000a780       ?str@?$basic_format@DU?$char_traits@D@std@@V?$allocator@D@2@@boost@@QBE?AV?$basic_string@DU?$char_traits@D@std@@V?$allocator@D@2@@std@@XZ 1000b780 f i Face.obj
 0001:0000a970       ??$throw_exception@Vbad_format_string@io@boost@@@boost@@YAXABVbad_format_string@io@0@@Z 1000b970 f i Face.obj
 0001:0000aa00       ??0?$Rect_@H@cv@@QAE@ABV?$Point_@H@1@0@Z 1000ba00 f i Face.obj
 0001:0000aa90       ??0?$Rect_@H@cv@@QAE@XZ    1000ba90 f i Face.obj
 0001:0000aad0       ??$max@H@std@@YAABHABH0@Z  1000bad0 f i Face.obj
 0001:0000ab00       ??$min@H@std@@YAABHABH0@Z  1000bb00 f i Face.obj
 0001:0000ab30       ?seekoff@?$basic_altstringbuf@DU?$char_traits@D@std@@V?$allocator@D@2@@io@boost@@MAE?AV?$fpos@U_Mbstatet@@@std@@_JHH@Z 1000bb30 f i Face.obj
 0001:0000ad90       ?seekpos@?$basic_altstringbuf@DU?$char_traits@D@std@@V?$allocator@D@2@@io@boost@@MAE?AV?$fpos@U_Mbstatet@@@std@@V45@H@Z 1000bd90 f i Face.obj
 0001:0000afa0       ?underflow@?$basic_altstringbuf@DU?$char_traits@D@std@@V?$allocator@D@2@@io@boost@@MAEHXZ 1000bfa0 f i Face.obj
 0001:0000b0b0       ?pbackfail@?$basic_altstringbuf@DU?$char_traits@D@std@@V?$allocator@D@2@@io@boost@@MAEHH@Z 1000c0b0 f i Face.obj
 0001:0000b1b0       ?overflow@?$basic_altstringbuf@DU?$char_traits@D@std@@V?$allocator@D@2@@io@boost@@MAEHH@Z 1000c1b0 f i Face.obj
 0001:0000b490       ?dealloc@?$basic_altstringbuf@DU?$char_traits@D@std@@V?$allocator@D@2@@io@boost@@IAEXXZ 1000c490 f i Face.obj
 0001:0000b530       ??$?LV?$basic_string@DU?$char_traits@D@std@@V?$allocator@D@2@@std@@@?$basic_format@DU?$char_traits@D@std@@V?$allocator@D@2@@boost@@QAEAAV01@ABV?$basic_string@DU?$char_traits@D@std@@V?$allocator@D@2@@std@@@Z 1000c530 f i Face.obj
 0001:0000b550       ??$?LH@?$basic_format@DU?$char_traits@D@std@@V?$allocator@D@2@@boost@@QAEAAV01@ABH@Z 1000c550 f i Face.obj
 0001:0000b570       ??$assign@PAV?$Rect_@H@cv@@X@?$vector@V?$Rect_@H@cv@@V?$allocator@V?$Rect_@H@cv@@@std@@@std@@QAEXPAV?$Rect_@H@cv@@0@Z 1000c570 f i Face.obj
 0001:0000b5b0       ??$_Emplace_reallocate@ABV?$Point_@H@cv@@@?$vector@V?$Point_@H@cv@@V?$allocator@V?$Point_@H@cv@@@std@@@std@@QAEPAV?$Point_@H@cv@@QAV23@ABV23@@Z 1000c5b0 f i Face.obj
 0001:0000b790       ??$_Traits_find_last_of@U?$char_traits@D@std@@@std@@YAIQBDII0IU?$integral_constant@_N$00@0@@Z 1000c790 f i Face.obj
 0001:0000b8c0       ??0?$_String_bitmap@D$00@std@@QAE@XZ 1000c8c0 f i Face.obj
 0001:0000ba30       ??$_Pocca@V?$allocator@D@std@@@std@@YAXAAV?$allocator@D@0@ABV10@@Z 1000ca30 f i Face.obj
 0001:0000ba30       ??$_Pocca@V?$allocator@V?$Rect_@H@cv@@@std@@@std@@YAXAAV?$allocator@V?$Rect_@H@cv@@@0@ABV10@@Z 1000ca30 f i Face.obj
 0001:0000bb50       ??$_Destroy_range@V?$allocator@U?$format_item@DU?$char_traits@D@std@@V?$allocator@D@2@@detail@io@boost@@@std@@@std@@YAXPAU?$format_item@DU?$char_traits@D@std@@V?$allocator@D@2@@detail@io@boost@@0AAV?$allocator@U?$format_item@DU?$char_traits@D@std@@V?$allocator@D@2@@detail@io@boost@@@0@@Z 1000cb50 f i Face.obj
 0001:0000bb80       ??0bad_cast@std@@QAE@ABV01@@Z 1000cb80 f i Face.obj
 0001:0000bbb0       ??0exception@boost@@QAE@ABV01@@Z 1000cbb0 f i Face.obj
 0001:0000bc00       ??0clone_base@exception_detail@boost@@QAE@ABV012@@Z 1000cc00 f i Face.obj
 0001:0000bc20       ??_D?$clone_impl@U?$error_info_injector@Vbad_format_string@io@boost@@@exception_detail@boost@@@exception_detail@boost@@QAEXXZ 1000cc20 f i Face.obj
 0001:0000bc40       ??0?$clone_impl@U?$error_info_injector@Vbad_format_string@io@boost@@@exception_detail@boost@@@exception_detail@boost@@QAE@ABV012@@Z 1000cc40 f i Face.obj
 0001:0000bd10       ??0?$error_info_injector@Vbad_format_string@io@boost@@@exception_detail@boost@@QAE@ABU012@@Z 1000cd10 f i Face.obj
 0001:0000bd90       ??0bad_format_string@io@boost@@QAE@ABV012@@Z 1000cd90 f i Face.obj
 0001:0000bdd0       ??0format_error@io@boost@@QAE@ABV012@@Z 1000cdd0 f i Face.obj
 0001:0000be00       ??_E?$clone_impl@U?$error_info_injector@Vbad_format_string@io@boost@@@exception_detail@boost@@@exception_detail@boost@@UAEPAXI@Z 1000ce00 f i * CIL library *:* CIL module *
 0001:0000be00       ??_G?$clone_impl@U?$error_info_injector@Vbad_format_string@io@boost@@@exception_detail@boost@@@exception_detail@boost@@UAEPAXI@Z 1000ce00 f i Face.obj
 0001:0000be30       ??_G?$error_info_injector@Vbad_format_string@io@boost@@@exception_detail@boost@@UAEPAXI@Z 1000ce30 f i Face.obj
 0001:0000be30       ??_E?$error_info_injector@Vbad_format_string@io@boost@@@exception_detail@boost@@UAEPAXI@Z 1000ce30 f i * CIL library *:* CIL module *
 0001:0000be60       ?_Match@?$_String_bitmap@D$00@std@@QBE_ND@Z 1000ce60 f i Face.obj
 0001:0000be80       ?_Mark@?$_String_bitmap@D$00@std@@QAE_NPBDQBD@Z 1000ce80 f i Face.obj
 0001:0000bec0       ?rethrow@?$clone_impl@U?$error_info_injector@Vbad_format_string@io@boost@@@exception_detail@boost@@@exception_detail@boost@@EBEXXZ 1000cec0 f i Face.obj
 0001:0000bef0       ?clone@?$clone_impl@U?$error_info_injector@Vbad_format_string@io@boost@@@exception_detail@boost@@@exception_detail@boost@@EBEPBVclone_base@23@XZ 1000cef0 f i Face.obj
 0001:0000bfa0       ??1?$clone_impl@U?$error_info_injector@Vbad_format_string@io@boost@@@exception_detail@boost@@@exception_detail@boost@@UAE@XZ 1000cfa0 f i Face.obj
 0001:0000c000       ??1?$error_info_injector@Vbad_format_string@io@boost@@@exception_detail@boost@@UAE@XZ 1000d000 f i Face.obj
 0001:0000c040       ?release@?$unique_ptr@V_Facet_base@std@@U?$default_delete@V_Facet_base@std@@@2@@std@@QAEPAV_Facet_base@2@XZ 1000d040 f i Face.obj
 0001:0000c070       ??1?$unique_ptr@V_Facet_base@std@@U?$default_delete@V_Facet_base@std@@@2@@std@@QAE@XZ 1000d070 f i Face.obj
 0001:0000c0b0       ??A?$vector@U?$format_item@DU?$char_traits@D@std@@V?$allocator@D@2@@detail@io@boost@@V?$allocator@U?$format_item@DU?$char_traits@D@std@@V?$allocator@D@2@@detail@io@boost@@@std@@@std@@QAEAAU?$format_item@DU?$char_traits@D@std@@V?$allocator@D@2@@detail@io@boost@@I@Z 1000d0b0 f i Face.obj
 0001:0000c0b0       ??A?$vector@U?$format_item@DU?$char_traits@D@std@@V?$allocator@D@2@@detail@io@boost@@V?$allocator@U?$format_item@DU?$char_traits@D@std@@V?$allocator@D@2@@detail@io@boost@@@std@@@std@@QBEABU?$format_item@DU?$char_traits@D@std@@V?$allocator@D@2@@detail@io@boost@@I@Z 1000d0b0 f i Face.obj
 0001:0000c0e0       ?size@?$vector@U?$format_item@DU?$char_traits@D@std@@V?$allocator@D@2@@detail@io@boost@@V?$allocator@U?$format_item@DU?$char_traits@D@std@@V?$allocator@D@2@@detail@io@boost@@@std@@@std@@QBEIXZ 1000d0e0 f i Face.obj
 0001:0000c110       ??0?$basic_altstringbuf@DU?$char_traits@D@std@@V?$allocator@D@2@@io@boost@@QAE@H@Z 1000d110 f i Face.obj
 0001:0000c160       ??0?$optional@Vlocale@std@@@boost@@QAE@XZ 1000d160 f i Face.obj
 0001:0000c160       ??0?$optional@V?$basic_string@DU?$char_traits@D@std@@V?$allocator@D@2@@std@@@boost@@QAE@XZ 1000d160 f i JsonWriter.obj
 0001:0000c1a0       ??0?$vector@_NV?$allocator@_N@std@@@std@@QAE@XZ 1000d1a0 f i Face.obj
 0001:0000c1c0       ??0?$refcount_ptr@Uerror_info_container@exception_detail@boost@@@exception_detail@boost@@QAE@ABV012@@Z 1000d1c0 f i Face.obj
 0001:0000c1f0       ?_Calculate_growth@?$basic_string@_WU?$char_traits@_W@std@@V?$allocator@_W@2@@std@@QBEII@Z 1000d1f0 f i Face.obj
 0001:0000c280       ?end@?$basic_string@DU?$char_traits@D@std@@V?$allocator@D@2@@std@@QBE?AV?$_String_const_iterator@V?$_String_val@U?$_Simple_types@D@std@@@std@@@2@XZ 1000d280 f i Face.obj
 0001:0000c300       ?begin@?$basic_string@DU?$char_traits@D@std@@V?$allocator@D@2@@std@@QBE?AV?$_String_const_iterator@V?$_String_val@U?$_Simple_types@D@std@@@std@@@2@XZ 1000d300 f i Face.obj
 0001:0000c370       ?allocate@?$allocator@D@std@@QAEPADIPBX@Z 1000d370 f i Face.obj
 0001:0000c390       ??0?$clone_impl@U?$error_info_injector@Vbad_format_string@io@boost@@@exception_detail@boost@@@exception_detail@boost@@AAE@ABV012@Uclone_tag@012@@Z 1000d390 f i Face.obj
 0001:0000c4a0       ?get@?$unique_ptr@V_Facet_base@std@@U?$default_delete@V_Facet_base@std@@@2@@std@@QBEPAV_Facet_base@2@XZ 1000d4a0 f i Face.obj
 0001:0000c4c0       ??R?$default_delete@V_Facet_base@std@@@std@@QBEXPAV_Facet_base@1@@Z 1000d4c0 f i Face.obj
 0001:0000c530       ??0?$optional_base@Vlocale@std@@@optional_detail@boost@@IAE@XZ 1000d530 f i Face.obj
 0001:0000c530       ??0?$optional_base@V?$basic_string@DU?$char_traits@D@std@@V?$allocator@D@2@@std@@@optional_detail@boost@@IAE@XZ 1000d530 f i JsonWriter.obj
 0001:0000c550       ??0?$_Vb_val@V?$allocator@_N@std@@@std@@QAE@XZ 1000d550 f i Face.obj
 0001:0000c5b0       ??0clone_base@exception_detail@boost@@QAE@XZ 1000d5b0 f i Face.obj
 0001:0000c5d0       ?parse@?$basic_format@DU?$char_traits@D@std@@V?$allocator@D@2@@boost@@QAEAAV12@ABV?$basic_string@DU?$char_traits@D@std@@V?$allocator@D@2@@std@@@Z 1000d5d0 f i Face.obj
 0001:0000cac0       ?size@?$basic_format@DU?$char_traits@D@std@@V?$allocator@D@2@@boost@@QBEIXZ 1000dac0 f i Face.obj
 0001:0000cb80       ?exceptions@?$basic_format@DU?$char_traits@D@std@@V?$allocator@D@2@@boost@@QBEEXZ 1000db80 f i Face.obj
 0001:0000cba0       ??$_Traits_find_last_of@U?$char_traits@D@std@@@std@@YAIQBDII0IU?$integral_constant@_N$0A@@0@@Z 1000dba0 f i Face.obj
 0001:0000cc20       ??$?0U?$default_delete@V_Facet_base@std@@@std@@$0A@@?$unique_ptr@V_Facet_base@std@@U?$default_delete@V_Facet_base@std@@@2@@std@@QAE@PAV_Facet_base@1@@Z 1000dc20 f i Face.obj
 0001:0000cc70       ??$_Convert_Source_to_wide@V?$basic_string_view@_WU?$char_traits@_W@std@@@std@@U_Normal_conversion@filesystem@2@@filesystem@std@@YA?AV?$basic_string@_WU?$char_traits@_W@std@@V?$allocator@_W@2@@1@ABV?$basic_string_view@_WU?$char_traits@_W@std@@@1@U_Normal_conversion@01@@Z 1000dc70 f i Face.obj
 0001:0000ccc0       ??$_Stringoid_from_Source@_WU?$char_traits@_W@std@@@filesystem@std@@YA?AV?$basic_string_view@_WU?$char_traits@_W@std@@@1@ABV21@@Z 1000dcc0 f i Face.obj
 0001:0000ccf0       ??$assign@V?$basic_string_view@_WU?$char_traits@_W@std@@@std@@X@?$basic_string@_WU?$char_traits@_W@std@@V?$allocator@_W@2@@std@@QAEAAV01@ABV?$basic_string_view@_WU?$char_traits@_W@std@@@1@@Z 1000dcf0 f i Face.obj
 0001:0000cd50       ??$throw_exception@Vtoo_few_args@io@boost@@@boost@@YAXABVtoo_few_args@io@0@@Z 1000dd50 f i Face.obj
 0001:0000cde0       ??$enable_error_info@Vbad_format_string@io@boost@@@boost@@YA?AU?$error_info_injector@Vbad_format_string@io@boost@@@exception_detail@0@ABVbad_format_string@io@0@@Z 1000dde0 f i Face.obj
 0001:0000ce10       ??$enable_current_exception@U?$error_info_injector@Vbad_format_string@io@boost@@@exception_detail@boost@@@boost@@YA?AV?$clone_impl@U?$error_info_injector@Vbad_format_string@io@boost@@@exception_detail@boost@@@exception_detail@0@ABU?$error_info_injector@Vbad_format_string@io@boost@@@20@@Z 1000de10 f i Face.obj
 0001:0000ce40       ??$feed@DU?$char_traits@D@std@@V?$allocator@D@2@ABV?$basic_string@DU?$char_traits@D@std@@V?$allocator@D@2@@2@@detail@io@boost@@YAAAV?$basic_format@DU?$char_traits@D@std@@V?$allocator@D@2@@2@AAV32@ABV?$basic_string@DU?$char_traits@D@std@@V?$allocator@D@2@@std@@@Z 1000de40 f i Face.obj
 0001:0000ce70       ??$feed@DU?$char_traits@D@std@@V?$allocator@D@2@ABH@detail@io@boost@@YAAAV?$basic_format@DU?$char_traits@D@std@@V?$allocator@D@2@@2@AAV32@ABH@Z 1000de70 f i Face.obj
 0001:0000cea0       ??$_Assign_range@PAV?$Rect_@H@cv@@@?$vector@V?$Rect_@H@cv@@V?$allocator@V?$Rect_@H@cv@@@std@@@std@@AAEXPAV?$Rect_@H@cv@@0Uforward_iterator_tag@1@@Z 1000dea0 f i Face.obj
 0001:0000d050       ??$_Get_size_of_n@$03@std@@YAII@Z 1000e050 f i Face.obj
 0001:0000d080       ??$_Destroy_range1@V?$allocator@U?$format_item@DU?$char_traits@D@std@@V?$allocator@D@2@@detail@io@boost@@@std@@@std@@YAXPAU?$format_item@DU?$char_traits@D@std@@V?$allocator@D@2@@detail@io@boost@@0AAV?$allocator@U?$format_item@DU?$char_traits@D@std@@V?$allocator@D@2@@detail@io@boost@@@0@U?$integral_constant@_N$0A@@0@@Z 1000e080 f i Face.obj
 0001:0000d0c0       ??1?$format_item@DU?$char_traits@D@std@@V?$allocator@D@2@@detail@io@boost@@QAE@XZ 1000e0c0 f i Face.obj
 0001:0000d0f0       ??_D?$clone_impl@U?$error_info_injector@Vtoo_few_args@io@boost@@@exception_detail@boost@@@exception_detail@boost@@QAEXXZ 1000e0f0 f i Face.obj
 0001:0000d110       ??0?$clone_impl@U?$error_info_injector@Vtoo_few_args@io@boost@@@exception_detail@boost@@@exception_detail@boost@@QAE@ABV012@@Z 1000e110 f i Face.obj
 0001:0000d1e0       ??0?$error_info_injector@Vtoo_few_args@io@boost@@@exception_detail@boost@@QAE@ABU012@@Z 1000e1e0 f i Face.obj
 0001:0000d260       ??0too_few_args@io@boost@@QAE@ABV012@@Z 1000e260 f i Face.obj
 0001:0000d2a0       ??1?$stream_format_state@DU?$char_traits@D@std@@@detail@io@boost@@QAE@XZ 1000e2a0 f i Face.obj
 0001:0000d2c0       ??_G?$clone_impl@U?$error_info_injector@Vtoo_few_args@io@boost@@@exception_detail@boost@@@exception_detail@boost@@UAEPAXI@Z 1000e2c0 f i Face.obj
 0001:0000d2c0       ??_E?$clone_impl@U?$error_info_injector@Vtoo_few_args@io@boost@@@exception_detail@boost@@@exception_detail@boost@@UAEPAXI@Z 1000e2c0 f i * CIL library *:* CIL module *
 0001:0000d2f0       ??_G?$error_info_injector@Vtoo_few_args@io@boost@@@exception_detail@boost@@UAEPAXI@Z 1000e2f0 f i Face.obj
 0001:0000d2f0       ??_E?$error_info_injector@Vtoo_few_args@io@boost@@@exception_detail@boost@@UAEPAXI@Z 1000e2f0 f i * CIL library *:* CIL module *
 0001:0000d320       ?rethrow@?$clone_impl@U?$error_info_injector@Vtoo_few_args@io@boost@@@exception_detail@boost@@@exception_detail@boost@@EBEXXZ 1000e320 f i Face.obj
 0001:0000d350       ?clone@?$clone_impl@U?$error_info_injector@Vtoo_few_args@io@boost@@@exception_detail@boost@@@exception_detail@boost@@EBEPBVclone_base@23@XZ 1000e350 f i Face.obj
 0001:0000d400       ??1?$clone_impl@U?$error_info_injector@Vtoo_few_args@io@boost@@@exception_detail@boost@@@exception_detail@boost@@UAE@XZ 1000e400 f i Face.obj
 0001:0000d460       ??1?$error_info_injector@Vtoo_few_args@io@boost@@@exception_detail@boost@@UAE@XZ 1000e460 f i Face.obj
 0001:0000d4a0       ??0?$clone_impl@U?$error_info_injector@Vbad_format_string@io@boost@@@exception_detail@boost@@@exception_detail@boost@@QAE@ABU?$error_info_injector@Vbad_format_string@io@boost@@@12@@Z 1000e4a0 f i Face.obj
 0001:0000d5b0       ??0?$error_info_injector@Vbad_format_string@io@boost@@@exception_detail@boost@@QAE@ABVbad_format_string@io@2@@Z 1000e5b0 f i Face.obj
 0001:0000d630       ?resize@?$vector@U?$format_item@DU?$char_traits@D@std@@V?$allocator@D@2@@detail@io@boost@@V?$allocator@U?$format_item@DU?$char_traits@D@std@@V?$allocator@D@2@@detail@io@boost@@@std@@@std@@QAEXIABU?$format_item@DU?$char_traits@D@std@@V?$allocator@D@2@@detail@io@boost@@@Z 1000e630 f i Face.obj
 0001:0000d6b0       ??0?$format_item@DU?$char_traits@D@std@@V?$allocator@D@2@@detail@io@boost@@QAE@D@Z 1000e6b0 f i Face.obj
 0001:0000d750       ?_Calculate_growth@?$vector@V?$Rect_@H@cv@@V?$allocator@V?$Rect_@H@cv@@@std@@@std@@ABEII@Z 1000e750 f i Face.obj
 0001:0000d7a0       ??G?$_String_const_iterator@V?$_String_val@U?$_Simple_types@D@std@@@std@@@std@@QBEHABV01@@Z 1000e7a0 f i Face.obj
 0001:0000d7d0       ??H?$_String_const_iterator@V?$_String_val@U?$_Simple_types@D@std@@@std@@@std@@QBE?AV01@H@Z 1000e7d0 f i Face.obj
 0001:0000d820       ?find@?$basic_string@DU?$char_traits@D@std@@V?$allocator@D@2@@std@@QBEIDI@Z 1000e820 f i Face.obj
 0001:0000d890       ??0?$clone_impl@U?$error_info_injector@Vtoo_few_args@io@boost@@@exception_detail@boost@@@exception_detail@boost@@AAE@ABV012@Uclone_tag@012@@Z 1000e890 f i Face.obj
 0001:0000d9a0       ?_Ufill@?$vector@U?$format_item@DU?$char_traits@D@std@@V?$allocator@D@2@@detail@io@boost@@V?$allocator@U?$format_item@DU?$char_traits@D@std@@V?$allocator@D@2@@detail@io@boost@@@std@@@std@@AAEPAU?$format_item@DU?$char_traits@D@std@@V?$allocator@D@2@@detail@io@boost@@PAU3456@IABU3456@@Z 1000e9a0 f i Face.obj
 0001:0000d9d0       ??0?$stream_format_state@DU?$char_traits@D@std@@@detail@io@boost@@QAE@D@Z 1000e9d0 f i Face.obj
 0001:0000da30       ?max_streamsize@?$format_item@DU?$char_traits@D@std@@V?$allocator@D@2@@detail@io@boost@@SA_JXZ 1000ea30 f i Face.obj
 0001:0000da40       ?getloc@?$basic_format@DU?$char_traits@D@std@@V?$allocator@D@2@@boost@@QBE?AVlocale@std@@XZ 1000ea40 f i Face.obj
 0001:0000db00       ?make_or_reuse_data@?$basic_format@DU?$char_traits@D@std@@V?$allocator@D@2@@boost@@AAEXI@Z 1000eb00 f i Face.obj
 0001:0000dc80       ?compute_states@?$format_item@DU?$char_traits@D@std@@V?$allocator@D@2@@detail@io@boost@@QAEXXZ 1000ec80 f i Face.obj
 0001:0000dd30       ?reset@?$stream_format_state@DU?$char_traits@D@std@@@detail@io@boost@@QAEXD@Z 1000ed30 f i Face.obj
 0001:0000dd90       ??$upper_bound_from_fstring@V?$basic_string@DU?$char_traits@D@std@@V?$allocator@D@2@@std@@V?$ctype@D@2@@detail@io@boost@@YAHABV?$basic_string@DU?$char_traits@D@std@@V?$allocator@D@2@@std@@DABV?$ctype@D@4@E@Z 1000ed90 f i Face.obj
 0001:0000df30       ??$append_string@V?$basic_string@DU?$char_traits@D@std@@V?$allocator@D@2@@std@@@detail@io@boost@@YAXAAV?$basic_string@DU?$char_traits@D@std@@V?$allocator@D@2@@std@@ABV34@II@Z 1000ef30 f i Face.obj
 0001:0000df90       ??$parse_printf_directive@DU?$char_traits@D@std@@V?$allocator@D@2@V?$_String_const_iterator@V?$_String_val@U?$_Simple_types@D@std@@@std@@@2@V?$ctype@D@2@@detail@io@boost@@YA_NAAV?$_String_const_iterator@V?$_String_val@U?$_Simple_types@D@std@@@std@@@std@@ABV34@PAU?$format_item@DU?$char_traits@D@std@@V?$allocator@D@2@@012@ABV?$ctype@D@4@IE@Z 1000ef90 f i Face.obj
 0001:0000eb60       ??$?0PAV_Facet_base@std@@@?$_Unique_ptr_base@V_Facet_base@std@@U?$default_delete@V_Facet_base@std@@@2@@std@@QAE@PAV_Facet_base@1@@Z 1000fb60 f i Face.obj
 0001:0000eb90       ??$_Convert_stringoid_to_wide@U_Normal_conversion@filesystem@std@@@filesystem@std@@YA?AV?$basic_string@_WU?$char_traits@_W@std@@V?$allocator@_W@2@@1@V?$basic_string_view@_WU?$char_traits@_W@std@@@1@U_Normal_conversion@01@@Z 1000fb90 f i Face.obj
 0001:0000ebd0       ??$enable_error_info@Vtoo_few_args@io@boost@@@boost@@YA?AU?$error_info_injector@Vtoo_few_args@io@boost@@@exception_detail@0@ABVtoo_few_args@io@0@@Z 1000fbd0 f i Face.obj
 0001:0000ec00       ??$enable_current_exception@U?$error_info_injector@Vtoo_few_args@io@boost@@@exception_detail@boost@@@boost@@YA?AV?$clone_impl@U?$error_info_injector@Vtoo_few_args@io@boost@@@exception_detail@boost@@@exception_detail@0@ABU?$error_info_injector@Vtoo_few_args@io@boost@@@20@@Z 1000fc00 f i Face.obj
 0001:0000ec30       ??$?0$$CBV?$basic_string@DU?$char_traits@D@std@@V?$allocator@D@2@@std@@@?$put_holder@DU?$char_traits@D@std@@@detail@io@boost@@QAE@ABV?$basic_string@DU?$char_traits@D@std@@V?$allocator@D@2@@std@@@Z 1000fc30 f i Face.obj
 0001:0000ec60       ??$feed_impl@DU?$char_traits@D@std@@V?$allocator@D@2@ABU?$put_holder@DU?$char_traits@D@std@@@detail@io@boost@@@detail@io@boost@@YAAAV?$basic_format@DU?$char_traits@D@std@@V?$allocator@D@2@@2@AAV32@ABU?$put_holder@DU?$char_traits@D@std@@@012@@Z 1000fc60 f i Face.obj
 0001:0000ed00       ??$?0$$CBH@?$put_holder@DU?$char_traits@D@std@@@detail@io@boost@@QAE@ABH@Z 1000fd00 f i Face.obj
 0001:0000ed30       ??$distance@PAV?$Rect_@H@cv@@@std@@YAHPAV?$Rect_@H@cv@@0@Z 1000fd30 f i Face.obj
 0001:0000ed50       ??$next@PAV?$Rect_@H@cv@@@std@@YAPAV?$Rect_@H@cv@@PAV12@H@Z 1000fd50 f i Face.obj
 0001:0000ed70       ??$_Copy_unchecked@PAV?$Rect_@H@cv@@PAV12@@std@@YAPAV?$Rect_@H@cv@@PAV12@00@Z 1000fd70 f i Face.obj
 0001:0000edb0       ??$destroy@U?$format_item@DU?$char_traits@D@std@@V?$allocator@D@2@@detail@io@boost@@@?$_Default_allocator_traits@V?$allocator@U?$format_item@DU?$char_traits@D@std@@V?$allocator@D@2@@detail@io@boost@@@std@@@std@@SAXAAV?$allocator@U?$format_item@DU?$char_traits@D@std@@V?$allocator@D@2@@detail@io@boost@@@1@QAU?$format_item@DU?$char_traits@D@std@@V?$allocator@D@2@@detail@io@boost@@@Z 1000fdb0 f i Face.obj
 0001:0000efc0       ??$_Traits_find_ch@U?$char_traits@D@std@@@std@@YAIQBDIID@Z 1000ffc0 f i Face.obj
 0001:0000f000       ??$_Uninitialized_fill_n@PAU?$format_item@DU?$char_traits@D@std@@V?$allocator@D@2@@detail@io@boost@@IV?$allocator@U?$format_item@DU?$char_traits@D@std@@V?$allocator@D@2@@detail@io@boost@@@std@@@std@@YAPAU?$format_item@DU?$char_traits@D@std@@V?$allocator@D@2@@detail@io@boost@@QAU1234@IABU1234@AAV?$allocator@U?$format_item@DU?$char_traits@D@std@@V?$allocator@D@2@@detail@io@boost@@@0@@Z 10010000 f i Face.obj
 0001:0000f030       ??_G?$format_item@DU?$char_traits@D@std@@V?$allocator@D@2@@detail@io@boost@@QAEPAXI@Z 10010030 f i Face.obj
 0001:0000f060       ??0?$clone_impl@U?$error_info_injector@Vtoo_few_args@io@boost@@@exception_detail@boost@@@exception_detail@boost@@QAE@ABU?$error_info_injector@Vtoo_few_args@io@boost@@@12@@Z 10010060 f i Face.obj
 0001:0000f170       ??0?$error_info_injector@Vtoo_few_args@io@boost@@@exception_detail@boost@@QAE@ABVtoo_few_args@io@2@@Z 10010170 f i Face.obj
 0001:0000f1f0       ?_Change_array@?$vector@U?$format_item@DU?$char_traits@D@std@@V?$allocator@D@2@@detail@io@boost@@V?$allocator@U?$format_item@DU?$char_traits@D@std@@V?$allocator@D@2@@detail@io@boost@@@std@@@std@@AAEXQAU?$format_item@DU?$char_traits@D@std@@V?$allocator@D@2@@detail@io@boost@@II@Z 100101f0 f i Face.obj
 0001:0000f290       ?_Calculate_growth@?$vector@U?$format_item@DU?$char_traits@D@std@@V?$allocator@D@2@@detail@io@boost@@V?$allocator@U?$format_item@DU?$char_traits@D@std@@V?$allocator@D@2@@detail@io@boost@@@std@@@std@@ABEII@Z 10010290 f i Face.obj
 0001:0000f2e0       ?_Umove_if_noexcept@?$vector@U?$format_item@DU?$char_traits@D@std@@V?$allocator@D@2@@detail@io@boost@@V?$allocator@U?$format_item@DU?$char_traits@D@std@@V?$allocator@D@2@@detail@io@boost@@@std@@@std@@AAEXPAU?$format_item@DU?$char_traits@D@std@@V?$allocator@D@2@@detail@io@boost@@00@Z 100102e0 f i Face.obj
 0001:0000f310       ?max_size@?$vector@U?$format_item@DU?$char_traits@D@std@@V?$allocator@D@2@@detail@io@boost@@V?$allocator@U?$format_item@DU?$char_traits@D@std@@V?$allocator@D@2@@detail@io@boost@@@std@@@std@@QBEIXZ 10010310 f i Face.obj
 0001:0000f350       ?assign@?$vector@U?$format_item@DU?$char_traits@D@std@@V?$allocator@D@2@@detail@io@boost@@V?$allocator@U?$format_item@DU?$char_traits@D@std@@V?$allocator@D@2@@detail@io@boost@@@std@@@std@@QAEXIABU?$format_item@DU?$char_traits@D@std@@V?$allocator@D@2@@detail@io@boost@@@Z 10010350 f i Face.obj
 0001:0000f4e0       ?allocate@?$allocator@U?$format_item@DU?$char_traits@D@std@@V?$allocator@D@2@@detail@io@boost@@@std@@QAEPAU?$format_item@DU?$char_traits@D@std@@V?$allocator@D@2@@detail@io@boost@@I@Z 100104e0 f i Face.obj
 0001:0000f510       ??B?$optional@V?$basic_string@DU?$char_traits@D@std@@V?$allocator@D@2@@std@@@boost@@QBE_NXZ 10010510 f i JsonWriter.obj
 0001:0000f510       ??B?$optional@Vlocale@std@@@boost@@QBE_NXZ 10010510 f i Face.obj
 0001:0000f540       ?get@?$optional@Vlocale@std@@@boost@@QBEABVlocale@std@@XZ 10010540 f i Face.obj
 0001:0000f580       ??A?$vector@_NV?$allocator@_N@std@@@std@@QAE?AV?$_Vb_reference@U?$_Wrap_alloc@V?$allocator@I@std@@@std@@@1@I@Z 10010580 f i Face.obj
 0001:0000f5e0       ?size@?$vector@_NV?$allocator@_N@std@@@std@@QBEIXZ 100105e0 f i Face.obj
 0001:0000f5e0       ?size_@?$multi_index_container@U?$pair@$$CBV?$basic_string@DU?$char_traits@D@std@@V?$allocator@D@2@@std@@V?$basic_ptree@V?$basic_string@DU?$char_traits@D@std@@V?$allocator@D@2@@std@@V12@U?$less@V?$basic_string@DU?$char_traits@D@std@@V?$allocator@D@2@@std@@@2@@property_tree@boost@@@std@@U?$indexed_by@U?$sequenced@U?$tag@Una@mpl@boost@@U123@U123@U123@U123@U123@U123@U123@U123@U123@U123@U123@U123@U123@U123@U123@U123@U123@U123@U123@@multi_index@boost@@@multi_index@boost@@U?$ordered_non_unique@U?$tag@Uby_name@subs@?$basic_ptree@V?$basic_string@DU?$char_traits@D@std@@V?$allocator@D@2@@std@@V12@U?$less@V?$basic_string@DU?$char_traits@D@std@@V?$allocator@D@2@@std@@@2@@property_tree@boost@@Una@mpl@5@U675@U675@U675@U675@U675@U675@U675@U675@U675@U675@U675@U675@U675@U675@U675@U675@U675@U675@@multi_index@boost@@U?$member@U?$pair@$$CBV?$basic_string@DU?$char_traits@D@std@@V?$allocator@D@2@@std@@V?$basic_ptree@V?$basic_string@DU?$char_traits@D@std@@V?$allocator@D@2@@std@@V12@U?$less@V?$basic_string@DU?$char_traits@D@std@@V?$allocator@D@2@@std@@@2@@property_tree@boost@@@std@@$$CBV?$basic_string@DU?$char_traits@D@std@@V?$allocator@D@2@@2@$0A@@23@U?$less@V?$basic_string@DU?$char_traits@D@std@@V?$allocator@D@2@@std@@@std@@@23@Una@mpl@3@U563@U563@U563@U563@U563@U563@U563@U563@U563@U563@U563@U563@U563@U563@U563@U563@U563@@multi_index@boost@@V?$allocator@U?$pair@$$CBV?$basic_string@DU?$char_traits@D@std@@V?$allocator@D@2@@std@@V?$basic_ptree@V?$basic_string@DU?$char_traits@D@std@@V?$allocator@D@2@@std@@V12@U?$less@V?$basic_string@DU?$char_traits@D@std@@V?$allocator@D@2@@std@@@2@@property_tree@boost@@@std@@@2@@multi_index@boost@@IBEIXZ 100105e0 f i JsonWriter.obj
 0001:0000f600       ?resize@?$vector@_NV?$allocator@_N@std@@@std@@QAEXI_N@Z 10010600 f i Face.obj
 0001:0000f6d0       ??P?$_String_const_iterator@V?$_String_val@U?$_Simple_types@D@std@@@std@@@std@@QBE_NABV01@@Z 100106d0 f i Face.obj
 0001:0000f710       ?max_size@?$_Default_allocator_traits@V?$allocator@U?$format_item@DU?$char_traits@D@std@@V?$allocator@D@2@@detail@io@boost@@@std@@@std@@SAIABV?$allocator@U?$format_item@DU?$char_traits@D@std@@V?$allocator@D@2@@detail@io@boost@@@2@@Z 10010710 f i Face.obj
 0001:0000f720       ?_Buy@?$vector@U?$format_item@DU?$char_traits@D@std@@V?$allocator@D@2@@detail@io@boost@@V?$allocator@U?$format_item@DU?$char_traits@D@std@@V?$allocator@D@2@@detail@io@boost@@@std@@@std@@AAE_NI@Z 10010720 f i Face.obj
 0001:0000f7d0       ?_Umove_if_noexcept1@?$vector@U?$format_item@DU?$char_traits@D@std@@V?$allocator@D@2@@detail@io@boost@@V?$allocator@U?$format_item@DU?$char_traits@D@std@@V?$allocator@D@2@@detail@io@boost@@@std@@@std@@AAEXPAU?$format_item@DU?$char_traits@D@std@@V?$allocator@D@2@@detail@io@boost@@00U?$integral_constant@_N$00@2@@Z 100107d0 f i Face.obj
 0001:0000f800       ?get_impl@?$optional_base@V?$basic_string@DU?$char_traits@D@std@@V?$allocator@D@2@@std@@@optional_detail@boost@@IAEAAV?$basic_string@DU?$char_traits@D@std@@V?$allocator@D@2@@std@@XZ 10010800 f i JsonWriter.obj
 0001:0000f800       ?get_impl@?$optional_base@Vlocale@std@@@optional_detail@boost@@IAEAAVlocale@std@@XZ 10010800 f i Face.obj
 0001:0000f800       ?get_impl@?$optional_base@Vlocale@std@@@optional_detail@boost@@IBEABVlocale@std@@XZ 10010800 f i Face.obj
 0001:0000f820       ?is_initialized@?$optional_base@V?$basic_string@DU?$char_traits@D@std@@V?$allocator@D@2@@std@@@optional_detail@boost@@QBE_NXZ 10010820 f i JsonWriter.obj
 0001:0000f820       ?is_initialized@?$optional_base@Vlocale@std@@@optional_detail@boost@@QBE_NXZ 10010820 f i Face.obj
 0001:0000f830       ??7?$optional@V?$basic_string@DU?$char_traits@D@std@@V?$allocator@D@2@@std@@@boost@@QBE_NXZ 10010830 f i JsonWriter.obj
 0001:0000f830       ??7?$optional@Vlocale@std@@@boost@@QBE_NXZ 10010830 f i Face.obj
 0001:0000f890       ?_Advance@?$_Vb_iter_base@U?$_Wrap_alloc@V?$allocator@I@std@@@std@@@std@@QAEXI@Z 10010890 f i Face.obj
 0001:0000f8e0       ??H?$_Vb_iterator@U?$_Wrap_alloc@V?$allocator@I@std@@@std@@@std@@QBE?AV01@H@Z 100108e0 f i Face.obj
 0001:0000f940       ?_Insert_n@?$vector@_NV?$allocator@_N@std@@@std@@QAE?AV?$_Vb_iterator@U?$_Wrap_alloc@V?$allocator@I@std@@@std@@@2@V?$_Vb_const_iterator@U?$_Wrap_alloc@V?$allocator@I@std@@@std@@@2@IAB_N@Z 10010940 f i Face.obj
 0001:0000f9f0       ?erase@?$vector@_NV?$allocator@_N@std@@@std@@QAE?AV?$_Vb_iterator@U?$_Wrap_alloc@V?$allocator@I@std@@@std@@@2@V?$_Vb_const_iterator@U?$_Wrap_alloc@V?$allocator@I@std@@@std@@@2@0@Z 100109f0 f i Face.obj
 0001:0000fb00       ?end@?$vector@_NV?$allocator@_N@std@@@std@@QAE?AV?$_Vb_iterator@U?$_Wrap_alloc@V?$allocator@I@std@@@std@@@2@XZ 10010b00 f i Face.obj
 0001:0000fb90       ?begin@?$vector@_NV?$allocator@_N@std@@@std@@QAE?AV?$_Vb_iterator@U?$_Wrap_alloc@V?$allocator@I@std@@@std@@@2@XZ 10010b90 f i Face.obj
 0001:0000fbe0       ??M?$_String_const_iterator@V?$_String_val@U?$_Simple_types@D@std@@@std@@@std@@QBE_NABV01@@Z 10010be0 f i Face.obj
 0001:0000fc20       ??G?$_Vb_iterator@U?$_Wrap_alloc@V?$allocator@I@std@@@std@@@std@@QBEHABV?$_Vb_const_iterator@U?$_Wrap_alloc@V?$allocator@I@std@@@std@@@1@@Z 10010c20 f i Face.obj
 0001:0000fc40       ??Y?$_Vb_iterator@U?$_Wrap_alloc@V?$allocator@I@std@@@std@@@std@@QAEAAV01@H@Z 10010c40 f i Face.obj
 0001:0000fc60       ??0?$_Vb_iterator@U?$_Wrap_alloc@V?$allocator@I@std@@@std@@@std@@QAE@PAIPAU_Container_base0@1@@Z 10010c60 f i Face.obj
 0001:0000fc80       ?data@?$vector@IV?$allocator@I@std@@@std@@QAEPAIXZ 10010c80 f i Face.obj
 0001:0000fcd0       ?_Trim@?$vector@_NV?$allocator@_N@std@@@std@@QAEXI@Z 10010cd0 f i Face.obj
 0001:0000fda0       ?_Insert_x@?$vector@_NV?$allocator@_N@std@@@std@@QAEIV?$_Vb_const_iterator@U?$_Wrap_alloc@V?$allocator@I@std@@@std@@@2@I@Z 10010da0 f i Face.obj
 0001:0000fed0       ?_Make_iter@?$vector@_NV?$allocator@_N@std@@@std@@QAE?AV?$_Vb_iterator@U?$_Wrap_alloc@V?$allocator@I@std@@@std@@@2@V?$_Vb_const_iterator@U?$_Wrap_alloc@V?$allocator@I@std@@@std@@@2@@Z 10010ed0 f i Face.obj
 0001:0000ff50       ??G?$_Vb_const_iterator@U?$_Wrap_alloc@V?$allocator@I@std@@@std@@@std@@QBEHABV01@@Z 10010f50 f i Face.obj
 0001:0000ff90       ??Y?$_Vb_const_iterator@U?$_Wrap_alloc@V?$allocator@I@std@@@std@@@std@@QAEAAV01@H@Z 10010f90 f i Face.obj
 0001:00010040       ??0?$_Vb_const_iterator@U?$_Wrap_alloc@V?$allocator@I@std@@@std@@@std@@QAE@PBIPBU_Container_base0@1@@Z 10011040 f i Face.obj
 0001:00010070       ??H?$_Vector_iterator@V?$_Vector_val@U?$_Simple_types@I@std@@@std@@@std@@QBE?AV01@H@Z 10011070 f i Face.obj
 0001:000100c0       ??A?$vector@IV?$allocator@I@std@@@std@@QAEAAII@Z 100110c0 f i Face.obj
 0001:000100f0       ?erase@?$vector@IV?$allocator@I@std@@@std@@QAE?AV?$_Vector_iterator@V?$_Vector_val@U?$_Simple_types@I@std@@@std@@@2@V?$_Vector_const_iterator@V?$_Vector_val@U?$_Simple_types@I@std@@@std@@@2@0@Z 100110f0 f i Face.obj
 0001:00010190       ?resize@?$vector@IV?$allocator@I@std@@@std@@QAEXIABI@Z 10011190 f i Face.obj
 0001:00010210       ?_Nw@?$_Vb_val@V?$allocator@_N@std@@@std@@SAII@Z 10011210 f i Face.obj
 0001:00010220       ?_Xlen@?$vector@_NV?$allocator@_N@std@@@std@@QBEXXZ 10011220 f i Face.obj
 0001:00010240       ?empty@?$vector@_NV?$allocator@_N@std@@@std@@QBE_NXZ 10011240 f i Face.obj
 0001:00010270       ?max_size@?$vector@_NV?$allocator@_N@std@@@std@@QBEIXZ 10011270 f i Face.obj
 0001:000102b0       ??Y?$_Vector_iterator@V?$_Vector_val@U?$_Simple_types@I@std@@@std@@@std@@QAEAAV01@H@Z 100112b0 f i Face.obj
 0001:000102d0       ?_Ufill@?$vector@IV?$allocator@I@std@@@std@@AAEPAIPAIIABI@Z 100112d0 f i Face.obj
 0001:00010300       ?max_size@?$vector@IV?$allocator@I@std@@@std@@QBEIXZ 10011300 f i Face.obj
 0001:00010340       ??Y?$_Vector_const_iterator@V?$_Vector_val@U?$_Simple_types@I@std@@@std@@@std@@QAEAAV01@H@Z 10011340 f i Face.obj
 0001:00010360       ?max_size@?$_Default_allocator_traits@V?$allocator@I@std@@@std@@SAIABV?$allocator@I@2@@Z 10011360 f i Face.obj
 0001:00010370       ??$?0V?$basic_string_view@_WU?$char_traits@_W@std@@@std@@X@?$basic_string@_WU?$char_traits@_W@std@@V?$allocator@_W@2@@std@@QAE@ABV?$basic_string_view@_WU?$char_traits@_W@std@@@1@ABV?$allocator@_W@1@@Z 10011370 f i Face.obj
 0001:000103e0       ?clear@?$basic_format@DU?$char_traits@D@std@@V?$allocator@D@2@@boost@@QAEAAV12@XZ 100113e0 f i Face.obj
 0001:00010530       ?reset@?$format_item@DU?$char_traits@D@std@@V?$allocator@D@2@@detail@io@boost@@QAEXD@Z 10011530 f i Face.obj
 0001:00010590       ??$wrap_scan_notdigit@V?$_String_const_iterator@V?$_String_val@U?$_Simple_types@D@std@@@std@@@std@@V?$ctype@D@2@@detail@io@boost@@YA?AV?$_String_const_iterator@V?$_String_val@U?$_Simple_types@D@std@@@std@@@std@@ABV?$ctype@D@4@V34@1@Z 10011590 f i Face.obj
 0001:000105e0       ??$append@V?$_String_const_iterator@V?$_String_val@U?$_Simple_types@D@std@@@std@@@std@@X@?$basic_string@DU?$char_traits@D@std@@V?$allocator@D@2@@std@@QAEAAV01@V?$_String_const_iterator@V?$_String_val@U?$_Simple_types@D@std@@@std@@@1@0@Z 100115e0 f i Face.obj
 0001:00010630       ??$wrap_isdigit@DV?$ctype@D@std@@@detail@io@boost@@YA_NABV?$ctype@D@std@@D@Z 10011630 f i Face.obj
 0001:00010650       ??$str2int@HV?$_String_const_iterator@V?$_String_val@U?$_Simple_types@D@std@@@std@@@std@@V?$ctype@D@2@@detail@io@boost@@YA?AV?$_String_const_iterator@V?$_String_val@U?$_Simple_types@D@std@@@std@@@std@@ABV34@0AAHABV?$ctype@D@4@@Z 10011650 f i Face.obj
 0001:00010720       ??$wrap_narrow@DV?$ctype@D@std@@@detail@io@boost@@YADABV?$ctype@D@std@@DD@Z 10011720 f i Face.obj
 0001:00010750       ??$str2int@_JV?$_String_const_iterator@V?$_String_val@U?$_Simple_types@D@std@@@std@@@std@@V?$ctype@D@2@@detail@io@boost@@YA?AV?$_String_const_iterator@V?$_String_val@U?$_Simple_types@D@std@@@std@@@std@@ABV34@0AA_JABV?$ctype@D@4@@Z 10011750 f i Face.obj
 0001:00010840       ??$?0AAPAV_Facet_base@std@@@?$_Compressed_pair@U?$default_delete@V_Facet_base@std@@@std@@PAV_Facet_base@2@$00@std@@QAE@U_Zero_then_variadic_args_t@1@AAPAV_Facet_base@1@@Z 10011840 f i Face.obj
 0001:00010870       ??$call_put_head@DU?$char_traits@D@std@@$$CBV?$basic_string@DU?$char_traits@D@std@@V?$allocator@D@2@@2@@detail@io@boost@@YAXAAV?$basic_ostream@DU?$char_traits@D@std@@@std@@PBX@Z 10011870 f i Face.obj
 0001:00010870       ??$call_put_head@DU?$char_traits@D@std@@$$CBH@detail@io@boost@@YAXAAV?$basic_ostream@DU?$char_traits@D@std@@@std@@PBX@Z 10011870 f i Face.obj
 0001:00010890       ??$call_put_last@DU?$char_traits@D@std@@$$CBV?$basic_string@DU?$char_traits@D@std@@V?$allocator@D@2@@2@@detail@io@boost@@YAXAAV?$basic_ostream@DU?$char_traits@D@std@@@std@@PBX@Z 10011890 f i Face.obj
 0001:000108b0       ??$distribute@DU?$char_traits@D@std@@V?$allocator@D@2@ABU?$put_holder@DU?$char_traits@D@std@@@detail@io@boost@@@detail@io@boost@@YAXAAV?$basic_format@DU?$char_traits@D@std@@V?$allocator@D@2@@2@ABU?$put_holder@DU?$char_traits@D@std@@@012@@Z 100118b0 f i Face.obj
 0001:000109c0       ??$call_put_last@DU?$char_traits@D@std@@$$CBH@detail@io@boost@@YAXAAV?$basic_ostream@DU?$char_traits@D@std@@@std@@PBX@Z 100119c0 f i Face.obj
 0001:000109e0       ??$_Distance1@PAV?$Rect_@H@cv@@@std@@YAHPAV?$Rect_@H@cv@@0Urandom_access_iterator_tag@0@@Z 100119e0 f i Face.obj
 0001:000109f0       ??$advance@PAV?$Rect_@H@cv@@H@std@@YAXAAPAV?$Rect_@H@cv@@H@Z 100119f0 f i Face.obj
 0001:00010a10       ??$_Copy_unchecked1@PAV?$Rect_@H@cv@@PAV12@@std@@YAPAV?$Rect_@H@cv@@PAV12@00U_General_ptr_iterator_tag@0@@Z 10011a10 f i Face.obj
 0001:00010a50       ??$_Uninit_alloc_fill_n1@PAU?$format_item@DU?$char_traits@D@std@@V?$allocator@D@2@@detail@io@boost@@IV?$allocator@U?$format_item@DU?$char_traits@D@std@@V?$allocator@D@2@@detail@io@boost@@@std@@@std@@YAPAU?$format_item@DU?$char_traits@D@std@@V?$allocator@D@2@@detail@io@boost@@QAU1234@IABU1234@AAV?$allocator@U?$format_item@DU?$char_traits@D@std@@V?$allocator@D@2@@detail@io@boost@@@0@U?$integral_constant@_N$0A@@0@@Z 10011a50 f i Face.obj
 0001:00010af0       ??$_Fill_unchecked@PAU?$format_item@DU?$char_traits@D@std@@V?$allocator@D@2@@detail@io@boost@@U1234@@std@@YAXPAU?$format_item@DU?$char_traits@D@std@@V?$allocator@D@2@@detail@io@boost@@0ABU1234@@Z 10011af0 f i Face.obj
 0001:00010b30       ??$_Get_size_of_n@$0HI@@std@@YAII@Z 10011b30 f i Face.obj
 0001:00010b60       ??$_Uninitialized_move@PAU?$format_item@DU?$char_traits@D@std@@V?$allocator@D@2@@detail@io@boost@@PAU1234@V?$allocator@U?$format_item@DU?$char_traits@D@std@@V?$allocator@D@2@@detail@io@boost@@@std@@@std@@YAPAU?$format_item@DU?$char_traits@D@std@@V?$allocator@D@2@@detail@io@boost@@QAU1234@0PAU1234@AAV?$allocator@U?$format_item@DU?$char_traits@D@std@@V?$allocator@D@2@@detail@io@boost@@@0@@Z 10011b60 f i Face.obj
 0001:00010c00       ??$fill@V?$_Vb_iterator@U?$_Wrap_alloc@V?$allocator@I@std@@@std@@@std@@_N@std@@YAXV?$_Vb_iterator@U?$_Wrap_alloc@V?$allocator@I@std@@@std@@@0@0AB_N@Z 10011c00 f i Face.obj
 0001:00010c50       ??$copy@V?$_Vb_iterator@U?$_Wrap_alloc@V?$allocator@I@std@@@std@@@std@@V12@@std@@YA?AV?$_Vb_iterator@U?$_Wrap_alloc@V?$allocator@I@std@@@std@@@0@V10@00@Z 10011c50 f i Face.obj
 0001:00010ca0       ??$copy_backward@V?$_Vb_iterator@U?$_Wrap_alloc@V?$allocator@I@std@@@std@@@std@@V12@@std@@YA?AV?$_Vb_iterator@U?$_Wrap_alloc@V?$allocator@I@std@@@std@@@0@V10@00@Z 10011ca0 f i Face.obj
 0001:00010db0       ??$_Unchecked_n@V?$_Vb_iterator@U?$_Wrap_alloc@V?$allocator@I@std@@@std@@@std@@U_Distance_unknown@2@@std@@YA?AV?$_Vb_iterator@U?$_Wrap_alloc@V?$allocator@I@std@@@std@@@0@V10@U_Distance_unknown@0@@Z 10011db0 f i Face.obj
 0001:00010db0       ??$_Unchecked_n_backward@V?$_Vb_iterator@U?$_Wrap_alloc@V?$allocator@I@std@@@std@@@std@@U_Distance_unknown@2@@std@@YA?AV?$_Vb_iterator@U?$_Wrap_alloc@V?$allocator@I@std@@@std@@@0@V10@U_Distance_unknown@0@@Z 10011db0 f i Face.obj
 0001:00010dd0       ??$_Move_unchecked@PAIPAI@std@@YAPAIPAI00@Z 10011dd0 f i Face.obj
 0001:00011010       ??$_Uninitialized_fill_n@PAIIV?$allocator@I@std@@@std@@YAPAIQAIIABIAAV?$allocator@I@0@@Z 10012010 f i Face.obj
 0001:00011040       ??1?$_Uninitialized_backout_al@PAU?$format_item@DU?$char_traits@D@std@@V?$allocator@D@2@@detail@io@boost@@V?$allocator@U?$format_item@DU?$char_traits@D@std@@V?$allocator@D@2@@detail@io@boost@@@std@@@std@@QAE@XZ 10012040 f i Face.obj
 0001:000110a0       ?_Change_array@?$vector@IV?$allocator@I@std@@@std@@AAEXQAIII@Z 100120a0 f i Face.obj
 0001:00011140       ?_Calculate_growth@?$vector@IV?$allocator@I@std@@@std@@ABEII@Z 10012140 f i Face.obj
 0001:00011190       ?_Umove_if_noexcept@?$vector@IV?$allocator@I@std@@@std@@AAEXPAI00@Z 10012190 f i Face.obj
 0001:000111c0       ?allocate@?$allocator@I@std@@QAEPAII@Z 100121c0 f i Face.obj
 0001:000111f0       ?_Umove_if_noexcept1@?$vector@IV?$allocator@I@std@@@std@@AAEXPAI00U?$integral_constant@_N$00@2@@Z 100121f0 f i Face.obj
 0001:00011220       ??$replace@V?$_String_const_iterator@V?$_String_val@U?$_Simple_types@D@std@@@std@@@std@@X@?$basic_string@DU?$char_traits@D@std@@V?$allocator@D@2@@std@@QAEAAV01@V?$_String_const_iterator@V?$_String_val@U?$_Simple_types@D@std@@@std@@@1@000@Z 10012220 f i Face.obj
 0001:00011270       ??$put_last@DU?$char_traits@D@std@@V?$basic_string@DU?$char_traits@D@std@@V?$allocator@D@2@@2@@detail@io@boost@@YAXAAV?$basic_ostream@DU?$char_traits@D@std@@@std@@ABV?$basic_string@DU?$char_traits@D@std@@V?$allocator@D@2@@4@@Z 10012270 f i Face.obj
 0001:00011290       ??$throw_exception@Vtoo_many_args@io@boost@@@boost@@YAXABVtoo_many_args@io@0@@Z 10012290 f i Face.obj
 0001:00011320       ??$get_pointer@Vlocale@std@@@boost@@YAPAVlocale@std@@AAV?$optional@Vlocale@std@@@0@@Z 10012320 f i Face.obj
 0001:00011330       ??$put@DU?$char_traits@D@std@@V?$allocator@D@2@ABU?$put_holder@DU?$char_traits@D@std@@@detail@io@boost@@@detail@io@boost@@YAXABU?$put_holder@DU?$char_traits@D@std@@@012@ABU?$format_item@DU?$char_traits@D@std@@V?$allocator@D@2@@012@AAV?$basic_string@DU?$char_traits@D@std@@V?$allocator@D@2@@std@@AAV?$basic_altstringbuf@DU?$char_traits@D@std@@V?$allocator@D@2@@12@PAVlocale@6@@Z 10012330 f i Face.obj
 0001:00011b00       ??$put_last@DU?$char_traits@D@std@@H@detail@io@boost@@YAXAAV?$basic_ostream@DU?$char_traits@D@std@@@std@@ABH@Z 10012b00 f i Face.obj
 0001:00011b20       ??$_Advance1@PAV?$Rect_@H@cv@@H@std@@YAXAAPAV?$Rect_@H@cv@@HUrandom_access_iterator_tag@0@@Z 10012b20 f i Face.obj
 0001:00011b40       ??$_Emplace_back@ABU?$format_item@DU?$char_traits@D@std@@V?$allocator@D@2@@detail@io@boost@@@?$_Uninitialized_backout_al@PAU?$format_item@DU?$char_traits@D@std@@V?$allocator@D@2@@detail@io@boost@@V?$allocator@U?$format_item@DU?$char_traits@D@std@@V?$allocator@D@2@@detail@io@boost@@@std@@@std@@QAEXABU?$format_item@DU?$char_traits@D@std@@V?$allocator@D@2@@detail@io@boost@@@Z 10012b40 f i Face.obj
 0001:00011b90       ??$_Fill_unchecked1@PAU?$format_item@DU?$char_traits@D@std@@V?$allocator@D@2@@detail@io@boost@@U1234@@std@@YAXPAU?$format_item@DU?$char_traits@D@std@@V?$allocator@D@2@@detail@io@boost@@0ABU1234@U?$integral_constant@_N$0A@@0@@Z 10012b90 f i Face.obj
 0001:00011bc0       ??$_Uninitialized_move_al_unchecked@PAU?$format_item@DU?$char_traits@D@std@@V?$allocator@D@2@@detail@io@boost@@PAU1234@V?$allocator@U?$format_item@DU?$char_traits@D@std@@V?$allocator@D@2@@detail@io@boost@@@std@@@std@@YAPAU?$format_item@DU?$char_traits@D@std@@V?$allocator@D@2@@detail@io@boost@@PAU1234@QAU1234@1AAV?$allocator@U?$format_item@DU?$char_traits@D@std@@V?$allocator@D@2@@detail@io@boost@@@0@U_General_ptr_iterator_tag@0@U_Unused_parameter@0@@Z 10012bc0 f i Face.obj
 0001:00011c70       ??$_Unchecked@V?$_Vb_iterator@U?$_Wrap_alloc@V?$allocator@I@std@@@std@@@std@@@std@@YA?AV?$_Vb_iterator@U?$_Wrap_alloc@V?$allocator@I@std@@@std@@@0@V10@@Z 10012c70 f i Face.obj
 0001:00011c70       ??$_Rechecked@V?$_Vb_iterator@U?$_Wrap_alloc@V?$allocator@I@std@@@std@@@std@@V12@@std@@YAAAV?$_Vb_iterator@U?$_Wrap_alloc@V?$allocator@I@std@@@std@@@0@AAV10@V10@@Z 10012c70 f i Face.obj
 0001:00011c90       ??$_Fill_unchecked@V?$_Vb_iterator@U?$_Wrap_alloc@V?$allocator@I@std@@@std@@@std@@_N@std@@YAXV?$_Vb_iterator@U?$_Wrap_alloc@V?$allocator@I@std@@@std@@@0@0AB_N@Z 10012c90 f i Face.obj
 0001:00011cd0       ??$_Copy_no_deprecate@V?$_Vb_iterator@U?$_Wrap_alloc@V?$allocator@I@std@@@std@@@std@@V12@@std@@YA?AV?$_Vb_iterator@U?$_Wrap_alloc@V?$allocator@I@std@@@std@@@0@V10@00@Z 10012cd0 f i Face.obj
 0001:00011db0       ??$_Copy_backward_unchecked@V?$_Vb_iterator@U?$_Wrap_alloc@V?$allocator@I@std@@@std@@@std@@V12@@std@@YA?AV?$_Vb_iterator@U?$_Wrap_alloc@V?$allocator@I@std@@@std@@@0@V10@00U_General_ptr_iterator_tag@0@@Z 10012db0 f i Face.obj
 0001:00011e20       ??$_Ptr_move_cat@II@std@@YA?AU_Really_trivial_ptr_iterator_tag@0@ABQAI0@Z 10012e20 f i Face.obj
 0001:00011e20       ??$_Ptr_move_cat@U?$copy_map_entry@U?$sequenced_index_node@U?$ordered_index_node@Unull_augment_policy@detail@multi_index@boost@@U?$index_node_base@U?$pair@$$CBV?$basic_string@DU?$char_traits@D@std@@V?$allocator@D@2@@std@@V?$basic_ptree@V?$basic_string@DU?$char_traits@D@std@@V?$allocator@D@2@@std@@V12@U?$less@V?$basic_string@DU?$char_traits@D@std@@V?$allocator@D@2@@std@@@2@@property_tree@boost@@@std@@V?$allocator@U?$pair@$$CBV?$basic_string@DU?$char_traits@D@std@@V?$allocator@D@2@@std@@V?$basic_ptree@V?$basic_string@DU?$char_traits@D@std@@V?$allocator@D@2@@std@@V12@U?$less@V?$basic_string@DU?$char_traits@D@std@@V?$allocator@D@2@@std@@@2@@property_tree@boost@@@std@@@2@@234@@detail@multi_index@boost@@@detail@multi_index@boost@@@detail@multi_index@boost@@U1234@@std@@YA?AU_Trivially_copyable_ptr_iterator_tag@0@ABQAU?$copy_map_entry@U?$sequenced_index_node@U?$ordered_index_node@Unull_augment_policy@detail@multi_index@boost@@U?$index_node_base@U?$pair@$$CBV?$basic_string@DU?$char_traits@D@std@@V?$allocator@D@2@@std@@V?$basic_ptree@V?$basic_string@DU?$char_traits@D@std@@V?$allocator@D@2@@std@@V12@U?$less@V?$basic_string@DU?$char_traits@D@std@@V?$allocator@D@2@@std@@@2@@property_tree@boost@@@std@@V?$allocator@U?$pair@$$CBV?$basic_string@DU?$char_traits@D@std@@V?$allocator@D@2@@std@@V?$basic_ptree@V?$basic_string@DU?$char_traits@D@std@@V?$allocator@D@2@@std@@V12@U?$less@V?$basic_string@DU?$char_traits@D@std@@V?$allocator@D@2@@std@@@2@@property_tree@boost@@@std@@@2@@234@@detail@multi_index@boost@@@detail@multi_index@boost@@@detail@multi_index@boost@@0@Z 10012e20 f i JsonWriter.obj
 0001:00011e30       ??$_Move_unchecked1@PAIPAI@std@@YAPAIPAI00U_Trivially_copyable_ptr_iterator_tag@0@@Z 10012e30 f i Face.obj
 0001:00011e30       ??$_Uninitialized_move_al_unchecked@IIV?$allocator@I@std@@@std@@YAPAIQAI00AAV?$allocator@I@0@U_Really_trivial_ptr_iterator_tag@0@U?$integral_constant@_N$00@0@@Z 10012e30 f i Face.obj
 0001:00011e50       ??$_Uninit_alloc_fill_n1@PAIIV?$allocator@I@std@@@std@@YAPAIQAIIABIAAV?$allocator@I@0@U?$integral_constant@_N$0A@@0@@Z 10012e50 f i Face.obj
 0001:00011ef0       ??$_Uninitialized_move@PAIPAIV?$allocator@I@std@@@std@@YAPAIQAI0PAIAAV?$allocator@I@0@@Z 10012ef0 f i Face.obj
 0001:00011f90       ??_D?$clone_impl@U?$error_info_injector@Vtoo_many_args@io@boost@@@exception_detail@boost@@@exception_detail@boost@@QAEXXZ 10012f90 f i Face.obj
 0001:00011fb0       ??0?$clone_impl@U?$error_info_injector@Vtoo_many_args@io@boost@@@exception_detail@boost@@@exception_detail@boost@@QAE@ABV012@@Z 10012fb0 f i Face.obj
 0001:00012080       ??0?$error_info_injector@Vtoo_many_args@io@boost@@@exception_detail@boost@@QAE@ABU012@@Z 10013080 f i Face.obj
 0001:00012100       ??0too_many_args@io@boost@@QAE@ABV012@@Z 10013100 f i Face.obj
 0001:00012140       ??_D?$basic_oaltstringstream@DU?$char_traits@D@std@@V?$allocator@D@2@@io@boost@@QAEXXZ 10013140 f i Face.obj
 0001:00012170       ??4?$format_item@DU?$char_traits@D@std@@V?$allocator@D@2@@detail@io@boost@@QAEAAU0123@ABU0123@@Z 10013170 f i Face.obj
 0001:000121e0       ??_G?$clone_impl@U?$error_info_injector@Vtoo_many_args@io@boost@@@exception_detail@boost@@@exception_detail@boost@@UAEPAXI@Z 100131e0 f i Face.obj
 0001:000121e0       ??_E?$clone_impl@U?$error_info_injector@Vtoo_many_args@io@boost@@@exception_detail@boost@@@exception_detail@boost@@UAEPAXI@Z 100131e0 f i * CIL library *:* CIL module *
 0001:00012210       ??_G?$error_info_injector@Vtoo_many_args@io@boost@@@exception_detail@boost@@UAEPAXI@Z 10013210 f i Face.obj
 0001:00012210       ??_E?$error_info_injector@Vtoo_many_args@io@boost@@@exception_detail@boost@@UAEPAXI@Z 10013210 f i * CIL library *:* CIL module *
 0001:00012240       ??1?$basic_oaltstringstream@DU?$char_traits@D@std@@V?$allocator@D@2@@io@boost@@UAE@XZ 10013240 f i Face.obj
 0001:00012270       ??4?$stream_format_state@DU?$char_traits@D@std@@@detail@io@boost@@QAEAAU0123@ABU0123@@Z 10013270 f i Face.obj
 0001:000122f0       ??1?$base_from_member@V?$shared_ptr@V?$basic_altstringbuf@DU?$char_traits@D@std@@V?$allocator@D@2@@io@boost@@@boost@@$0A@@boost@@QAE@XZ 100132f0 f i Face.obj
 0001:00012310       ??4?$optional@Vlocale@std@@@boost@@QAEAAV01@ABV01@@Z 10013310 f i Face.obj
 0001:00012330       ??1?$shared_ptr@V?$basic_altstringbuf@DU?$char_traits@D@std@@V?$allocator@D@2@@io@boost@@@boost@@QAE@XZ 10013330 f i Face.obj
 0001:00012350       ??0?$basic_oaltstringstream@DU?$char_traits@D@std@@V?$allocator@D@2@@io@boost@@QAE@PAV?$basic_altstringbuf@DU?$char_traits@D@std@@V?$allocator@D@2@@12@@Z 10013350 f i Face.obj
 0001:00012430       ?rethrow@?$clone_impl@U?$error_info_injector@Vtoo_many_args@io@boost@@@exception_detail@boost@@@exception_detail@boost@@EBEXXZ 10013430 f i Face.obj
 0001:00012460       ?clone@?$clone_impl@U?$error_info_injector@Vtoo_many_args@io@boost@@@exception_detail@boost@@@exception_detail@boost@@EBEPBVclone_base@23@XZ 10013460 f i Face.obj
 0001:00012510       ??1?$clone_impl@U?$error_info_injector@Vtoo_many_args@io@boost@@@exception_detail@boost@@@exception_detail@boost@@UAE@XZ 10013510 f i Face.obj
 0001:00012570       ??1?$error_info_injector@Vtoo_many_args@io@boost@@@exception_detail@boost@@UAE@XZ 10013570 f i Face.obj
 0001:000125b0       ?pcount@?$basic_altstringbuf@DU?$char_traits@D@std@@V?$allocator@D@2@@io@boost@@QBEIXZ 100135b0 f i Face.obj
 0001:000125e0       ?get_ptr@?$optional_base@Vlocale@std@@@optional_detail@boost@@QAEPAVlocale@std@@XZ 100135e0 f i Face.obj
 0001:00012610       ??4?$optional_base@Vlocale@std@@@optional_detail@boost@@IAEAAV012@ABV012@@Z 10013610 f i Face.obj
 0001:00012630       ??F?$_Vb_iterator@U?$_Wrap_alloc@V?$allocator@I@std@@@std@@@std@@QAEAAV01@XZ 10013630 f i Face.obj
 0001:00012650       ??4?$_Vb_reference@U?$_Wrap_alloc@V?$allocator@I@std@@@std@@@std@@QAEAAV01@ABV01@@Z 10013650 f i Face.obj
 0001:00012680       ??_E?$basic_oaltstringstream@DU?$char_traits@D@std@@V?$allocator@D@2@@io@boost@@UAEPAXI@Z 10013680 f i * CIL library *:* CIL module *
 0001:00012680       ??_G?$basic_oaltstringstream@DU?$char_traits@D@std@@V?$allocator@D@2@@io@boost@@UAEPAXI@Z 10013680 f i Face.obj
 0001:000126c0       ??0?$clone_impl@U?$error_info_injector@Vtoo_many_args@io@boost@@@exception_detail@boost@@@exception_detail@boost@@AAE@ABV012@Uclone_tag@012@@Z 100136c0 f i Face.obj
 0001:000127d0       ?get_ptr_impl@?$optional_base@Vlocale@std@@@optional_detail@boost@@IAEPAVlocale@std@@XZ 100137d0 f i Face.obj
 0001:000127f0       ?assign@?$optional_base@Vlocale@std@@@optional_detail@boost@@IAEXABV123@@Z 100137f0 f i Face.obj
 0001:00012860       ??F?$_Vb_const_iterator@U?$_Wrap_alloc@V?$allocator@I@std@@@std@@@std@@QAEAAV01@XZ 10013860 f i Face.obj
 0001:00012880       ??4?$_Vb_reference@U?$_Wrap_alloc@V?$allocator@I@std@@@std@@@std@@QAEAAV01@_N@Z 10013880 f i Face.obj
 0001:00012910       ?assign_value@?$optional_base@Vlocale@std@@@optional_detail@boost@@IAEXABVlocale@std@@@Z 10013910 f i Face.obj
 0001:00012940       ?construct@?$optional_base@Vlocale@std@@@optional_detail@boost@@IAEXABVlocale@std@@@Z 10013940 f i Face.obj
 0001:00012980       ?_Dec@?$_Vb_const_iterator@U?$_Wrap_alloc@V?$allocator@I@std@@@std@@@std@@QAEXXZ 10013980 f i Face.obj
 0001:000129c0       ?clear_buffer@?$basic_altstringbuf@DU?$char_traits@D@std@@V?$allocator@D@2@@io@boost@@QAEXXZ 100139c0 f i Face.obj
 0001:00012a60       ?apply_on@?$stream_format_state@DU?$char_traits@D@std@@@detail@io@boost@@QBEXAAV?$basic_ios@DU?$char_traits@D@std@@@std@@PAVlocale@6@@Z 10013a60 f i Face.obj
 0001:00012b70       ??$_Replace_range@PBD@?$basic_string@DU?$char_traits@D@std@@V?$allocator@D@2@@std@@QAEAAV01@V?$_String_const_iterator@V?$_String_val@U?$_Simple_types@D@std@@@std@@@1@0QBD1U?$integral_constant@_N$00@1@@Z 10013b70 f i Face.obj
 0001:00012bc0       ??$enable_error_info@Vtoo_many_args@io@boost@@@boost@@YA?AU?$error_info_injector@Vtoo_many_args@io@boost@@@exception_detail@0@ABVtoo_many_args@io@0@@Z 10013bc0 f i Face.obj
 0001:00012bf0       ??$enable_current_exception@U?$error_info_injector@Vtoo_many_args@io@boost@@@exception_detail@boost@@@boost@@YA?AV?$clone_impl@U?$error_info_injector@Vtoo_many_args@io@boost@@@exception_detail@boost@@@exception_detail@0@ABU?$error_info_injector@Vtoo_many_args@io@boost@@@20@@Z 10013bf0 f i Face.obj
 0001:00012c20       ??$put_head@DU?$char_traits@D@std@@@detail@io@boost@@YAXAAV?$basic_ostream@DU?$char_traits@D@std@@@std@@ABU?$put_holder@DU?$char_traits@D@std@@@012@@Z 10013c20 f i Face.obj
 0001:00012c40       ??$put_last@DU?$char_traits@D@std@@@detail@io@boost@@YAXAAV?$basic_ostream@DU?$char_traits@D@std@@@std@@ABU?$put_holder@DU?$char_traits@D@std@@@012@@Z 10013c40 f i Face.obj
 0001:00012c60       ??$mk_str@DU?$char_traits@D@std@@V?$allocator@D@2@@detail@io@boost@@YAXAAV?$basic_string@DU?$char_traits@D@std@@V?$allocator@D@2@@std@@PBDI_JDHD_N@Z 10013c60 f i Face.obj
 0001:00012e00       ??$max@_J@std@@YAAB_JAB_J0@Z 10013e00 f i Face.obj
 0001:00012e50       ??$construct@U?$format_item@DU?$char_traits@D@std@@V?$allocator@D@2@@detail@io@boost@@ABU1234@@?$_Default_allocator_traits@V?$allocator@U?$format_item@DU?$char_traits@D@std@@V?$allocator@D@2@@detail@io@boost@@@std@@@std@@SAXAAV?$allocator@U?$format_item@DU?$char_traits@D@std@@V?$allocator@D@2@@detail@io@boost@@@1@QAU?$format_item@DU?$char_traits@D@std@@V?$allocator@D@2@@detail@io@boost@@ABU3456@@Z 10013e50 f i Face.obj
 0001:00012e80       ??$_Emplace_back@U?$format_item@DU?$char_traits@D@std@@V?$allocator@D@2@@detail@io@boost@@@?$_Uninitialized_backout_al@PAU?$format_item@DU?$char_traits@D@std@@V?$allocator@D@2@@detail@io@boost@@V?$allocator@U?$format_item@DU?$char_traits@D@std@@V?$allocator@D@2@@detail@io@boost@@@std@@@std@@QAEX$$QAU?$format_item@DU?$char_traits@D@std@@V?$allocator@D@2@@detail@io@boost@@@Z 10013e80 f i Face.obj
 0001:00012ed0       ??$_Fill_unchecked1@V?$_Vb_iterator@U?$_Wrap_alloc@V?$allocator@I@std@@@std@@@std@@_N@std@@YAXV?$_Vb_iterator@U?$_Wrap_alloc@V?$allocator@I@std@@@std@@@0@0AB_NU?$integral_constant@_N$0A@@0@@Z 10013ed0 f i Face.obj
 0001:00012f20       ??$_Copy_unchecked@V?$_Vb_iterator@U?$_Wrap_alloc@V?$allocator@I@std@@@std@@@std@@V12@@std@@YA?AV?$_Vb_iterator@U?$_Wrap_alloc@V?$allocator@I@std@@@std@@@0@V10@00@Z 10013f20 f i Face.obj
 0001:00012f70       ??$_Copy_memmove@PAIPAI@std@@YAPAIPAI00@Z 10013f70 f i Face.obj
 0001:00012fb0       ??$_Emplace_back@ABI@?$_Uninitialized_backout_al@PAIV?$allocator@I@std@@@std@@QAEXABI@Z 10013fb0 f i Face.obj
 0001:00013000       ??$?0AAPAV?$basic_altstringbuf@DU?$char_traits@D@std@@V?$allocator@D@2@@io@boost@@VNo_Op@?$basic_oaltstringstream@DU?$char_traits@D@std@@V?$allocator@D@2@@12@X@?$base_from_member@V?$shared_ptr@V?$basic_altstringbuf@DU?$char_traits@D@std@@V?$allocator@D@2@@io@boost@@@boost@@$0A@@boost@@IAE@AAPAV?$basic_altstringbuf@DU?$char_traits@D@std@@V?$allocator@D@2@@io@1@$$QAVNo_Op@?$basic_oaltstringstream@DU?$char_traits@D@std@@V?$allocator@D@2@@31@@Z 10014000 f i Face.obj
 0001:00013030       ??0?$format_item@DU?$char_traits@D@std@@V?$allocator@D@2@@detail@io@boost@@QAE@ABU0123@@Z 10014030 f i Face.obj
 0001:000130e0       ??0?$stream_format_state@DU?$char_traits@D@std@@@detail@io@boost@@QAE@ABU0123@@Z 100140e0 f i Face.obj
 0001:00013160       ??0?$optional@Vlocale@std@@@boost@@QAE@ABV01@@Z 10014160 f i Face.obj
 0001:00013180       ??0?$clone_impl@U?$error_info_injector@Vtoo_many_args@io@boost@@@exception_detail@boost@@@exception_detail@boost@@QAE@ABU?$error_info_injector@Vtoo_many_args@io@boost@@@12@@Z 10014180 f i Face.obj
 0001:00013290       ??0?$error_info_injector@Vtoo_many_args@io@boost@@@exception_detail@boost@@QAE@ABVtoo_many_args@io@2@@Z 10014290 f i Face.obj
 0001:00013310       ??0?$optional_base@Vlocale@std@@@optional_detail@boost@@IAE@ABV012@@Z 10014310 f i Face.obj
 0001:00013350       ?cbegin@?$basic_string@DU?$char_traits@D@std@@V?$allocator@D@2@@std@@QBE?AV?$_String_const_iterator@V?$_String_val@U?$_Simple_types@D@std@@@std@@@2@XZ 10014350 f i Face.obj
 0001:00013370       ?replace@?$basic_string@DU?$char_traits@D@std@@V?$allocator@D@2@@std@@QAEAAV12@IIQBDI@Z 10014370 f i Face.obj
 0001:000135c0       ??$?0V?$basic_altstringbuf@DU?$char_traits@D@std@@V?$allocator@D@2@@io@boost@@VNo_Op@?$basic_oaltstringstream@DU?$char_traits@D@std@@V?$allocator@D@2@@12@@?$shared_ptr@V?$basic_altstringbuf@DU?$char_traits@D@std@@V?$allocator@D@2@@io@boost@@@boost@@QAE@PAV?$basic_altstringbuf@DU?$char_traits@D@std@@V?$allocator@D@2@@io@1@VNo_Op@?$basic_oaltstringstream@DU?$char_traits@D@std@@V?$allocator@D@2@@31@@Z 100145c0 f i Face.obj
 0001:00013640       ??$construct@U?$format_item@DU?$char_traits@D@std@@V?$allocator@D@2@@detail@io@boost@@U1234@@?$_Default_allocator_traits@V?$allocator@U?$format_item@DU?$char_traits@D@std@@V?$allocator@D@2@@detail@io@boost@@@std@@@std@@SAXAAV?$allocator@U?$format_item@DU?$char_traits@D@std@@V?$allocator@D@2@@detail@io@boost@@@1@QAU?$format_item@DU?$char_traits@D@std@@V?$allocator@D@2@@detail@io@boost@@$$QAU3456@@Z 10014640 f i Face.obj
 0001:00013670       ??$_Copy_unchecked1@V?$_Vb_iterator@U?$_Wrap_alloc@V?$allocator@I@std@@@std@@@std@@V12@@std@@YA?AV?$_Vb_iterator@U?$_Wrap_alloc@V?$allocator@I@std@@@std@@@0@V10@00U_General_ptr_iterator_tag@0@@Z 10014670 f i Face.obj
 0001:00013840       ??0?$format_item@DU?$char_traits@D@std@@V?$allocator@D@2@@detail@io@boost@@QAE@$$QAU0123@@Z 10014840 f i Face.obj
 0001:000138b0       ??0?$stream_format_state@DU?$char_traits@D@std@@@detail@io@boost@@QAE@$$QAU0123@@Z 100148b0 f i Face.obj
 0001:00013930       ??0?$optional@Vlocale@std@@@boost@@QAE@$$QAV01@@Z 10014930 f i Face.obj
 0001:00013950       ??0?$optional_base@Vlocale@std@@@optional_detail@boost@@IAE@$$QAV012@@Z 10014950 f i Face.obj
 0001:000139c0       ?construct@?$optional_base@Vlocale@std@@@optional_detail@boost@@IAEX$$QAVlocale@std@@@Z 100149c0 f i Face.obj
 0001:00013a10       ??$?0PAV?$basic_altstringbuf@DU?$char_traits@D@std@@V?$allocator@D@2@@io@boost@@VNo_Op@?$basic_oaltstringstream@DU?$char_traits@D@std@@V?$allocator@D@2@@12@@shared_count@detail@boost@@QAE@PAV?$basic_altstringbuf@DU?$char_traits@D@std@@V?$allocator@D@2@@io@2@VNo_Op@?$basic_oaltstringstream@DU?$char_traits@D@std@@V?$allocator@D@2@@42@@Z 10014a10 f i Face.obj
 0001:00013af0       ??$sp_deleter_construct@V?$basic_altstringbuf@DU?$char_traits@D@std@@V?$allocator@D@2@@io@boost@@V123@@detail@boost@@YAXPAV?$shared_ptr@V?$basic_altstringbuf@DU?$char_traits@D@std@@V?$allocator@D@2@@io@boost@@@1@PAV?$basic_altstringbuf@DU?$char_traits@D@std@@V?$allocator@D@2@@io@1@@Z 10014af0 f i Face.obj
 0001:00013b10       ?get_untyped_deleter@?$sp_counted_impl_pd@PAV?$basic_altstringbuf@DU?$char_traits@D@std@@V?$allocator@D@2@@io@boost@@VNo_Op@?$basic_oaltstringstream@DU?$char_traits@D@std@@V?$allocator@D@2@@23@@detail@boost@@UAEPAXXZ 10014b10 f i Face.obj
 0001:00013b30       ?get_local_deleter@?$sp_counted_impl_pd@PAV?$basic_altstringbuf@DU?$char_traits@D@std@@V?$allocator@D@2@@io@boost@@VNo_Op@?$basic_oaltstringstream@DU?$char_traits@D@std@@V?$allocator@D@2@@23@@detail@boost@@UAEPAXABVtype_info@@@Z 10014b30 f i Face.obj
 0001:00013b80       ?get_deleter@?$sp_counted_impl_pd@PAV?$basic_altstringbuf@DU?$char_traits@D@std@@V?$allocator@D@2@@io@boost@@VNo_Op@?$basic_oaltstringstream@DU?$char_traits@D@std@@V?$allocator@D@2@@23@@detail@boost@@UAEPAXABVtype_info@@@Z 10014b80 f i Face.obj
 0001:00013bc0       ?dispose@?$sp_counted_impl_pd@PAV?$basic_altstringbuf@DU?$char_traits@D@std@@V?$allocator@D@2@@io@boost@@VNo_Op@?$basic_oaltstringstream@DU?$char_traits@D@std@@V?$allocator@D@2@@23@@detail@boost@@UAEXXZ 10014bc0 f i Face.obj
 0001:00013be0       ??0?$sp_counted_impl_pd@PAV?$basic_altstringbuf@DU?$char_traits@D@std@@V?$allocator@D@2@@io@boost@@VNo_Op@?$basic_oaltstringstream@DU?$char_traits@D@std@@V?$allocator@D@2@@23@@detail@boost@@QAE@PAV?$basic_altstringbuf@DU?$char_traits@D@std@@V?$allocator@D@2@@io@2@AAVNo_Op@?$basic_oaltstringstream@DU?$char_traits@D@std@@V?$allocator@D@2@@42@@Z 10014be0 f i Face.obj
 0001:00013c10       ??_G?$sp_counted_impl_pd@PAV?$basic_altstringbuf@DU?$char_traits@D@std@@V?$allocator@D@2@@io@boost@@VNo_Op@?$basic_oaltstringstream@DU?$char_traits@D@std@@V?$allocator@D@2@@23@@detail@boost@@UAEPAXI@Z 10014c10 f i Face.obj
 0001:00013c10       ??_E?$sp_counted_impl_pd@PAV?$basic_altstringbuf@DU?$char_traits@D@std@@V?$allocator@D@2@@io@boost@@VNo_Op@?$basic_oaltstringstream@DU?$char_traits@D@std@@V?$allocator@D@2@@23@@detail@boost@@UAEPAXI@Z 10014c10 f i * CIL library *:* CIL module *
 0001:00013c40       ??1?$sp_counted_impl_pd@PAV?$basic_altstringbuf@DU?$char_traits@D@std@@V?$allocator@D@2@@io@boost@@VNo_Op@?$basic_oaltstringstream@DU?$char_traits@D@std@@V?$allocator@D@2@@23@@detail@boost@@UAE@XZ 10014c40 f i Face.obj
 0001:00013c60       ??$?RPAV?$basic_altstringbuf@DU?$char_traits@D@std@@V?$allocator@D@2@@io@boost@@@No_Op@?$basic_oaltstringstream@DU?$char_traits@D@std@@V?$allocator@D@2@@io@boost@@QAEABQAV?$basic_altstringbuf@DU?$char_traits@D@std@@V?$allocator@D@2@@23@ABQAV423@@Z 10014c60 f i Face.obj
 0001:00013c60       ??R?$const_member_base@U?$pair@$$CBV?$basic_string@DU?$char_traits@D@std@@V?$allocator@D@2@@std@@V?$basic_ptree@V?$basic_string@DU?$char_traits@D@std@@V?$allocator@D@2@@std@@V12@U?$less@V?$basic_string@DU?$char_traits@D@std@@V?$allocator@D@2@@std@@@2@@property_tree@boost@@@std@@$$CBV?$basic_string@DU?$char_traits@D@std@@V?$allocator@D@2@@2@$0A@@detail@multi_index@boost@@QBEABV?$basic_string@DU?$char_traits@D@std@@V?$allocator@D@2@@std@@ABU?$pair@$$CBV?$basic_string@DU?$char_traits@D@std@@V?$allocator@D@2@@std@@V?$basic_ptree@V?$basic_string@DU?$char_traits@D@std@@V?$allocator@D@2@@std@@V12@U?$less@V?$basic_string@DU?$char_traits@D@std@@V?$allocator@D@2@@std@@@2@@property_tree@boost@@@5@@Z 10014c60 f i JsonWriter.obj
 0001:00013c60       ?get_tail@?$cons@V?$tuple@U?$member@U?$pair@$$CBV?$basic_string@DU?$char_traits@D@std@@V?$allocator@D@2@@std@@V?$basic_ptree@V?$basic_string@DU?$char_traits@D@std@@V?$allocator@D@2@@std@@V12@U?$less@V?$basic_string@DU?$char_traits@D@std@@V?$allocator@D@2@@std@@@2@@property_tree@boost@@@std@@$$CBV?$basic_string@DU?$char_traits@D@std@@V?$allocator@D@2@@2@$0A@@multi_index@boost@@U?$less@V?$basic_string@DU?$char_traits@D@std@@V?$allocator@D@2@@std@@@std@@Unull_type@tuples@3@U673@U673@U673@U673@U673@U673@U673@@tuples@boost@@Unull_type@23@@tuples@boost@@QBE?BUnull_type@23@XZ 10014c60 f i JsonWriter.obj
 0001:00013c70       ??$get_local_deleter@VNo_Op@?$basic_oaltstringstream@DU?$char_traits@D@std@@V?$allocator@D@2@@io@boost@@@detail@boost@@YAPAVNo_Op@?$basic_oaltstringstream@DU?$char_traits@D@std@@V?$allocator@D@2@@io@1@PAV2341@@Z 10014c70 f i Face.obj
 0001:00013c77       ??_E?$clone_impl@U?$error_info_injector@Vtoo_many_args@io@boost@@@exception_detail@boost@@@exception_detail@boost@@$4PPPPPPPM@DA@AEPAXI@Z 10014c77 f i Face.obj
 0001:00013c82       ??_E?$clone_impl@U?$error_info_injector@Vtoo_few_args@io@boost@@@exception_detail@boost@@@exception_detail@boost@@WBE@AEPAXI@Z 10014c82 f i Face.obj
 0001:00013c8a       ??_E?$clone_impl@U?$error_info_injector@Vtoo_many_args@io@boost@@@exception_detail@boost@@@exception_detail@boost@@WBE@AEPAXI@Z 10014c8a f i Face.obj
 0001:00013c92       ??_E?$clone_impl@U?$error_info_injector@Vbad_format_string@io@boost@@@exception_detail@boost@@@exception_detail@boost@@$4PPPPPPPM@DA@AEPAXI@Z 10014c92 f i Face.obj
 0001:00013c9d       ?rethrow@?$clone_impl@U?$error_info_injector@Vbad_format_string@io@boost@@@exception_detail@boost@@@exception_detail@boost@@$0PPPPPPPM@A@BEXXZ 10014c9d f i Face.obj
 0001:00013ca5       ??_E?$clone_impl@U?$error_info_injector@Vbad_format_string@io@boost@@@exception_detail@boost@@@exception_detail@boost@@WBE@AEPAXI@Z 10014ca5 f i Face.obj
 0001:00013cad       ?clone@?$clone_impl@U?$error_info_injector@Vtoo_few_args@io@boost@@@exception_detail@boost@@@exception_detail@boost@@$0PPPPPPPM@A@BEPBVclone_base@23@XZ 10014cad f i Face.obj
 0001:00013cb5       ??_E?$error_info_injector@Vtoo_few_args@io@boost@@@exception_detail@boost@@WBE@AEPAXI@Z 10014cb5 f i Face.obj
 0001:00013cbd       ?rethrow@?$clone_impl@U?$error_info_injector@Vtoo_few_args@io@boost@@@exception_detail@boost@@@exception_detail@boost@@$0PPPPPPPM@A@BEXXZ 10014cbd f i Face.obj
 0001:00013cc5       ?rethrow@?$clone_impl@U?$error_info_injector@Vtoo_many_args@io@boost@@@exception_detail@boost@@@exception_detail@boost@@$0PPPPPPPM@A@BEXXZ 10014cc5 f i Face.obj
 0001:00013ccd       ??_E?$basic_oaltstringstream@DU?$char_traits@D@std@@V?$allocator@D@2@@io@boost@@$4PPPPPPPM@A@AEPAXI@Z 10014ccd f i Face.obj
 0001:00013cd5       ??_E?$error_info_injector@Vbad_format_string@io@boost@@@exception_detail@boost@@WBE@AEPAXI@Z 10014cd5 f i Face.obj
 0001:00013cdd       ??_E?$error_info_injector@Vtoo_many_args@io@boost@@@exception_detail@boost@@WBE@AEPAXI@Z 10014cdd f i Face.obj
 0001:00013ce5       ?clone@?$clone_impl@U?$error_info_injector@Vbad_format_string@io@boost@@@exception_detail@boost@@@exception_detail@boost@@$0PPPPPPPM@A@BEPBVclone_base@23@XZ 10014ce5 f i Face.obj
 0001:00013ced       ?clone@?$clone_impl@U?$error_info_injector@Vtoo_many_args@io@boost@@@exception_detail@boost@@@exception_detail@boost@@$0PPPPPPPM@A@BEPBVclone_base@23@XZ 10014ced f i Face.obj
 0001:00013cf5       ??_E?$clone_impl@U?$error_info_injector@Vtoo_few_args@io@boost@@@exception_detail@boost@@@exception_detail@boost@@$4PPPPPPPM@DA@AEPAXI@Z 10014cf5 f i Face.obj
 0001:00013e10       ?memchr@@YAPAXPAXHI@Z      10014e10 f i JsonWriter.obj
 0001:00013e40       ?compare@?$char_traits@D@std@@SAHQBD0I@Z 10014e40 f i JsonWriter.obj
 0001:00013e70       ?name@type_info@@QBEPBDXZ  10014e70 f i JsonWriter.obj
 0001:00013e90       ??0any@boost@@QAE@ABV01@@Z 10014e90 f i JsonWriter.obj
 0001:00013ed0       ??1any@boost@@QAE@XZ       10014ed0 f i JsonWriter.obj
 0001:00013f10       ??1placeholder@any@boost@@UAE@XZ 10014f10 f i JsonWriter.obj
 0001:00013f30       ??_Gplaceholder@any@boost@@UAEPAXI@Z 10014f30 f i JsonWriter.obj
 0001:00013f30       ??_Eplaceholder@any@boost@@UAEPAXI@Z 10014f30 f i * CIL library *:* CIL module *
 0001:00013f60       ??0ptree_error@property_tree@boost@@QAE@ABV?$basic_string@DU?$char_traits@D@std@@V?$allocator@D@2@@std@@@Z 10014f60 f i JsonWriter.obj
 0001:00013f90       ??_Gptree_error@property_tree@boost@@UAEPAXI@Z 10014f90 f i JsonWriter.obj
 0001:00013f90       ??_Eptree_error@property_tree@boost@@UAEPAXI@Z 10014f90 f i * CIL library *:* CIL module *
 0001:00013fc0       ??1ptree_error@property_tree@boost@@UAE@XZ 10014fc0 f i JsonWriter.obj
 0001:00013fe0       ??1ptree_bad_data@property_tree@boost@@UAE@XZ 10014fe0 f i JsonWriter.obj
 0001:00014010       ??_Eptree_bad_data@property_tree@boost@@UAEPAXI@Z 10015010 f i * CIL library *:* CIL module *
 0001:00014010       ??_Gptree_bad_data@property_tree@boost@@UAEPAXI@Z 10015010 f i JsonWriter.obj
 0001:00014040       ??1ptree_bad_path@property_tree@boost@@UAE@XZ 10015040 f i JsonWriter.obj
 0001:00014070       ??_Gptree_bad_path@property_tree@boost@@UAEPAXI@Z 10015070 f i JsonWriter.obj
 0001:00014070       ??_Eptree_bad_path@property_tree@boost@@UAEPAXI@Z 10015070 f i * CIL library *:* CIL module *
 0001:000140a0       ?dump_sequence@detail@property_tree@boost@@YA?AV?$basic_string@DU?$char_traits@D@std@@V?$allocator@D@2@@std@@ABV45@@Z 100150a0 f i JsonWriter.obj
 0001:000140d0       ??0file_parser_error@property_tree@boost@@QAE@ABV?$basic_string@DU?$char_traits@D@std@@V?$allocator@D@2@@std@@0K@Z 100150d0 f i JsonWriter.obj
 0001:00014190       ??1file_parser_error@property_tree@boost@@UAE@XZ 10015190 f i JsonWriter.obj
 0001:000141d0       ?format_what@file_parser_error@property_tree@boost@@CA?AV?$basic_string@DU?$char_traits@D@std@@V?$allocator@D@2@@std@@ABV45@0K@Z 100151d0 f i JsonWriter.obj
 0001:00014330       ??_Gfile_parser_error@property_tree@boost@@UAEPAXI@Z 10015330 f i JsonWriter.obj
 0001:00014330       ??_Efile_parser_error@property_tree@boost@@UAEPAXI@Z 10015330 f i * CIL library *:* CIL module *
 0001:00014360       ??_D?$basic_stringstream@DU?$char_traits@D@std@@V?$allocator@D@2@@std@@QAEXXZ 10015360 f i JsonWriter.obj
 0001:00014390       ??0json_parser_error@json_parser@property_tree@boost@@QAE@ABV?$basic_string@DU?$char_traits@D@std@@V?$allocator@D@2@@std@@0K@Z 10015390 f i JsonWriter.obj
 0001:000143c0       ??_Ejson_parser_error@json_parser@property_tree@boost@@UAEPAXI@Z 100153c0 f i * CIL library *:* CIL module *
 0001:000143c0       ??_Gjson_parser_error@json_parser@property_tree@boost@@UAEPAXI@Z 100153c0 f i JsonWriter.obj
 0001:000143f0       ??1json_parser_error@json_parser@property_tree@boost@@UAE@XZ 100153f0 f i JsonWriter.obj
 0001:00014410       ??$_Fgetc@D@std@@YA_NAADPAU_iobuf@@@Z 10015410 f i JsonWriter.obj
 0001:00014440       ??$_Fputc@D@std@@YA_NDPAU_iobuf@@@Z 10015440 f i JsonWriter.obj
 0001:00014480       ??$_Ungetc@D@std@@YA_NABDPAU_iobuf@@@Z 10015480 f i JsonWriter.obj
 0001:000144c0       ?makeCoordinatesRoot@JsonWriter@@QAE?AV?$basic_ptree@V?$basic_string@DU?$char_traits@D@std@@V?$allocator@D@2@@std@@V12@U?$less@V?$basic_string@DU?$char_traits@D@std@@V?$allocator@D@2@@std@@@2@@property_tree@boost@@VFace@@@Z 100154c0 f   JsonWriter.obj
 0001:00014690       ??1?$string_path@V?$basic_string@DU?$char_traits@D@std@@V?$allocator@D@2@@std@@U?$id_translator@V?$basic_string@DU?$char_traits@D@std@@V?$allocator@D@2@@std@@@property_tree@boost@@@property_tree@boost@@QAE@XZ 10015690 f i JsonWriter.obj
 0001:000146b0       ??1?$pair@PBDV?$basic_ptree@V?$basic_string@DU?$char_traits@D@std@@V?$allocator@D@2@@std@@V12@U?$less@V?$basic_string@DU?$char_traits@D@std@@V?$allocator@D@2@@std@@@2@@property_tree@boost@@@std@@QAE@XZ 100156b0 f i JsonWriter.obj
 0001:000146d0       ??1?$pair@$$CBV?$basic_string@DU?$char_traits@D@std@@V?$allocator@D@2@@std@@V?$basic_ptree@V?$basic_string@DU?$char_traits@D@std@@V?$allocator@D@2@@std@@V12@U?$less@V?$basic_string@DU?$char_traits@D@std@@V?$allocator@D@2@@std@@@2@@property_tree@boost@@@std@@QAE@XZ 100156d0 f i JsonWriter.obj
 0001:000146f0       ?makeANodeWithFileNameAndCoordinates@JsonWriter@@QAE?AV?$basic_ptree@V?$basic_string@DU?$char_traits@D@std@@V?$allocator@D@2@@std@@V12@U?$less@V?$basic_string@DU?$char_traits@D@std@@V?$allocator@D@2@@std@@@2@@property_tree@boost@@VFace@@@Z 100156f0 f   JsonWriter.obj
 0001:00014870       ?writeFacesInJson@JsonWriter@@QAEXV?$vector@VFace@@V?$allocator@VFace@@@std@@@std@@Vpath@filesystem@3@V?$basic_string@DU?$char_traits@D@std@@V?$allocator@D@2@@3@@Z 10015870 f   JsonWriter.obj
 0001:00014b00       ?generateJsonName@JsonWriter@@QAE?AV?$basic_string@DU?$char_traits@D@std@@V?$allocator@D@2@@std@@Vpath@filesystem@3@V23@@Z 10015b00 f   JsonWriter.obj
 0001:00014c90       ?compare@?$basic_string@DU?$char_traits@D@std@@V?$allocator@D@2@@std@@QBEHABV12@@Z 10015c90 f i JsonWriter.obj
 0001:00014d10       ?begin@?$basic_string@DU?$char_traits@D@std@@V?$allocator@D@2@@std@@QAE?AV?$_String_iterator@V?$_String_val@U?$_Simple_types@D@std@@@std@@@2@XZ 10015d10 f i JsonWriter.obj
 0001:00014d80       ??Y?$basic_string@DU?$char_traits@D@std@@V?$allocator@D@2@@std@@QAEAAV01@D@Z 10015d80 f i JsonWriter.obj
 0001:00014da0       ??0?$basic_string@DU?$char_traits@D@std@@V?$allocator@D@2@@std@@QAE@QBDI@Z 10015da0 f i JsonWriter.obj
 0001:00014e10       ?str@?$basic_stringstream@DU?$char_traits@D@std@@V?$allocator@D@2@@std@@QBE?AV?$basic_string@DU?$char_traits@D@std@@V?$allocator@D@2@@2@XZ 10015e10 f i JsonWriter.obj
 0001:00014e50       ??1?$basic_stringstream@DU?$char_traits@D@std@@V?$allocator@D@2@@std@@UAE@XZ 10015e50 f i JsonWriter.obj
 0001:00014eb0       ??0?$basic_stringstream@DU?$char_traits@D@std@@V?$allocator@D@2@@std@@QAE@H@Z 10015eb0 f i JsonWriter.obj
 0001:00014f90       ?seekpos@?$basic_stringbuf@DU?$char_traits@D@std@@V?$allocator@D@2@@std@@MAE?AV?$fpos@U_Mbstatet@@@2@V32@H@Z 10015f90 f i JsonWriter.obj
 0001:00015190       ?seekoff@?$basic_stringbuf@DU?$char_traits@D@std@@V?$allocator@D@2@@std@@MAE?AV?$fpos@U_Mbstatet@@@2@_JHH@Z 10016190 f i JsonWriter.obj
 0001:00015460       ?underflow@?$basic_stringbuf@DU?$char_traits@D@std@@V?$allocator@D@2@@std@@MAEHXZ 10016460 f i JsonWriter.obj
 0001:00015560       ?pbackfail@?$basic_stringbuf@DU?$char_traits@D@std@@V?$allocator@D@2@@std@@MAEHH@Z 10016560 f i JsonWriter.obj
 0001:00015660       ?overflow@?$basic_stringbuf@DU?$char_traits@D@std@@V?$allocator@D@2@@std@@MAEHH@Z 10016660 f i JsonWriter.obj
 0001:00015970       ??1?$basic_stringbuf@DU?$char_traits@D@std@@V?$allocator@D@2@@std@@UAE@XZ 10016970 f i JsonWriter.obj
 0001:000159c0       ??_G?$basic_stringstream@DU?$char_traits@D@std@@V?$allocator@D@2@@std@@UAEPAXI@Z 100169c0 f i JsonWriter.obj
 0001:000159c0       ??_E?$basic_stringstream@DU?$char_traits@D@std@@V?$allocator@D@2@@std@@UAEPAXI@Z 100169c0 f i * CIL library *:* CIL module *
 0001:00015a00       ??_G?$basic_stringbuf@DU?$char_traits@D@std@@V?$allocator@D@2@@std@@UAEPAXI@Z 10016a00 f i JsonWriter.obj
 0001:00015a00       ??_E?$basic_stringbuf@DU?$char_traits@D@std@@V?$allocator@D@2@@std@@UAEPAXI@Z 10016a00 f i * CIL library *:* CIL module *
 0001:00015a30       ?apply@?$operator_arrow_dispatch@AAU?$pair@$$CBV?$basic_string@DU?$char_traits@D@std@@V?$allocator@D@2@@std@@V?$basic_ptree@V?$basic_string@DU?$char_traits@D@std@@V?$allocator@D@2@@std@@V12@U?$less@V?$basic_string@DU?$char_traits@D@std@@V?$allocator@D@2@@std@@@2@@property_tree@boost@@@std@@PAU12@@detail@iterators@boost@@SAPAU?$pair@$$CBV?$basic_string@DU?$char_traits@D@std@@V?$allocator@D@2@@std@@V?$basic_ptree@V?$basic_string@DU?$char_traits@D@std@@V?$allocator@D@2@@std@@V12@U?$less@V?$basic_string@DU?$char_traits@D@std@@V?$allocator@D@2@@std@@@2@@property_tree@boost@@@std@@AAU56@@Z 10016a30 f i JsonWriter.obj
 0001:00015a30       ?apply@?$operator_arrow_dispatch@ABU?$pair@$$CBV?$basic_string@DU?$char_traits@D@std@@V?$allocator@D@2@@std@@V?$basic_ptree@V?$basic_string@DU?$char_traits@D@std@@V?$allocator@D@2@@std@@V12@U?$less@V?$basic_string@DU?$char_traits@D@std@@V?$allocator@D@2@@std@@@2@@property_tree@boost@@@std@@PBU12@@detail@iterators@boost@@SAPBU?$pair@$$CBV?$basic_string@DU?$char_traits@D@std@@V?$allocator@D@2@@std@@V?$basic_ptree@V?$basic_string@DU?$char_traits@D@std@@V?$allocator@D@2@@std@@V12@U?$less@V?$basic_string@DU?$char_traits@D@std@@V?$allocator@D@2@@std@@@2@@property_tree@boost@@@std@@ABU56@@Z 10016a30 f i JsonWriter.obj
 0001:00015a30       ??$get@$0A@U?$member@U?$pair@$$CBV?$basic_string@DU?$char_traits@D@std@@V?$allocator@D@2@@std@@V?$basic_ptree@V?$basic_string@DU?$char_traits@D@std@@V?$allocator@D@2@@std@@V12@U?$less@V?$basic_string@DU?$char_traits@D@std@@V?$allocator@D@2@@std@@@2@@property_tree@boost@@@std@@$$CBV?$basic_string@DU?$char_traits@D@std@@V?$allocator@D@2@@2@$0A@@multi_index@boost@@U?$cons@U?$less@V?$basic_string@DU?$char_traits@D@std@@V?$allocator@D@2@@std@@@std@@Unull_type@tuples@boost@@@tuples@3@@tuples@boost@@YAABU?$member@U?$pair@$$CBV?$basic_string@DU?$char_traits@D@std@@V?$allocator@D@2@@std@@V?$basic_ptree@V?$basic_string@DU?$char_traits@D@std@@V?$allocator@D@2@@std@@V12@U?$less@V?$basic_string@DU?$char_traits@D@std@@V?$allocator@D@2@@std@@@2@@property_tree@boost@@@std@@$$CBV?$basic_string@DU?$char_traits@D@std@@V?$allocator@D@2@@2@$0A@@multi_index@1@ABU?$cons@U?$member@U?$pair@$$CBV?$basic_string@DU?$char_traits@D@std@@V?$allocator@D@2@@std@@V?$basic_ptree@V?$basic_string@DU?$char_traits@D@std@@V?$allocator@D@2@@std@@V12@U?$less@V?$basic_string@DU?$char_traits@D@std@@V?$allocator@D@2@@std@@@2@@property_tree@boost@@@std@@$$CBV?$basic_string@DU?$char_traits@D@std@@V?$allocator@D@2@@2@$0A@@multi_index@boost@@U?$cons@U?$less@V?$basic_string@DU?$char_traits@D@std@@V?$allocator@D@2@@std@@@std@@Unull_type@tuples@boost@@@tuples@3@@01@@Z 10016a30 f i JsonWriter.obj
 0001:00015a30       ?pointer_to@?$pointer_traits@PAD@std@@SAPADAAD@Z 10016a30 f i JsonWriter.obj
 0001:00015a50       ??D?$_String_iterator@V?$_String_val@U?$_Simple_types@D@std@@@std@@@std@@QBEAADXZ 10016a50 f i JsonWriter.obj
 0001:00015a70       ?push_back@?$basic_string@DU?$char_traits@D@std@@V?$allocator@D@2@@std@@QAEXD@Z 10016a70 f i JsonWriter.obj
 0001:00015b60       ?_Tidy@?$basic_stringbuf@DU?$char_traits@D@std@@V?$allocator@D@2@@std@@IAEXXZ 10016b60 f i JsonWriter.obj
 0001:00015c10       ?str@?$basic_stringbuf@DU?$char_traits@D@std@@V?$allocator@D@2@@std@@QBE?AV?$basic_string@DU?$char_traits@D@std@@V?$allocator@D@2@@2@XZ 10016c10 f i JsonWriter.obj
 0001:00015d60       ??0?$basic_stringbuf@DU?$char_traits@D@std@@V?$allocator@D@2@@std@@QAE@H@Z 10016d60 f i JsonWriter.obj
 0001:00015de0       ?_Getstate@?$basic_stringbuf@DU?$char_traits@D@std@@V?$allocator@D@2@@std@@AAEHH@Z 10016de0 f i JsonWriter.obj
 0001:00015e40       ?_Init@?$basic_stringbuf@DU?$char_traits@D@std@@V?$allocator@D@2@@std@@IAEXPBDIH@Z 10016e40 f i JsonWriter.obj
 0001:00015f50       ??Y?$_String_iterator@V?$_String_val@U?$_Simple_types@D@std@@@std@@@std@@QAEAAV01@H@Z 10016f50 f i JsonWriter.obj
 0001:00015f70       ??0?$string_path@V?$basic_string@DU?$char_traits@D@std@@V?$allocator@D@2@@std@@U?$id_translator@V?$basic_string@DU?$char_traits@D@std@@V?$allocator@D@2@@std@@@property_tree@boost@@@property_tree@boost@@QAE@PBDDU?$id_translator@V?$basic_string@DU?$char_traits@D@std@@V?$allocator@D@2@@std@@@12@@Z 10016f70 f i JsonWriter.obj
 0001:00015fb0       ??0?$basic_ptree@V?$basic_string@DU?$char_traits@D@std@@V?$allocator@D@2@@std@@V12@U?$less@V?$basic_string@DU?$char_traits@D@std@@V?$allocator@D@2@@std@@@2@@property_tree@boost@@QAE@ABV012@@Z 10016fb0 f i JsonWriter.obj
 0001:00016060       ??0?$basic_ptree@V?$basic_string@DU?$char_traits@D@std@@V?$allocator@D@2@@std@@V12@U?$less@V?$basic_string@DU?$char_traits@D@std@@V?$allocator@D@2@@std@@@2@@property_tree@boost@@QAE@XZ 10017060 f i JsonWriter.obj
 0001:00016100       ??1?$basic_ptree@V?$basic_string@DU?$char_traits@D@std@@V?$allocator@D@2@@std@@V12@U?$less@V?$basic_string@DU?$char_traits@D@std@@V?$allocator@D@2@@std@@@2@@property_tree@boost@@QAE@XZ 10017100 f i JsonWriter.obj
 0001:00016170       ?push_back@?$basic_ptree@V?$basic_string@DU?$char_traits@D@std@@V?$allocator@D@2@@std@@V12@U?$less@V?$basic_string@DU?$char_traits@D@std@@V?$allocator@D@2@@std@@@2@@property_tree@boost@@QAE?AViterator@123@ABU?$pair@$$CBV?$basic_string@DU?$char_traits@D@std@@V?$allocator@D@2@@std@@V?$basic_ptree@V?$basic_string@DU?$char_traits@D@std@@V?$allocator@D@2@@std@@V12@U?$less@V?$basic_string@DU?$char_traits@D@std@@V?$allocator@D@2@@std@@@2@@property_tree@boost@@@std@@@Z 10017170 f i JsonWriter.obj
 0001:000161b0       ?add_child@?$basic_ptree@V?$basic_string@DU?$char_traits@D@std@@V?$allocator@D@2@@std@@V12@U?$less@V?$basic_string@DU?$char_traits@D@std@@V?$allocator@D@2@@std@@@2@@property_tree@boost@@QAEAAV123@ABV?$string_path@V?$basic_string@DU?$char_traits@D@std@@V?$allocator@D@2@@std@@U?$id_translator@V?$basic_string@DU?$char_traits@D@std@@V?$allocator@D@2@@std@@@property_tree@boost@@@23@ABV123@@Z 100171b0 f i JsonWriter.obj
 0001:000162b0       ??$put@V?$Point_@H@cv@@@?$basic_ptree@V?$basic_string@DU?$char_traits@D@std@@V?$allocator@D@2@@std@@V12@U?$less@V?$basic_string@DU?$char_traits@D@std@@V?$allocator@D@2@@std@@@2@@property_tree@boost@@QAEAAV012@ABV?$string_path@V?$basic_string@DU?$char_traits@D@std@@V?$allocator@D@2@@std@@U?$id_translator@V?$basic_string@DU?$char_traits@D@std@@V?$allocator@D@2@@std@@@property_tree@boost@@@12@ABV?$Point_@H@cv@@@Z 100172b0 f i JsonWriter.obj
 0001:00016300       ??$make_pair@AAY00$$CBDAAV?$basic_ptree@V?$basic_string@DU?$char_traits@D@std@@V?$allocator@D@2@@std@@V12@U?$less@V?$basic_string@DU?$char_traits@D@std@@V?$allocator@D@2@@std@@@2@@property_tree@boost@@@std@@YA?AU?$pair@PBDV?$basic_ptree@V?$basic_string@DU?$char_traits@D@std@@V?$allocator@D@2@@std@@V12@U?$less@V?$basic_string@DU?$char_traits@D@std@@V?$allocator@D@2@@std@@@2@@property_tree@boost@@@0@AAY00$$CBDAAV?$basic_ptree@V?$basic_string@DU?$char_traits@D@std@@V?$allocator@D@2@@std@@V12@U?$less@V?$basic_string@DU?$char_traits@D@std@@V?$allocator@D@2@@std@@@2@@property_tree@boost@@@Z 10017300 f i JsonWriter.obj
 0001:00016340       ??$?0PBDV?$basic_ptree@V?$basic_string@DU?$char_traits@D@std@@V?$allocator@D@2@@std@@V12@U?$less@V?$basic_string@DU?$char_traits@D@std@@V?$allocator@D@2@@std@@@2@@property_tree@boost@@$0A@@?$pair@$$CBV?$basic_string@DU?$char_traits@D@std@@V?$allocator@D@2@@std@@V?$basic_ptree@V?$basic_string@DU?$char_traits@D@std@@V?$allocator@D@2@@std@@V12@U?$less@V?$basic_string@DU?$char_traits@D@std@@V?$allocator@D@2@@std@@@2@@property_tree@boost@@@std@@QAE@$$QAU?$pair@PBDV?$basic_ptree@V?$basic_string@DU?$char_traits@D@std@@V?$allocator@D@2@@std@@V12@U?$less@V?$basic_string@DU?$char_traits@D@std@@V?$allocator@D@2@@std@@@2@@property_tree@boost@@@1@@Z 10017340 f i JsonWriter.obj
 0001:000163c0       ??$put@V?$basic_string@DU?$char_traits@D@std@@V?$allocator@D@2@@std@@@?$basic_ptree@V?$basic_string@DU?$char_traits@D@std@@V?$allocator@D@2@@std@@V12@U?$less@V?$basic_string@DU?$char_traits@D@std@@V?$allocator@D@2@@std@@@2@@property_tree@boost@@QAEAAV012@ABV?$string_path@V?$basic_string@DU?$char_traits@D@std@@V?$allocator@D@2@@std@@U?$id_translator@V?$basic_string@DU?$char_traits@D@std@@V?$allocator@D@2@@std@@@property_tree@boost@@@12@ABV?$basic_string@DU?$char_traits@D@std@@V?$allocator@D@2@@std@@@Z 100173c0 f i JsonWriter.obj
 0001:000163f0       ??$write_json@V?$basic_ptree@V?$basic_string@DU?$char_traits@D@std@@V?$allocator@D@2@@std@@V12@U?$less@V?$basic_string@DU?$char_traits@D@std@@V?$allocator@D@2@@std@@@2@@property_tree@boost@@@json_parser@property_tree@boost@@YAXABV?$basic_string@DU?$char_traits@D@std@@V?$allocator@D@2@@std@@ABV?$basic_ptree@V?$basic_string@DU?$char_traits@D@std@@V?$allocator@D@2@@std@@V12@U?$less@V?$basic_string@DU?$char_traits@D@std@@V?$allocator@D@2@@std@@@2@@12@ABVlocale@4@_N@Z 100173f0 f i JsonWriter.obj
 0001:00016560       ??$_Traits_compare@U?$char_traits@D@std@@@std@@YAHQBDI0I@Z 10017560 f i JsonWriter.obj
 0001:00016710       ??_G?$multi_index_container@U?$pair@$$CBV?$basic_string@DU?$char_traits@D@std@@V?$allocator@D@2@@std@@V?$basic_ptree@V?$basic_string@DU?$char_traits@D@std@@V?$allocator@D@2@@std@@V12@U?$less@V?$basic_string@DU?$char_traits@D@std@@V?$allocator@D@2@@std@@@2@@property_tree@boost@@@std@@U?$indexed_by@U?$sequenced@U?$tag@Una@mpl@boost@@U123@U123@U123@U123@U123@U123@U123@U123@U123@U123@U123@U123@U123@U123@U123@U123@U123@U123@U123@@multi_index@boost@@@multi_index@boost@@U?$ordered_non_unique@U?$tag@Uby_name@subs@?$basic_ptree@V?$basic_string@DU?$char_traits@D@std@@V?$allocator@D@2@@std@@V12@U?$less@V?$basic_string@DU?$char_traits@D@std@@V?$allocator@D@2@@std@@@2@@property_tree@boost@@Una@mpl@5@U675@U675@U675@U675@U675@U675@U675@U675@U675@U675@U675@U675@U675@U675@U675@U675@U675@U675@@multi_index@boost@@U?$member@U?$pair@$$CBV?$basic_string@DU?$char_traits@D@std@@V?$allocator@D@2@@std@@V?$basic_ptree@V?$basic_string@DU?$char_traits@D@std@@V?$allocator@D@2@@std@@V12@U?$less@V?$basic_string@DU?$char_traits@D@std@@V?$allocator@D@2@@std@@@2@@property_tree@boost@@@std@@$$CBV?$basic_string@DU?$char_traits@D@std@@V?$allocator@D@2@@2@$0A@@23@U?$less@V?$basic_string@DU?$char_traits@D@std@@V?$allocator@D@2@@std@@@std@@@23@Una@mpl@3@U563@U563@U563@U563@U563@U563@U563@U563@U563@U563@U563@U563@U563@U563@U563@U563@U563@@multi_index@boost@@V?$allocator@U?$pair@$$CBV?$basic_string@DU?$char_traits@D@std@@V?$allocator@D@2@@std@@V?$basic_ptree@V?$basic_string@DU?$char_traits@D@std@@V?$allocator@D@2@@std@@V12@U?$less@V?$basic_string@DU?$char_traits@D@std@@V?$allocator@D@2@@std@@@2@@property_tree@boost@@@std@@@2@@multi_index@boost@@QAEPAXI@Z 10017710 f i JsonWriter.obj
 0001:00016740       ??1?$stream_translator@DU?$char_traits@D@std@@V?$allocator@D@2@V?$Point_@H@cv@@@property_tree@boost@@QAE@XZ 10017740 f i JsonWriter.obj
 0001:00016760       ??_D?$basic_ofstream@DU?$char_traits@D@std@@@std@@QAEXXZ 10017760 f i JsonWriter.obj
 0001:00016790       ??0?$stream_translator@DU?$char_traits@D@std@@V?$allocator@D@2@V?$Point_@H@cv@@@property_tree@boost@@QAE@Vlocale@std@@@Z 10017790 f i JsonWriter.obj
 0001:000167c0       ??C?$iterator_facade_base@Vassoc_iterator@?$basic_ptree@V?$basic_string@DU?$char_traits@D@std@@V?$allocator@D@2@@std@@V12@U?$less@V?$basic_string@DU?$char_traits@D@std@@V?$allocator@D@2@@std@@@2@@property_tree@boost@@U?$pair@$$CBV?$basic_string@DU?$char_traits@D@std@@V?$allocator@D@2@@std@@V?$basic_ptree@V?$basic_string@DU?$char_traits@D@std@@V?$allocator@D@2@@std@@V12@U?$less@V?$basic_string@DU?$char_traits@D@std@@V?$allocator@D@2@@std@@@2@@property_tree@boost@@@std@@Ubidirectional_traversal_tag@iterators@4@AAU56@H$0A@$0A@@detail@iterators@boost@@QBEPAU?$pair@$$CBV?$basic_string@DU?$char_traits@D@std@@V?$allocator@D@2@@std@@V?$basic_ptree@V?$basic_string@DU?$char_traits@D@std@@V?$allocator@D@2@@std@@V12@U?$less@V?$basic_string@DU?$char_traits@D@std@@V?$allocator@D@2@@std@@@2@@property_tree@boost@@@std@@XZ 100177c0 f i JsonWriter.obj
 0001:000167c0       ??C?$iterator_facade_base@Viterator@?$basic_ptree@V?$basic_string@DU?$char_traits@D@std@@V?$allocator@D@2@@std@@V12@U?$less@V?$basic_string@DU?$char_traits@D@std@@V?$allocator@D@2@@std@@@2@@property_tree@boost@@U?$pair@$$CBV?$basic_string@DU?$char_traits@D@std@@V?$allocator@D@2@@std@@V?$basic_ptree@V?$basic_string@DU?$char_traits@D@std@@V?$allocator@D@2@@std@@V12@U?$less@V?$basic_string@DU?$char_traits@D@std@@V?$allocator@D@2@@std@@@2@@property_tree@boost@@@std@@Ubidirectional_traversal_tag@iterators@4@AAU56@H$0A@$0A@@detail@iterators@boost@@QBEPAU?$pair@$$CBV?$basic_string@DU?$char_traits@D@std@@V?$allocator@D@2@@std@@V?$basic_ptree@V?$basic_string@DU?$char_traits@D@std@@V?$allocator@D@2@@std@@V12@U?$less@V?$basic_string@DU?$char_traits@D@std@@V?$allocator@D@2@@std@@@2@@property_tree@boost@@@std@@XZ 100177c0 f i JsonWriter.obj
 0001:000167f0       ??0?$cons@Unull_type@tuples@boost@@U?$cons@V?$tuple@U?$member@U?$pair@$$CBV?$basic_string@DU?$char_traits@D@std@@V?$allocator@D@2@@std@@V?$basic_ptree@V?$basic_string@DU?$char_traits@D@std@@V?$allocator@D@2@@std@@V12@U?$less@V?$basic_string@DU?$char_traits@D@std@@V?$allocator@D@2@@std@@@2@@property_tree@boost@@@std@@$$CBV?$basic_string@DU?$char_traits@D@std@@V?$allocator@D@2@@2@$0A@@multi_index@boost@@U?$less@V?$basic_string@DU?$char_traits@D@std@@V?$allocator@D@2@@std@@@std@@Unull_type@tuples@3@U673@U673@U673@U673@U673@U673@U673@@tuples@boost@@Unull_type@23@@23@@tuples@boost@@QAE@XZ 100177f0 f i JsonWriter.obj
 0001:00016810       ?push_back@?$sequenced_index@U?$nth_layer@$00U?$pair@$$CBV?$basic_string@DU?$char_traits@D@std@@V?$allocator@D@2@@std@@V?$basic_ptree@V?$basic_string@DU?$char_traits@D@std@@V?$allocator@D@2@@std@@V12@U?$less@V?$basic_string@DU?$char_traits@D@std@@V?$allocator@D@2@@std@@@2@@property_tree@boost@@@std@@U?$indexed_by@U?$sequenced@U?$tag@Una@mpl@boost@@U123@U123@U123@U123@U123@U123@U123@U123@U123@U123@U123@U123@U123@U123@U123@U123@U123@U123@U123@@multi_index@boost@@@multi_index@boost@@U?$ordered_non_unique@U?$tag@Uby_name@subs@?$basic_ptree@V?$basic_string@DU?$char_traits@D@std@@V?$allocator@D@2@@std@@V12@U?$less@V?$basic_string@DU?$char_traits@D@std@@V?$allocator@D@2@@std@@@2@@property_tree@boost@@Una@mpl@5@U675@U675@U675@U675@U675@U675@U675@U675@U675@U675@U675@U675@U675@U675@U675@U675@U675@U675@@multi_index@boost@@U?$member@U?$pair@$$CBV?$basic_string@DU?$char_traits@D@std@@V?$allocator@D@2@@std@@V?$basic_ptree@V?$basic_string@DU?$char_traits@D@std@@V?$allocator@D@2@@std@@V12@U?$less@V?$basic_string@DU?$char_traits@D@std@@V?$allocator@D@2@@std@@@2@@property_tree@boost@@@std@@$$CBV?$basic_string@DU?$char_traits@D@std@@V?$allocator@D@2@@2@$0A@@23@U?$less@V?$basic_string@DU?$char_traits@D@std@@V?$allocator@D@2@@std@@@std@@@23@Una@mpl@3@U563@U563@U563@U563@U563@U563@U563@U563@U563@U563@U563@U563@U563@U563@U563@U563@U563@@multi_index@boost@@V?$allocator@U?$pair@$$CBV?$basic_string@DU?$char_traits@D@std@@V?$allocator@D@2@@std@@V?$basic_ptree@V?$basic_string@DU?$char_traits@D@std@@V?$allocator@D@2@@std@@V12@U?$less@V?$basic_string@DU?$char_traits@D@std@@V?$allocator@D@2@@std@@@2@@property_tree@boost@@@std@@@2@@detail@multi_index@boost@@U?$vector0@Una@mpl@boost@@@mpl@4@@detail@multi_index@boost@@QAE?AU?$pair@V?$bidir_node_iterator@U?$sequenced_index_node@U?$ordered_index_node@Unull_augment_policy@detail@multi_index@boost@@U?$index_node_base@U?$pair@$$CBV?$basic_string@DU?$char_traits@D@std@@V?$allocator@D@2@@std@@V?$basic_ptree@V?$basic_string@DU?$char_traits@D@std@@V?$allocator@D@2@@std@@V12@U?$less@V?$basic_string@DU?$char_traits@D@std@@V?$allocator@D@2@@std@@@2@@property_tree@boost@@@std@@V?$allocator@U?$pair@$$CBV?$basic_string@DU?$char_traits@D@std@@V?$allocator@D@2@@std@@V?$basic_ptree@V?$basic_string@DU?$char_traits@D@std@@V?$allocator@D@2@@std@@V12@U?$less@V?$basic_string@DU?$char_traits@D@std@@V?$allocator@D@2@@std@@@2@@property_tree@boost@@@std@@@2@@234@@detail@multi_index@boost@@@detail@multi_index@boost@@@detail@multi_index@boost@@_N@std@@ABU?$pair@$$CBV?$basic_string@DU?$char_traits@D@std@@V?$allocator@D@2@@std@@V?$basic_ptree@V?$basic_string@DU?$char_traits@D@std@@V?$allocator@D@2@@std@@V12@U?$less@V?$basic_string@DU?$char_traits@D@std@@V?$allocator@D@2@@std@@@2@@property_tree@boost@@@6@@Z 10017810 f i JsonWriter.obj
 0001:00016850       ??1?$multi_index_container@U?$pair@$$CBV?$basic_string@DU?$char_traits@D@std@@V?$allocator@D@2@@std@@V?$basic_ptree@V?$basic_string@DU?$char_traits@D@std@@V?$allocator@D@2@@std@@V12@U?$less@V?$basic_string@DU?$char_traits@D@std@@V?$allocator@D@2@@std@@@2@@property_tree@boost@@@std@@U?$indexed_by@U?$sequenced@U?$tag@Una@mpl@boost@@U123@U123@U123@U123@U123@U123@U123@U123@U123@U123@U123@U123@U123@U123@U123@U123@U123@U123@U123@@multi_index@boost@@@multi_index@boost@@U?$ordered_non_unique@U?$tag@Uby_name@subs@?$basic_ptree@V?$basic_string@DU?$char_traits@D@std@@V?$allocator@D@2@@std@@V12@U?$less@V?$basic_string@DU?$char_traits@D@std@@V?$allocator@D@2@@std@@@2@@property_tree@boost@@Una@mpl@5@U675@U675@U675@U675@U675@U675@U675@U675@U675@U675@U675@U675@U675@U675@U675@U675@U675@U675@@multi_index@boost@@U?$member@U?$pair@$$CBV?$basic_string@DU?$char_traits@D@std@@V?$allocator@D@2@@std@@V?$basic_ptree@V?$basic_string@DU?$char_traits@D@std@@V?$allocator@D@2@@std@@V12@U?$less@V?$basic_string@DU?$char_traits@D@std@@V?$allocator@D@2@@std@@@2@@property_tree@boost@@@std@@$$CBV?$basic_string@DU?$char_traits@D@std@@V?$allocator@D@2@@2@$0A@@23@U?$less@V?$basic_string@DU?$char_traits@D@std@@V?$allocator@D@2@@std@@@std@@@23@Una@mpl@3@U563@U563@U563@U563@U563@U563@U563@U563@U563@U563@U563@U563@U563@U563@U563@U563@U563@@multi_index@boost@@V?$allocator@U?$pair@$$CBV?$basic_string@DU?$char_traits@D@std@@V?$allocator@D@2@@std@@V?$basic_ptree@V?$basic_string@DU?$char_traits@D@std@@V?$allocator@D@2@@std@@V12@U?$less@V?$basic_string@DU?$char_traits@D@std@@V?$allocator@D@2@@std@@@2@@property_tree@boost@@@std@@@2@@multi_index@boost@@QAE@XZ 10017850 f i JsonWriter.obj
 0001:000168b0       ??0?$multi_index_container@U?$pair@$$CBV?$basic_string@DU?$char_traits@D@std@@V?$allocator@D@2@@std@@V?$basic_ptree@V?$basic_string@DU?$char_traits@D@std@@V?$allocator@D@2@@std@@V12@U?$less@V?$basic_string@DU?$char_traits@D@std@@V?$allocator@D@2@@std@@@2@@property_tree@boost@@@std@@U?$indexed_by@U?$sequenced@U?$tag@Una@mpl@boost@@U123@U123@U123@U123@U123@U123@U123@U123@U123@U123@U123@U123@U123@U123@U123@U123@U123@U123@U123@@multi_index@boost@@@multi_index@boost@@U?$ordered_non_unique@U?$tag@Uby_name@subs@?$basic_ptree@V?$basic_string@DU?$char_traits@D@std@@V?$allocator@D@2@@std@@V12@U?$less@V?$basic_string@DU?$char_traits@D@std@@V?$allocator@D@2@@std@@@2@@property_tree@boost@@Una@mpl@5@U675@U675@U675@U675@U675@U675@U675@U675@U675@U675@U675@U675@U675@U675@U675@U675@U675@U675@@multi_index@boost@@U?$member@U?$pair@$$CBV?$basic_string@DU?$char_traits@D@std@@V?$allocator@D@2@@std@@V?$basic_ptree@V?$basic_string@DU?$char_traits@D@std@@V?$allocator@D@2@@std@@V12@U?$less@V?$basic_string@DU?$char_traits@D@std@@V?$allocator@D@2@@std@@@2@@property_tree@boost@@@std@@$$CBV?$basic_string@DU?$char_traits@D@std@@V?$allocator@D@2@@2@$0A@@23@U?$less@V?$basic_string@DU?$char_traits@D@std@@V?$allocator@D@2@@std@@@std@@@23@Una@mpl@3@U563@U563@U563@U563@U563@U563@U563@U563@U563@U563@U563@U563@U563@U563@U563@U563@U563@@multi_index@boost@@V?$allocator@U?$pair@$$CBV?$basic_string@DU?$char_traits@D@std@@V?$allocator@D@2@@std@@V?$basic_ptree@V?$basic_string@DU?$char_traits@D@std@@V?$allocator@D@2@@std@@V12@U?$less@V?$basic_string@DU?$char_traits@D@std@@V?$allocator@D@2@@std@@@2@@property_tree@boost@@@std@@@2@@multi_index@boost@@QAE@ABV012@@Z 100178b0 f i JsonWriter.obj
 0001:00016a30       ??0?$multi_index_container@U?$pair@$$CBV?$basic_string@DU?$char_traits@D@std@@V?$allocator@D@2@@std@@V?$basic_ptree@V?$basic_string@DU?$char_traits@D@std@@V?$allocator@D@2@@std@@V12@U?$less@V?$basic_string@DU?$char_traits@D@std@@V?$allocator@D@2@@std@@@2@@property_tree@boost@@@std@@U?$indexed_by@U?$sequenced@U?$tag@Una@mpl@boost@@U123@U123@U123@U123@U123@U123@U123@U123@U123@U123@U123@U123@U123@U123@U123@U123@U123@U123@U123@@multi_index@boost@@@multi_index@boost@@U?$ordered_non_unique@U?$tag@Uby_name@subs@?$basic_ptree@V?$basic_string@DU?$char_traits@D@std@@V?$allocator@D@2@@std@@V12@U?$less@V?$basic_string@DU?$char_traits@D@std@@V?$allocator@D@2@@std@@@2@@property_tree@boost@@Una@mpl@5@U675@U675@U675@U675@U675@U675@U675@U675@U675@U675@U675@U675@U675@U675@U675@U675@U675@U675@@multi_index@boost@@U?$member@U?$pair@$$CBV?$basic_string@DU?$char_traits@D@std@@V?$allocator@D@2@@std@@V?$basic_ptree@V?$basic_string@DU?$char_traits@D@std@@V?$allocator@D@2@@std@@V12@U?$less@V?$basic_string@DU?$char_traits@D@std@@V?$allocator@D@2@@std@@@2@@property_tree@boost@@@std@@$$CBV?$basic_string@DU?$char_traits@D@std@@V?$allocator@D@2@@2@$0A@@23@U?$less@V?$basic_string@DU?$char_traits@D@std@@V?$allocator@D@2@@std@@@std@@@23@Una@mpl@3@U563@U563@U563@U563@U563@U563@U563@U563@U563@U563@U563@U563@U563@U563@U563@U563@U563@@multi_index@boost@@V?$allocator@U?$pair@$$CBV?$basic_string@DU?$char_traits@D@std@@V?$allocator@D@2@@std@@V?$basic_ptree@V?$basic_string@DU?$char_traits@D@std@@V?$allocator@D@2@@std@@V12@U?$less@V?$basic_string@DU?$char_traits@D@std@@V?$allocator@D@2@@std@@@2@@property_tree@boost@@@std@@@2@@multi_index@boost@@QAE@ABU?$cons@Unull_type@tuples@boost@@U?$cons@V?$tuple@U?$member@U?$pair@$$CBV?$basic_string@DU?$char_traits@D@std@@V?$allocator@D@2@@std@@V?$basic_ptree@V?$basic_string@DU?$char_traits@D@std@@V?$allocator@D@2@@std@@V12@U?$less@V?$basic_string@DU?$char_traits@D@std@@V?$allocator@D@2@@std@@@2@@property_tree@boost@@@std@@$$CBV?$basic_string@DU?$char_traits@D@std@@V?$allocator@D@2@@2@$0A@@multi_index@boost@@U?$less@V?$basic_string@DU?$char_traits@D@std@@V?$allocator@D@2@@std@@@std@@Unull_type@tuples@3@U673@U673@U673@U673@U673@U673@U673@@tuples@boost@@Unull_type@23@@23@@tuples@2@ABV?$allocator@U?$pair@$$CBV?$basic_string@DU?$char_traits@D@std@@V?$allocator@D@2@@std@@V?$basic_ptree@V?$basic_string@DU?$char_traits@D@std@@V?$allocator@D@2@@std@@V12@U?$less@V?$basic_string@DU?$char_traits@D@std@@V?$allocator@D@2@@std@@@2@@property_tree@boost@@@std@@@std@@@Z 10017a30 f i JsonWriter.obj
 0001:00016ac0       ?ch@subs@?$basic_ptree@V?$basic_string@DU?$char_traits@D@std@@V?$allocator@D@2@@std@@V12@U?$less@V?$basic_string@DU?$char_traits@D@std@@V?$allocator@D@2@@std@@@2@@property_tree@boost@@SAABV?$multi_index_container@U?$pair@$$CBV?$basic_string@DU?$char_traits@D@std@@V?$allocator@D@2@@std@@V?$basic_ptree@V?$basic_string@DU?$char_traits@D@std@@V?$allocator@D@2@@std@@V12@U?$less@V?$basic_string@DU?$char_traits@D@std@@V?$allocator@D@2@@std@@@2@@property_tree@boost@@@std@@U?$indexed_by@U?$sequenced@U?$tag@Una@mpl@boost@@U123@U123@U123@U123@U123@U123@U123@U123@U123@U123@U123@U123@U123@U123@U123@U123@U123@U123@U123@@multi_index@boost@@@multi_index@boost@@U?$ordered_non_unique@U?$tag@Uby_name@subs@?$basic_ptree@V?$basic_string@DU?$char_traits@D@std@@V?$allocator@D@2@@std@@V12@U?$less@V?$basic_string@DU?$char_traits@D@std@@V?$allocator@D@2@@std@@@2@@property_tree@boost@@Una@mpl@5@U675@U675@U675@U675@U675@U675@U675@U675@U675@U675@U675@U675@U675@U675@U675@U675@U675@U675@@multi_index@boost@@U?$member@U?$pair@$$CBV?$basic_string@DU?$char_traits@D@std@@V?$allocator@D@2@@std@@V?$basic_ptree@V?$basic_string@DU?$char_traits@D@std@@V?$allocator@D@2@@std@@V12@U?$less@V?$basic_string@DU?$char_traits@D@std@@V?$allocator@D@2@@std@@@2@@property_tree@boost@@@std@@$$CBV?$basic_string@DU?$char_traits@D@std@@V?$allocator@D@2@@2@$0A@@23@U?$less@V?$basic_string@DU?$char_traits@D@std@@V?$allocator@D@2@@std@@@std@@@23@Una@mpl@3@U563@U563@U563@U563@U563@U563@U563@U563@U563@U563@U563@U563@U563@U563@U563@U563@U563@@multi_index@boost@@V?$allocator@U?$pair@$$CBV?$basic_string@DU?$char_traits@D@std@@V?$allocator@D@2@@std@@V?$basic_ptree@V?$basic_string@DU?$char_traits@D@std@@V?$allocator@D@2@@std@@V12@U?$less@V?$basic_string@DU?$char_traits@D@std@@V?$allocator@D@2@@std@@@2@@property_tree@boost@@@std@@@2@@multi_index@4@PBV234@@Z 10017ac0 f i JsonWriter.obj
 0001:00016ac0       ?ch@subs@?$basic_ptree@V?$basic_string@DU?$char_traits@D@std@@V?$allocator@D@2@@std@@V12@U?$less@V?$basic_string@DU?$char_traits@D@std@@V?$allocator@D@2@@std@@@2@@property_tree@boost@@SAAAV?$multi_index_container@U?$pair@$$CBV?$basic_string@DU?$char_traits@D@std@@V?$allocator@D@2@@std@@V?$basic_ptree@V?$basic_string@DU?$char_traits@D@std@@V?$allocator@D@2@@std@@V12@U?$less@V?$basic_string@DU?$char_traits@D@std@@V?$allocator@D@2@@std@@@2@@property_tree@boost@@@std@@U?$indexed_by@U?$sequenced@U?$tag@Una@mpl@boost@@U123@U123@U123@U123@U123@U123@U123@U123@U123@U123@U123@U123@U123@U123@U123@U123@U123@U123@U123@@multi_index@boost@@@multi_index@boost@@U?$ordered_non_unique@U?$tag@Uby_name@subs@?$basic_ptree@V?$basic_string@DU?$char_traits@D@std@@V?$allocator@D@2@@std@@V12@U?$less@V?$basic_string@DU?$char_traits@D@std@@V?$allocator@D@2@@std@@@2@@property_tree@boost@@Una@mpl@5@U675@U675@U675@U675@U675@U675@U675@U675@U675@U675@U675@U675@U675@U675@U675@U675@U675@U675@@multi_index@boost@@U?$member@U?$pair@$$CBV?$basic_string@DU?$char_traits@D@std@@V?$allocator@D@2@@std@@V?$basic_ptree@V?$basic_string@DU?$char_traits@D@std@@V?$allocator@D@2@@std@@V12@U?$less@V?$basic_string@DU?$char_traits@D@std@@V?$allocator@D@2@@std@@@2@@property_tree@boost@@@std@@$$CBV?$basic_string@DU?$char_traits@D@std@@V?$allocator@D@2@@2@$0A@@23@U?$less@V?$basic_string@DU?$char_traits@D@std@@V?$allocator@D@2@@std@@@std@@@23@Una@mpl@3@U563@U563@U563@U563@U563@U563@U563@U563@U563@U563@U563@U563@U563@U563@U563@U563@U563@@multi_index@boost@@V?$allocator@U?$pair@$$CBV?$basic_string@DU?$char_traits@D@std@@V?$allocator@D@2@@std@@V?$basic_ptree@V?$basic_string@DU?$char_traits@D@std@@V?$allocator@D@2@@std@@V12@U?$less@V?$basic_string@DU?$char_traits@D@std@@V?$allocator@D@2@@std@@@2@@property_tree@boost@@@std@@@2@@multi_index@4@PAV234@@Z 10017ac0 f i JsonWriter.obj
 0001:00016ad0       ??0iterator@?$basic_ptree@V?$basic_string@DU?$char_traits@D@std@@V?$allocator@D@2@@std@@V12@U?$less@V?$basic_string@DU?$char_traits@D@std@@V?$allocator@D@2@@std@@@2@@property_tree@boost@@QAE@V?$bidir_node_iterator@U?$sequenced_index_node@U?$ordered_index_node@Unull_augment_policy@detail@multi_index@boost@@U?$index_node_base@U?$pair@$$CBV?$basic_string@DU?$char_traits@D@std@@V?$allocator@D@2@@std@@V?$basic_ptree@V?$basic_string@DU?$char_traits@D@std@@V?$allocator@D@2@@std@@V12@U?$less@V?$basic_string@DU?$char_traits@D@std@@V?$allocator@D@2@@std@@@2@@property_tree@boost@@@std@@V?$allocator@U?$pair@$$CBV?$basic_string@DU?$char_traits@D@std@@V?$allocator@D@2@@std@@V?$basic_ptree@V?$basic_string@DU?$char_traits@D@std@@V?$allocator@D@2@@std@@V12@U?$less@V?$basic_string@DU?$char_traits@D@std@@V?$allocator@D@2@@std@@@2@@property_tree@boost@@@std@@@2@@234@@detail@multi_index@boost@@@detail@multi_index@boost@@@detail@multi_index@3@@Z 10017ad0 f i JsonWriter.obj
 0001:00016ad0       ??0const_assoc_iterator@?$basic_ptree@V?$basic_string@DU?$char_traits@D@std@@V?$allocator@D@2@@std@@V12@U?$less@V?$basic_string@DU?$char_traits@D@std@@V?$allocator@D@2@@std@@@2@@property_tree@boost@@QAE@V?$bidir_node_iterator@U?$ordered_index_node@Unull_augment_policy@detail@multi_index@boost@@U?$index_node_base@U?$pair@$$CBV?$basic_string@DU?$char_traits@D@std@@V?$allocator@D@2@@std@@V?$basic_ptree@V?$basic_string@DU?$char_traits@D@std@@V?$allocator@D@2@@std@@V12@U?$less@V?$basic_string@DU?$char_traits@D@std@@V?$allocator@D@2@@std@@@2@@property_tree@boost@@@std@@V?$allocator@U?$pair@$$CBV?$basic_string@DU?$char_traits@D@std@@V?$allocator@D@2@@std@@V?$basic_ptree@V?$basic_string@DU?$char_traits@D@std@@V?$allocator@D@2@@std@@V12@U?$less@V?$basic_string@DU?$char_traits@D@std@@V?$allocator@D@2@@std@@@2@@property_tree@boost@@@std@@@2@@234@@detail@multi_index@boost@@@detail@multi_index@3@@Z 10017ad0 f i JsonWriter.obj
 0001:00016ad0       ??0assoc_iterator@?$basic_ptree@V?$basic_string@DU?$char_traits@D@std@@V?$allocator@D@2@@std@@V12@U?$less@V?$basic_string@DU?$char_traits@D@std@@V?$allocator@D@2@@std@@@2@@property_tree@boost@@QAE@V?$bidir_node_iterator@U?$ordered_index_node@Unull_augment_policy@detail@multi_index@boost@@U?$index_node_base@U?$pair@$$CBV?$basic_string@DU?$char_traits@D@std@@V?$allocator@D@2@@std@@V?$basic_ptree@V?$basic_string@DU?$char_traits@D@std@@V?$allocator@D@2@@std@@V12@U?$less@V?$basic_string@DU?$char_traits@D@std@@V?$allocator@D@2@@std@@@2@@property_tree@boost@@@std@@V?$allocator@U?$pair@$$CBV?$basic_string@DU?$char_traits@D@std@@V?$allocator@D@2@@std@@V?$basic_ptree@V?$basic_string@DU?$char_traits@D@std@@V?$allocator@D@2@@std@@V12@U?$less@V?$basic_string@DU?$char_traits@D@std@@V?$allocator@D@2@@std@@@2@@property_tree@boost@@@std@@@2@@234@@detail@multi_index@boost@@@detail@multi_index@3@@Z 10017ad0 f i JsonWriter.obj
 0001:00016ad0       ??0const_iterator@?$basic_ptree@V?$basic_string@DU?$char_traits@D@std@@V?$allocator@D@2@@std@@V12@U?$less@V?$basic_string@DU?$char_traits@D@std@@V?$allocator@D@2@@std@@@2@@property_tree@boost@@QAE@V?$bidir_node_iterator@U?$sequenced_index_node@U?$ordered_index_node@Unull_augment_policy@detail@multi_index@boost@@U?$index_node_base@U?$pair@$$CBV?$basic_string@DU?$char_traits@D@std@@V?$allocator@D@2@@std@@V?$basic_ptree@V?$basic_string@DU?$char_traits@D@std@@V?$allocator@D@2@@std@@V12@U?$less@V?$basic_string@DU?$char_traits@D@std@@V?$allocator@D@2@@std@@@2@@property_tree@boost@@@std@@V?$allocator@U?$pair@$$CBV?$basic_string@DU?$char_traits@D@std@@V?$allocator@D@2@@std@@V?$basic_ptree@V?$basic_string@DU?$char_traits@D@std@@V?$allocator@D@2@@std@@V12@U?$less@V?$basic_string@DU?$char_traits@D@std@@V?$allocator@D@2@@std@@@2@@property_tree@boost@@@std@@@2@@234@@detail@multi_index@boost@@@detail@multi_index@boost@@@detail@multi_index@3@@Z 10017ad0 f i JsonWriter.obj
 0001:00016af0       ??1?$basic_ofstream@DU?$char_traits@D@std@@@std@@UAE@XZ 10017af0 f i JsonWriter.obj
 0001:00016b50       ??0?$basic_ofstream@DU?$char_traits@D@std@@@std@@QAE@PBDHH@Z 10017b50 f i JsonWriter.obj
 0001:00016c50       ?imbue@?$basic_filebuf@DU?$char_traits@D@std@@@std@@MAEXABVlocale@2@@Z 10017c50 f i JsonWriter.obj
 0001:00016c80       ?sync@?$basic_filebuf@DU?$char_traits@D@std@@@std@@MAEHXZ 10017c80 f i JsonWriter.obj
 0001:00016d00       ?setbuf@?$basic_filebuf@DU?$char_traits@D@std@@@std@@MAEPAV?$basic_streambuf@DU?$char_traits@D@std@@@2@PAD_J@Z 10017d00 f i JsonWriter.obj
 0001:00016d70       ?seekpos@?$basic_filebuf@DU?$char_traits@D@std@@@std@@MAE?AV?$fpos@U_Mbstatet@@@2@V32@H@Z 10017d70 f i JsonWriter.obj
 0001:00016e80       ?seekoff@?$basic_filebuf@DU?$char_traits@D@std@@@std@@MAE?AV?$fpos@U_Mbstatet@@@2@_JHH@Z 10017e80 f i JsonWriter.obj
 0001:00016f80       ?uflow@?$basic_filebuf@DU?$char_traits@D@std@@@std@@MAEHXZ 10017f80 f i JsonWriter.obj
 0001:00017280       ?underflow@?$basic_filebuf@DU?$char_traits@D@std@@@std@@MAEHXZ 10018280 f i JsonWriter.obj
 0001:00017330       ?pbackfail@?$basic_filebuf@DU?$char_traits@D@std@@@std@@MAEHH@Z 10018330 f i JsonWriter.obj
 0001:00017490       ?overflow@?$basic_filebuf@DU?$char_traits@D@std@@@std@@MAEHH@Z 10018490 f i JsonWriter.obj
 0001:000177c0       ?_Unlock@?$basic_filebuf@DU?$char_traits@D@std@@@std@@UAEXXZ 100187c0 f i JsonWriter.obj
 0001:000177f0       ?_Lock@?$basic_filebuf@DU?$char_traits@D@std@@@std@@UAEXXZ 100187f0 f i JsonWriter.obj
 0001:00017820       ??1?$basic_filebuf@DU?$char_traits@D@std@@@std@@UAE@XZ 10018820 f i JsonWriter.obj
 0001:00017890       ??_G?$basic_ofstream@DU?$char_traits@D@std@@@std@@UAEPAXI@Z 10018890 f i JsonWriter.obj
 0001:00017890       ??_E?$basic_ofstream@DU?$char_traits@D@std@@@std@@UAEPAXI@Z 10018890 f i * CIL library *:* CIL module *
 0001:000178d0       ??_E?$basic_filebuf@DU?$char_traits@D@std@@@std@@UAEPAXI@Z 100188d0 f i * CIL library *:* CIL module *
 0001:000178d0       ??_G?$basic_filebuf@DU?$char_traits@D@std@@@std@@UAEPAXI@Z 100188d0 f i JsonWriter.obj
 0001:00017900       ??D?$iterator_facade_base@Viterator@?$basic_ptree@V?$basic_string@DU?$char_traits@D@std@@V?$allocator@D@2@@std@@V12@U?$less@V?$basic_string@DU?$char_traits@D@std@@V?$allocator@D@2@@std@@@2@@property_tree@boost@@U?$pair@$$CBV?$basic_string@DU?$char_traits@D@std@@V?$allocator@D@2@@std@@V?$basic_ptree@V?$basic_string@DU?$char_traits@D@std@@V?$allocator@D@2@@std@@V12@U?$less@V?$basic_string@DU?$char_traits@D@std@@V?$allocator@D@2@@std@@@2@@property_tree@boost@@@std@@Ubidirectional_traversal_tag@iterators@4@AAU56@H$0A@$0A@@detail@iterators@boost@@QBEAAU?$pair@$$CBV?$basic_string@DU?$char_traits@D@std@@V?$allocator@D@2@@std@@V?$basic_ptree@V?$basic_string@DU?$char_traits@D@std@@V?$allocator@D@2@@std@@V12@U?$less@V?$basic_string@DU?$char_traits@D@std@@V?$allocator@D@2@@std@@@2@@property_tree@boost@@@std@@XZ 10018900 f i JsonWriter.obj
 0001:00017900       ??D?$iterator_facade_base@Vassoc_iterator@?$basic_ptree@V?$basic_string@DU?$char_traits@D@std@@V?$allocator@D@2@@std@@V12@U?$less@V?$basic_string@DU?$char_traits@D@std@@V?$allocator@D@2@@std@@@2@@property_tree@boost@@U?$pair@$$CBV?$basic_string@DU?$char_traits@D@std@@V?$allocator@D@2@@std@@V?$basic_ptree@V?$basic_string@DU?$char_traits@D@std@@V?$allocator@D@2@@std@@V12@U?$less@V?$basic_string@DU?$char_traits@D@std@@V?$allocator@D@2@@std@@@2@@property_tree@boost@@@std@@Ubidirectional_traversal_tag@iterators@4@AAU56@H$0A@$0A@@detail@iterators@boost@@QBEAAU?$pair@$$CBV?$basic_string@DU?$char_traits@D@std@@V?$allocator@D@2@@std@@V?$basic_ptree@V?$basic_string@DU?$char_traits@D@std@@V?$allocator@D@2@@std@@V12@U?$less@V?$basic_string@DU?$char_traits@D@std@@V?$allocator@D@2@@std@@@2@@property_tree@boost@@@std@@XZ 10018900 f i JsonWriter.obj
 0001:00017920       ??9operators_impl@boost@@YA_NABV?$bidir_node_iterator@U?$sequenced_index_node@U?$ordered_index_node@Unull_augment_policy@detail@multi_index@boost@@U?$index_node_base@U?$pair@$$CBV?$basic_string@DU?$char_traits@D@std@@V?$allocator@D@2@@std@@V?$basic_ptree@V?$basic_string@DU?$char_traits@D@std@@V?$allocator@D@2@@std@@V12@U?$less@V?$basic_string@DU?$char_traits@D@std@@V?$allocator@D@2@@std@@@2@@property_tree@boost@@@std@@V?$allocator@U?$pair@$$CBV?$basic_string@DU?$char_traits@D@std@@V?$allocator@D@2@@std@@V?$basic_ptree@V?$basic_string@DU?$char_traits@D@std@@V?$allocator@D@2@@std@@V12@U?$less@V?$basic_string@DU?$char_traits@D@std@@V?$allocator@D@2@@std@@@2@@property_tree@boost@@@std@@@2@@234@@detail@multi_index@boost@@@detail@multi_index@boost@@@detail@multi_index@1@0@Z 10018920 f i JsonWriter.obj
 0001:00017920       ??9operators_impl@boost@@YA_NABV?$bidir_node_iterator@U?$ordered_index_node@Unull_augment_policy@detail@multi_index@boost@@U?$index_node_base@U?$pair@$$CBV?$basic_string@DU?$char_traits@D@std@@V?$allocator@D@2@@std@@V?$basic_ptree@V?$basic_string@DU?$char_traits@D@std@@V?$allocator@D@2@@std@@V12@U?$less@V?$basic_string@DU?$char_traits@D@std@@V?$allocator@D@2@@std@@@2@@property_tree@boost@@@std@@V?$allocator@U?$pair@$$CBV?$basic_string@DU?$char_traits@D@std@@V?$allocator@D@2@@std@@V?$basic_ptree@V?$basic_string@DU?$char_traits@D@std@@V?$allocator@D@2@@std@@V12@U?$less@V?$basic_string@DU?$char_traits@D@std@@V?$allocator@D@2@@std@@@2@@property_tree@boost@@@std@@@2@@234@@detail@multi_index@boost@@@detail@multi_index@1@0@Z 10018920 f i JsonWriter.obj
 0001:00017960       ??0?$iterator_adaptor@Vassoc_iterator@?$basic_ptree@V?$basic_string@DU?$char_traits@D@std@@V?$allocator@D@2@@std@@V12@U?$less@V?$basic_string@DU?$char_traits@D@std@@V?$allocator@D@2@@std@@@2@@property_tree@boost@@V?$bidir_node_iterator@U?$ordered_index_node@Unull_augment_policy@detail@multi_index@boost@@U?$index_node_base@U?$pair@$$CBV?$basic_string@DU?$char_traits@D@std@@V?$allocator@D@2@@std@@V?$basic_ptree@V?$basic_string@DU?$char_traits@D@std@@V?$allocator@D@2@@std@@V12@U?$less@V?$basic_string@DU?$char_traits@D@std@@V?$allocator@D@2@@std@@@2@@property_tree@boost@@@std@@V?$allocator@U?$pair@$$CBV?$basic_string@DU?$char_traits@D@std@@V?$allocator@D@2@@std@@V?$basic_ptree@V?$basic_string@DU?$char_traits@D@std@@V?$allocator@D@2@@std@@V12@U?$less@V?$basic_string@DU?$char_traits@D@std@@V?$allocator@D@2@@std@@@2@@property_tree@boost@@@std@@@2@@234@@detail@multi_index@boost@@@detail@multi_index@4@U?$pair@$$CBV?$basic_string@DU?$char_traits@D@std@@V?$allocator@D@2@@std@@V?$basic_ptree@V?$basic_string@DU?$char_traits@D@std@@V?$allocator@D@2@@std@@V12@U?$less@V?$basic_string@DU?$char_traits@D@std@@V?$allocator@D@2@@std@@@2@@property_tree@boost@@@std@@Uuse_default@iterators@4@Uuse_default@iterators@4@Uuse_default@iterators@4@@iterators@boost@@QAE@ABV?$bidir_node_iterator@U?$ordered_index_node@Unull_augment_policy@detail@multi_index@boost@@U?$index_node_base@U?$pair@$$CBV?$basic_string@DU?$char_traits@D@std@@V?$allocator@D@2@@std@@V?$basic_ptree@V?$basic_string@DU?$char_traits@D@std@@V?$allocator@D@2@@std@@V12@U?$less@V?$basic_string@DU?$char_traits@D@std@@V?$allocator@D@2@@std@@@2@@property_tree@boost@@@std@@V?$allocator@U?$pair@$$CBV?$basic_string@DU?$char_traits@D@std@@V?$allocator@D@2@@std@@V?$basic_ptree@V?$basic_string@DU?$char_traits@D@std@@V?$allocator@D@2@@std@@V12@U?$less@V?$basic_string@DU?$char_traits@D@std@@V?$allocator@D@2@@std@@@2@@property_tree@boost@@@std@@@2@@234@@detail@multi_index@boost@@@detail@multi_index@2@@Z 10018960 f i JsonWriter.obj
 0001:00017960       ??0?$iterator_adaptor@Viterator@?$basic_ptree@V?$basic_string@DU?$char_traits@D@std@@V?$allocator@D@2@@std@@V12@U?$less@V?$basic_string@DU?$char_traits@D@std@@V?$allocator@D@2@@std@@@2@@property_tree@boost@@V?$bidir_node_iterator@U?$sequenced_index_node@U?$ordered_index_node@Unull_augment_policy@detail@multi_index@boost@@U?$index_node_base@U?$pair@$$CBV?$basic_string@DU?$char_traits@D@std@@V?$allocator@D@2@@std@@V?$basic_ptree@V?$basic_string@DU?$char_traits@D@std@@V?$allocator@D@2@@std@@V12@U?$less@V?$basic_string@DU?$char_traits@D@std@@V?$allocator@D@2@@std@@@2@@property_tree@boost@@@std@@V?$allocator@U?$pair@$$CBV?$basic_string@DU?$char_traits@D@std@@V?$allocator@D@2@@std@@V?$basic_ptree@V?$basic_string@DU?$char_traits@D@std@@V?$allocator@D@2@@std@@V12@U?$less@V?$basic_string@DU?$char_traits@D@std@@V?$allocator@D@2@@std@@@2@@property_tree@boost@@@std@@@2@@234@@detail@multi_index@boost@@@detail@multi_index@boost@@@detail@multi_index@4@U?$pair@$$CBV?$basic_string@DU?$char_traits@D@std@@V?$allocator@D@2@@std@@V?$basic_ptree@V?$basic_string@DU?$char_traits@D@std@@V?$allocator@D@2@@std@@V12@U?$less@V?$basic_string@DU?$char_traits@D@std@@V?$allocator@D@2@@std@@@2@@property_tree@boost@@@std@@Uuse_default@iterators@4@Uuse_default@iterators@4@Uuse_default@iterators@4@@iterators@boost@@QAE@ABV?$bidir_node_iterator@U?$sequenced_index_node@U?$ordered_index_node@Unull_augment_policy@detail@multi_index@boost@@U?$index_node_base@U?$pair@$$CBV?$basic_string@DU?$char_traits@D@std@@V?$allocator@D@2@@std@@V?$basic_ptree@V?$basic_string@DU?$char_traits@D@std@@V?$allocator@D@2@@std@@V12@U?$less@V?$basic_string@DU?$char_traits@D@std@@V?$allocator@D@2@@std@@@2@@property_tree@boost@@@std@@V?$allocator@U?$pair@$$CBV?$basic_string@DU?$char_traits@D@std@@V?$allocator@D@2@@std@@V?$basic_ptree@V?$basic_string@DU?$char_traits@D@std@@V?$allocator@D@2@@std@@V12@U?$less@V?$basic_string@DU?$char_traits@D@std@@V?$allocator@D@2@@std@@@2@@property_tree@boost@@@std@@@2@@234@@detail@multi_index@boost@@@detail@multi_index@boost@@@detail@multi_index@2@@Z 10018960 f i JsonWriter.obj
 0001:00017960       ??0?$iterator_adaptor@Vconst_iterator@?$basic_ptree@V?$basic_string@DU?$char_traits@D@std@@V?$allocator@D@2@@std@@V12@U?$less@V?$basic_string@DU?$char_traits@D@std@@V?$allocator@D@2@@std@@@2@@property_tree@boost@@V?$bidir_node_iterator@U?$sequenced_index_node@U?$ordered_index_node@Unull_augment_policy@detail@multi_index@boost@@U?$index_node_base@U?$pair@$$CBV?$basic_string@DU?$char_traits@D@std@@V?$allocator@D@2@@std@@V?$basic_ptree@V?$basic_string@DU?$char_traits@D@std@@V?$allocator@D@2@@std@@V12@U?$less@V?$basic_string@DU?$char_traits@D@std@@V?$allocator@D@2@@std@@@2@@property_tree@boost@@@std@@V?$allocator@U?$pair@$$CBV?$basic_string@DU?$char_traits@D@std@@V?$allocator@D@2@@std@@V?$basic_ptree@V?$basic_string@DU?$char_traits@D@std@@V?$allocator@D@2@@std@@V12@U?$less@V?$basic_string@DU?$char_traits@D@std@@V?$allocator@D@2@@std@@@2@@property_tree@boost@@@std@@@2@@234@@detail@multi_index@boost@@@detail@multi_index@boost@@@detail@multi_index@4@Uuse_default@iterators@4@U894@U894@U894@@iterators@boost@@QAE@ABV?$bidir_node_iterator@U?$sequenced_index_node@U?$ordered_index_node@Unull_augment_policy@detail@multi_index@boost@@U?$index_node_base@U?$pair@$$CBV?$basic_string@DU?$char_traits@D@std@@V?$allocator@D@2@@std@@V?$basic_ptree@V?$basic_string@DU?$char_traits@D@std@@V?$allocator@D@2@@std@@V12@U?$less@V?$basic_string@DU?$char_traits@D@std@@V?$allocator@D@2@@std@@@2@@property_tree@boost@@@std@@V?$allocator@U?$pair@$$CBV?$basic_string@DU?$char_traits@D@std@@V?$allocator@D@2@@std@@V?$basic_ptree@V?$basic_string@DU?$char_traits@D@std@@V?$allocator@D@2@@std@@V12@U?$less@V?$basic_string@DU?$char_traits@D@std@@V?$allocator@D@2@@std@@@2@@property_tree@boost@@@std@@@2@@234@@detail@multi_index@boost@@@detail@multi_index@boost@@@detail@multi_index@2@@Z 10018960 f i JsonWriter.obj
 0001:00017960       ??0?$iterator_adaptor@Vconst_assoc_iterator@?$basic_ptree@V?$basic_string@DU?$char_traits@D@std@@V?$allocator@D@2@@std@@V12@U?$less@V?$basic_string@DU?$char_traits@D@std@@V?$allocator@D@2@@std@@@2@@property_tree@boost@@V?$bidir_node_iterator@U?$ordered_index_node@Unull_augment_policy@detail@multi_index@boost@@U?$index_node_base@U?$pair@$$CBV?$basic_string@DU?$char_traits@D@std@@V?$allocator@D@2@@std@@V?$basic_ptree@V?$basic_string@DU?$char_traits@D@std@@V?$allocator@D@2@@std@@V12@U?$less@V?$basic_string@DU?$char_traits@D@std@@V?$allocator@D@2@@std@@@2@@property_tree@boost@@@std@@V?$allocator@U?$pair@$$CBV?$basic_string@DU?$char_traits@D@std@@V?$allocator@D@2@@std@@V?$basic_ptree@V?$basic_string@DU?$char_traits@D@std@@V?$allocator@D@2@@std@@V12@U?$less@V?$basic_string@DU?$char_traits@D@std@@V?$allocator@D@2@@std@@@2@@property_tree@boost@@@std@@@2@@234@@detail@multi_index@boost@@@detail@multi_index@4@Uuse_default@iterators@4@U894@U894@U894@@iterators@boost@@QAE@ABV?$bidir_node_iterator@U?$ordered_index_node@Unull_augment_policy@detail@multi_index@boost@@U?$index_node_base@U?$pair@$$CBV?$basic_string@DU?$char_traits@D@std@@V?$allocator@D@2@@std@@V?$basic_ptree@V?$basic_string@DU?$char_traits@D@std@@V?$allocator@D@2@@std@@V12@U?$less@V?$basic_string@DU?$char_traits@D@std@@V?$allocator@D@2@@std@@@2@@property_tree@boost@@@std@@V?$allocator@U?$pair@$$CBV?$basic_string@DU?$char_traits@D@std@@V?$allocator@D@2@@std@@V?$basic_ptree@V?$basic_string@DU?$char_traits@D@std@@V?$allocator@D@2@@std@@V12@U?$less@V?$basic_string@DU?$char_traits@D@std@@V?$allocator@D@2@@std@@@2@@property_tree@boost@@@std@@@2@@234@@detail@multi_index@boost@@@detail@multi_index@2@@Z 10018960 f i JsonWriter.obj
 0001:00017980       ??E?$bidir_node_iterator@U?$sequenced_index_node@U?$ordered_index_node@Unull_augment_policy@detail@multi_index@boost@@U?$index_node_base@U?$pair@$$CBV?$basic_string@DU?$char_traits@D@std@@V?$allocator@D@2@@std@@V?$basic_ptree@V?$basic_string@DU?$char_traits@D@std@@V?$allocator@D@2@@std@@V12@U?$less@V?$basic_string@DU?$char_traits@D@std@@V?$allocator@D@2@@std@@@2@@property_tree@boost@@@std@@V?$allocator@U?$pair@$$CBV?$basic_string@DU?$char_traits@D@std@@V?$allocator@D@2@@std@@V?$basic_ptree@V?$basic_string@DU?$char_traits@D@std@@V?$allocator@D@2@@std@@V12@U?$less@V?$basic_string@DU?$char_traits@D@std@@V?$allocator@D@2@@std@@@2@@property_tree@boost@@@std@@@2@@234@@detail@multi_index@boost@@@detail@multi_index@boost@@@detail@multi_index@boost@@QAEAAV0123@XZ 10018980 f i JsonWriter.obj
 0001:000179a0       ??0?$cons@V?$tuple@U?$member@U?$pair@$$CBV?$basic_string@DU?$char_traits@D@std@@V?$allocator@D@2@@std@@V?$basic_ptree@V?$basic_string@DU?$char_traits@D@std@@V?$allocator@D@2@@std@@V12@U?$less@V?$basic_string@DU?$char_traits@D@std@@V?$allocator@D@2@@std@@@2@@property_tree@boost@@@std@@$$CBV?$basic_string@DU?$char_traits@D@std@@V?$allocator@D@2@@2@$0A@@multi_index@boost@@U?$less@V?$basic_string@DU?$char_traits@D@std@@V?$allocator@D@2@@std@@@std@@Unull_type@tuples@3@U673@U673@U673@U673@U673@U673@U673@@tuples@boost@@Unull_type@23@@tuples@boost@@QAE@XZ 100189a0 f i JsonWriter.obj
 0001:000179c0       ?release@?$copy_map@U?$sequenced_index_node@U?$ordered_index_node@Unull_augment_policy@detail@multi_index@boost@@U?$index_node_base@U?$pair@$$CBV?$basic_string@DU?$char_traits@D@std@@V?$allocator@D@2@@std@@V?$basic_ptree@V?$basic_string@DU?$char_traits@D@std@@V?$allocator@D@2@@std@@V12@U?$less@V?$basic_string@DU?$char_traits@D@std@@V?$allocator@D@2@@std@@@2@@property_tree@boost@@@std@@V?$allocator@U?$pair@$$CBV?$basic_string@DU?$char_traits@D@std@@V?$allocator@D@2@@std@@V?$basic_ptree@V?$basic_string@DU?$char_traits@D@std@@V?$allocator@D@2@@std@@V12@U?$less@V?$basic_string@DU?$char_traits@D@std@@V?$allocator@D@2@@std@@@2@@property_tree@boost@@@std@@@2@@234@@detail@multi_index@boost@@@detail@multi_index@boost@@V?$allocator@U?$pair@$$CBV?$basic_string@DU?$char_traits@D@std@@V?$allocator@D@2@@std@@V?$basic_ptree@V?$basic_string@DU?$char_traits@D@std@@V?$allocator@D@2@@std@@V12@U?$less@V?$basic_string@DU?$char_traits@D@std@@V?$allocator@D@2@@std@@@2@@property_tree@boost@@@std@@@std@@@detail@multi_index@boost@@QAEXXZ 100189c0 f i JsonWriter.obj
 0001:000179e0       ?clone@?$copy_map@U?$sequenced_index_node@U?$ordered_index_node@Unull_augment_policy@detail@multi_index@boost@@U?$index_node_base@U?$pair@$$CBV?$basic_string@DU?$char_traits@D@std@@V?$allocator@D@2@@std@@V?$basic_ptree@V?$basic_string@DU?$char_traits@D@std@@V?$allocator@D@2@@std@@V12@U?$less@V?$basic_string@DU?$char_traits@D@std@@V?$allocator@D@2@@std@@@2@@property_tree@boost@@@std@@V?$allocator@U?$pair@$$CBV?$basic_string@DU?$char_traits@D@std@@V?$allocator@D@2@@std@@V?$basic_ptree@V?$basic_string@DU?$char_traits@D@std@@V?$allocator@D@2@@std@@V12@U?$less@V?$basic_string@DU?$char_traits@D@std@@V?$allocator@D@2@@std@@@2@@property_tree@boost@@@std@@@2@@234@@detail@multi_index@boost@@@detail@multi_index@boost@@V?$allocator@U?$pair@$$CBV?$basic_string@DU?$char_traits@D@std@@V?$allocator@D@2@@std@@V?$basic_ptree@V?$basic_string@DU?$char_traits@D@std@@V?$allocator@D@2@@std@@V12@U?$less@V?$basic_string@DU?$char_traits@D@std@@V?$allocator@D@2@@std@@@2@@property_tree@boost@@@std@@@std@@@detail@multi_index@boost@@QAEXPAU?$sequenced_index_node@U?$ordered_index_node@Unull_augment_policy@detail@multi_index@boost@@U?$index_node_base@U?$pair@$$CBV?$basic_string@DU?$char_traits@D@std@@V?$allocator@D@2@@std@@V?$basic_ptree@V?$basic_string@DU?$char_traits@D@std@@V?$allocator@D@2@@std@@V12@U?$less@V?$basic_string@DU?$char_traits@D@std@@V?$allocator@D@2@@std@@@2@@property_tree@boost@@@std@@V?$allocator@U?$pair@$$CBV?$basic_string@DU?$char_traits@D@std@@V?$allocator@D@2@@std@@V?$basic_ptree@V?$basic_string@DU?$char_traits@D@std@@V?$allocator@D@2@@std@@V12@U?$less@V?$basic_string@DU?$char_traits@D@std@@V?$allocator@D@2@@std@@@2@@property_tree@boost@@@std@@@2@@234@@detail@multi_index@boost@@@234@@Z 100189e0 f i JsonWriter.obj
 0001:00017b60       ??1?$copy_map@U?$sequenced_index_node@U?$ordered_index_node@Unull_augment_policy@detail@multi_index@boost@@U?$index_node_base@U?$pair@$$CBV?$basic_string@DU?$char_traits@D@std@@V?$allocator@D@2@@std@@V?$basic_ptree@V?$basic_string@DU?$char_traits@D@std@@V?$allocator@D@2@@std@@V12@U?$less@V?$basic_string@DU?$char_traits@D@std@@V?$allocator@D@2@@std@@@2@@property_tree@boost@@@std@@V?$allocator@U?$pair@$$CBV?$basic_string@DU?$char_traits@D@std@@V?$allocator@D@2@@std@@V?$basic_ptree@V?$basic_string@DU?$char_traits@D@std@@V?$allocator@D@2@@std@@V12@U?$less@V?$basic_string@DU?$char_traits@D@std@@V?$allocator@D@2@@std@@@2@@property_tree@boost@@@std@@@2@@234@@detail@multi_index@boost@@@detail@multi_index@boost@@V?$allocator@U?$pair@$$CBV?$basic_string@DU?$char_traits@D@std@@V?$allocator@D@2@@std@@V?$basic_ptree@V?$basic_string@DU?$char_traits@D@std@@V?$allocator@D@2@@std@@V12@U?$less@V?$basic_string@DU?$char_traits@D@std@@V?$allocator@D@2@@std@@@2@@property_tree@boost@@@std@@@std@@@detail@multi_index@boost@@QAE@XZ 10018b60 f i JsonWriter.obj
 0001:00017c10       ??0?$copy_map@U?$sequenced_index_node@U?$ordered_index_node@Unull_augment_policy@detail@multi_index@boost@@U?$index_node_base@U?$pair@$$CBV?$basic_string@DU?$char_traits@D@std@@V?$allocator@D@2@@std@@V?$basic_ptree@V?$basic_string@DU?$char_traits@D@std@@V?$allocator@D@2@@std@@V12@U?$less@V?$basic_string@DU?$char_traits@D@std@@V?$allocator@D@2@@std@@@2@@property_tree@boost@@@std@@V?$allocator@U?$pair@$$CBV?$basic_string@DU?$char_traits@D@std@@V?$allocator@D@2@@std@@V?$basic_ptree@V?$basic_string@DU?$char_traits@D@std@@V?$allocator@D@2@@std@@V12@U?$less@V?$basic_string@DU?$char_traits@D@std@@V?$allocator@D@2@@std@@@2@@property_tree@boost@@@std@@@2@@234@@detail@multi_index@boost@@@detail@multi_index@boost@@V?$allocator@U?$pair@$$CBV?$basic_string@DU?$char_traits@D@std@@V?$allocator@D@2@@std@@V?$basic_ptree@V?$basic_string@DU?$char_traits@D@std@@V?$allocator@D@2@@std@@V12@U?$less@V?$basic_string@DU?$char_traits@D@std@@V?$allocator@D@2@@std@@@2@@property_tree@boost@@@std@@@std@@@detail@multi_index@boost@@QAE@ABV?$allocator@U?$pair@$$CBV?$basic_string@DU?$char_traits@D@std@@V?$allocator@D@2@@std@@V?$basic_ptree@V?$basic_string@DU?$char_traits@D@std@@V?$allocator@D@2@@std@@V12@U?$less@V?$basic_string@DU?$char_traits@D@std@@V?$allocator@D@2@@std@@@2@@property_tree@boost@@@std@@@std@@IPAU?$sequenced_index_node@U?$ordered_index_node@Unull_augment_policy@detail@multi_index@boost@@U?$index_node_base@U?$pair@$$CBV?$basic_string@DU?$char_traits@D@std@@V?$allocator@D@2@@std@@V?$basic_ptree@V?$basic_string@DU?$char_traits@D@std@@V?$allocator@D@2@@std@@V12@U?$less@V?$basic_string@DU?$char_traits@D@std@@V?$allocator@D@2@@std@@@2@@property_tree@boost@@@std@@V?$allocator@U?$pair@$$CBV?$basic_string@DU?$char_traits@D@std@@V?$allocator@D@2@@std@@V?$basic_ptree@V?$basic_string@DU?$char_traits@D@std@@V?$allocator@D@2@@std@@V12@U?$less@V?$basic_string@DU?$char_traits@D@std@@V?$allocator@D@2@@std@@@2@@property_tree@boost@@@std@@@2@@234@@detail@multi_index@boost@@@123@1@Z 10018c10 f i JsonWriter.obj
 0001:00017c80       ?copy_@?$sequenced_index@U?$nth_layer@$00U?$pair@$$CBV?$basic_string@DU?$char_traits@D@std@@V?$allocator@D@2@@std@@V?$basic_ptree@V?$basic_string@DU?$char_traits@D@std@@V?$allocator@D@2@@std@@V12@U?$less@V?$basic_string@DU?$char_traits@D@std@@V?$allocator@D@2@@std@@@2@@property_tree@boost@@@std@@U?$indexed_by@U?$sequenced@U?$tag@Una@mpl@boost@@U123@U123@U123@U123@U123@U123@U123@U123@U123@U123@U123@U123@U123@U123@U123@U123@U123@U123@U123@@multi_index@boost@@@multi_index@boost@@U?$ordered_non_unique@U?$tag@Uby_name@subs@?$basic_ptree@V?$basic_string@DU?$char_traits@D@std@@V?$allocator@D@2@@std@@V12@U?$less@V?$basic_string@DU?$char_traits@D@std@@V?$allocator@D@2@@std@@@2@@property_tree@boost@@Una@mpl@5@U675@U675@U675@U675@U675@U675@U675@U675@U675@U675@U675@U675@U675@U675@U675@U675@U675@U675@@multi_index@boost@@U?$member@U?$pair@$$CBV?$basic_string@DU?$char_traits@D@std@@V?$allocator@D@2@@std@@V?$basic_ptree@V?$basic_string@DU?$char_traits@D@std@@V?$allocator@D@2@@std@@V12@U?$less@V?$basic_string@DU?$char_traits@D@std@@V?$allocator@D@2@@std@@@2@@property_tree@boost@@@std@@$$CBV?$basic_string@DU?$char_traits@D@std@@V?$allocator@D@2@@2@$0A@@23@U?$less@V?$basic_string@DU?$char_traits@D@std@@V?$allocator@D@2@@std@@@std@@@23@Una@mpl@3@U563@U563@U563@U563@U563@U563@U563@U563@U563@U563@U563@U563@U563@U563@U563@U563@U563@@multi_index@boost@@V?$allocator@U?$pair@$$CBV?$basic_string@DU?$char_traits@D@std@@V?$allocator@D@2@@std@@V?$basic_ptree@V?$basic_string@DU?$char_traits@D@std@@V?$allocator@D@2@@std@@V12@U?$less@V?$basic_string@DU?$char_traits@D@std@@V?$allocator@D@2@@std@@@2@@property_tree@boost@@@std@@@2@@detail@multi_index@boost@@U?$vector0@Una@mpl@boost@@@mpl@4@@detail@multi_index@boost@@IAEXABV1234@ABV?$copy_map@U?$sequenced_index_node@U?$ordered_index_node@Unull_augment_policy@detail@multi_index@boost@@U?$index_node_base@U?$pair@$$CBV?$basic_string@DU?$char_traits@D@std@@V?$allocator@D@2@@std@@V?$basic_ptree@V?$basic_string@DU?$char_traits@D@std@@V?$allocator@D@2@@std@@V12@U?$less@V?$basic_string@DU?$char_traits@D@std@@V?$allocator@D@2@@std@@@2@@property_tree@boost@@@std@@V?$allocator@U?$pair@$$CBV?$basic_string@DU?$char_traits@D@std@@V?$allocator@D@2@@std@@V?$basic_ptree@V?$basic_string@DU?$char_traits@D@std@@V?$allocator@D@2@@std@@V12@U?$less@V?$basic_string@DU?$char_traits@D@std@@V?$allocator@D@2@@std@@@2@@property_tree@boost@@@std@@@2@@234@@detail@multi_index@boost@@@detail@multi_index@boost@@V?$allocator@U?$pair@$$CBV?$basic_string@DU?$char_traits@D@std@@V?$allocator@D@2@@std@@V?$basic_ptree@V?$basic_string@DU?$char_traits@D@std@@V?$allocator@D@2@@std@@V12@U?$less@V?$basic_string@DU?$char_traits@D@std@@V?$allocator@D@2@@std@@@2@@property_tree@boost@@@std@@@std@@@234@@Z 10018c80 f i JsonWriter.obj
 0001:00017d20       ??0?$sequenced_index@U?$nth_layer@$00U?$pair@$$CBV?$basic_string@DU?$char_traits@D@std@@V?$allocator@D@2@@std@@V?$basic_ptree@V?$basic_string@DU?$char_traits@D@std@@V?$allocator@D@2@@std@@V12@U?$less@V?$basic_string@DU?$char_traits@D@std@@V?$allocator@D@2@@std@@@2@@property_tree@boost@@@std@@U?$indexed_by@U?$sequenced@U?$tag@Una@mpl@boost@@U123@U123@U123@U123@U123@U123@U123@U123@U123@U123@U123@U123@U123@U123@U123@U123@U123@U123@U123@@multi_index@boost@@@multi_index@boost@@U?$ordered_non_unique@U?$tag@Uby_name@subs@?$basic_ptree@V?$basic_string@DU?$char_traits@D@std@@V?$allocator@D@2@@std@@V12@U?$less@V?$basic_string@DU?$char_traits@D@std@@V?$allocator@D@2@@std@@@2@@property_tree@boost@@Una@mpl@5@U675@U675@U675@U675@U675@U675@U675@U675@U675@U675@U675@U675@U675@U675@U675@U675@U675@U675@@multi_index@boost@@U?$member@U?$pair@$$CBV?$basic_string@DU?$char_traits@D@std@@V?$allocator@D@2@@std@@V?$basic_ptree@V?$basic_string@DU?$char_traits@D@std@@V?$allocator@D@2@@std@@V12@U?$less@V?$basic_string@DU?$char_traits@D@std@@V?$allocator@D@2@@std@@@2@@property_tree@boost@@@std@@$$CBV?$basic_string@DU?$char_traits@D@std@@V?$allocator@D@2@@2@$0A@@23@U?$less@V?$basic_string@DU?$char_traits@D@std@@V?$allocator@D@2@@std@@@std@@@23@Una@mpl@3@U563@U563@U563@U563@U563@U563@U563@U563@U563@U563@U563@U563@U563@U563@U563@U563@U563@@multi_index@boost@@V?$allocator@U?$pair@$$CBV?$basic_string@DU?$char_traits@D@std@@V?$allocator@D@2@@std@@V?$basic_ptree@V?$basic_string@DU?$char_traits@D@std@@V?$allocator@D@2@@std@@V12@U?$less@V?$basic_string@DU?$char_traits@D@std@@V?$allocator@D@2@@std@@@2@@property_tree@boost@@@std@@@2@@detail@multi_index@boost@@U?$vector0@Una@mpl@boost@@@mpl@4@@detail@multi_index@boost@@IAE@ABV0123@@Z 10018d20 f i JsonWriter.obj
 0001:00017d40       ??0?$sequenced_index@U?$nth_layer@$00U?$pair@$$CBV?$basic_string@DU?$char_traits@D@std@@V?$allocator@D@2@@std@@V?$basic_ptree@V?$basic_string@DU?$char_traits@D@std@@V?$allocator@D@2@@std@@V12@U?$less@V?$basic_string@DU?$char_traits@D@std@@V?$allocator@D@2@@std@@@2@@property_tree@boost@@@std@@U?$indexed_by@U?$sequenced@U?$tag@Una@mpl@boost@@U123@U123@U123@U123@U123@U123@U123@U123@U123@U123@U123@U123@U123@U123@U123@U123@U123@U123@U123@@multi_index@boost@@@multi_index@boost@@U?$ordered_non_unique@U?$tag@Uby_name@subs@?$basic_ptree@V?$basic_string@DU?$char_traits@D@std@@V?$allocator@D@2@@std@@V12@U?$less@V?$basic_string@DU?$char_traits@D@std@@V?$allocator@D@2@@std@@@2@@property_tree@boost@@Una@mpl@5@U675@U675@U675@U675@U675@U675@U675@U675@U675@U675@U675@U675@U675@U675@U675@U675@U675@U675@@multi_index@boost@@U?$member@U?$pair@$$CBV?$basic_string@DU?$char_traits@D@std@@V?$allocator@D@2@@std@@V?$basic_ptree@V?$basic_string@DU?$char_traits@D@std@@V?$allocator@D@2@@std@@V12@U?$less@V?$basic_string@DU?$char_traits@D@std@@V?$allocator@D@2@@std@@@2@@property_tree@boost@@@std@@$$CBV?$basic_string@DU?$char_traits@D@std@@V?$allocator@D@2@@2@$0A@@23@U?$less@V?$basic_string@DU?$char_traits@D@std@@V?$allocator@D@2@@std@@@std@@@23@Una@mpl@3@U563@U563@U563@U563@U563@U563@U563@U563@U563@U563@U563@U563@U563@U563@U563@U563@U563@@multi_index@boost@@V?$allocator@U?$pair@$$CBV?$basic_string@DU?$char_traits@D@std@@V?$allocator@D@2@@std@@V?$basic_ptree@V?$basic_string@DU?$char_traits@D@std@@V?$allocator@D@2@@std@@V12@U?$less@V?$basic_string@DU?$char_traits@D@std@@V?$allocator@D@2@@std@@@2@@property_tree@boost@@@std@@@2@@detail@multi_index@boost@@U?$vector0@Una@mpl@boost@@@mpl@4@@detail@multi_index@boost@@IAE@ABU?$cons@Unull_type@tuples@boost@@U?$cons@V?$tuple@U?$member@U?$pair@$$CBV?$basic_string@DU?$char_traits@D@std@@V?$allocator@D@2@@std@@V?$basic_ptree@V?$basic_string@DU?$char_traits@D@std@@V?$allocator@D@2@@std@@V12@U?$less@V?$basic_string@DU?$char_traits@D@std@@V?$allocator@D@2@@std@@@2@@property_tree@boost@@@std@@$$CBV?$basic_string@DU?$char_traits@D@std@@V?$allocator@D@2@@2@$0A@@multi_index@boost@@U?$less@V?$basic_string@DU?$char_traits@D@std@@V?$allocator@D@2@@std@@@std@@Unull_type@tuples@3@U673@U673@U673@U673@U673@U673@U673@@tuples@boost@@Unull_type@23@@23@@tuples@3@ABV?$allocator@U?$pair@$$CBV?$basic_string@DU?$char_traits@D@std@@V?$allocator@D@2@@std@@V?$basic_ptree@V?$basic_string@DU?$char_traits@D@std@@V?$allocator@D@2@@std@@V12@U?$less@V?$basic_string@DU?$char_traits@D@std@@V?$allocator@D@2@@std@@@2@@property_tree@boost@@@std@@@std@@@Z 10018d40 f i JsonWriter.obj
 0001:00017db0       ?insert@?$sequenced_index@U?$nth_layer@$00U?$pair@$$CBV?$basic_string@DU?$char_traits@D@std@@V?$allocator@D@2@@std@@V?$basic_ptree@V?$basic_string@DU?$char_traits@D@std@@V?$allocator@D@2@@std@@V12@U?$less@V?$basic_string@DU?$char_traits@D@std@@V?$allocator@D@2@@std@@@2@@property_tree@boost@@@std@@U?$indexed_by@U?$sequenced@U?$tag@Una@mpl@boost@@U123@U123@U123@U123@U123@U123@U123@U123@U123@U123@U123@U123@U123@U123@U123@U123@U123@U123@U123@@multi_index@boost@@@multi_index@boost@@U?$ordered_non_unique@U?$tag@Uby_name@subs@?$basic_ptree@V?$basic_string@DU?$char_traits@D@std@@V?$allocator@D@2@@std@@V12@U?$less@V?$basic_string@DU?$char_traits@D@std@@V?$allocator@D@2@@std@@@2@@property_tree@boost@@Una@mpl@5@U675@U675@U675@U675@U675@U675@U675@U675@U675@U675@U675@U675@U675@U675@U675@U675@U675@U675@@multi_index@boost@@U?$member@U?$pair@$$CBV?$basic_string@DU?$char_traits@D@std@@V?$allocator@D@2@@std@@V?$basic_ptree@V?$basic_string@DU?$char_traits@D@std@@V?$allocator@D@2@@std@@V12@U?$less@V?$basic_string@DU?$char_traits@D@std@@V?$allocator@D@2@@std@@@2@@property_tree@boost@@@std@@$$CBV?$basic_string@DU?$char_traits@D@std@@V?$allocator@D@2@@2@$0A@@23@U?$less@V?$basic_string@DU?$char_traits@D@std@@V?$allocator@D@2@@std@@@std@@@23@Una@mpl@3@U563@U563@U563@U563@U563@U563@U563@U563@U563@U563@U563@U563@U563@U563@U563@U563@U563@@multi_index@boost@@V?$allocator@U?$pair@$$CBV?$basic_string@DU?$char_traits@D@std@@V?$allocator@D@2@@std@@V?$basic_ptree@V?$basic_string@DU?$char_traits@D@std@@V?$allocator@D@2@@std@@V12@U?$less@V?$basic_string@DU?$char_traits@D@std@@V?$allocator@D@2@@std@@@2@@property_tree@boost@@@std@@@2@@detail@multi_index@boost@@U?$vector0@Una@mpl@boost@@@mpl@4@@detail@multi_index@boost@@QAE?AU?$pair@V?$bidir_node_iterator@U?$sequenced_index_node@U?$ordered_index_node@Unull_augment_policy@detail@multi_index@boost@@U?$index_node_base@U?$pair@$$CBV?$basic_string@DU?$char_traits@D@std@@V?$allocator@D@2@@std@@V?$basic_ptree@V?$basic_string@DU?$char_traits@D@std@@V?$allocator@D@2@@std@@V12@U?$less@V?$basic_string@DU?$char_traits@D@std@@V?$allocator@D@2@@std@@@2@@property_tree@boost@@@std@@V?$allocator@U?$pair@$$CBV?$basic_string@DU?$char_traits@D@std@@V?$allocator@D@2@@std@@V?$basic_ptree@V?$basic_string@DU?$char_traits@D@std@@V?$allocator@D@2@@std@@V12@U?$less@V?$basic_string@DU?$char_traits@D@std@@V?$allocator@D@2@@std@@@2@@property_tree@boost@@@std@@@2@@234@@detail@multi_index@boost@@@detail@multi_index@boost@@@detail@multi_index@boost@@_N@std@@V?$bidir_node_iterator@U?$sequenced_index_node@U?$ordered_index_node@Unull_augment_policy@detail@multi_index@boost@@U?$index_node_base@U?$pair@$$CBV?$basic_string@DU?$char_traits@D@std@@V?$allocator@D@2@@std@@V?$basic_ptree@V?$basic_string@DU?$char_traits@D@std@@V?$allocator@D@2@@std@@V12@U?$less@V?$basic_string@DU?$char_traits@D@std@@V?$allocator@D@2@@std@@@2@@property_tree@boost@@@std@@V?$allocator@U?$pair@$$CBV?$basic_string@DU?$char_traits@D@std@@V?$allocator@D@2@@std@@V?$basic_ptree@V?$basic_string@DU?$char_traits@D@std@@V?$allocator@D@2@@std@@V12@U?$less@V?$basic_string@DU?$char_traits@D@std@@V?$allocator@D@2@@std@@@2@@property_tree@boost@@@std@@@2@@234@@detail@multi_index@boost@@@detail@multi_index@boost@@@234@ABU?$pair@$$CBV?$basic_string@DU?$char_traits@D@std@@V?$allocator@D@2@@std@@V?$basic_ptree@V?$basic_string@DU?$char_traits@D@std@@V?$allocator@D@2@@std@@V12@U?$less@V?$basic_string@DU?$char_traits@D@std@@V?$allocator@D@2@@std@@@2@@property_tree@boost@@@6@@Z 10018db0 f i JsonWriter.obj
 0001:00017e40       ?size@?$sequenced_index@U?$nth_layer@$00U?$pair@$$CBV?$basic_string@DU?$char_traits@D@std@@V?$allocator@D@2@@std@@V?$basic_ptree@V?$basic_string@DU?$char_traits@D@std@@V?$allocator@D@2@@std@@V12@U?$less@V?$basic_string@DU?$char_traits@D@std@@V?$allocator@D@2@@std@@@2@@property_tree@boost@@@std@@U?$indexed_by@U?$sequenced@U?$tag@Una@mpl@boost@@U123@U123@U123@U123@U123@U123@U123@U123@U123@U123@U123@U123@U123@U123@U123@U123@U123@U123@U123@@multi_index@boost@@@multi_index@boost@@U?$ordered_non_unique@U?$tag@Uby_name@subs@?$basic_ptree@V?$basic_string@DU?$char_traits@D@std@@V?$allocator@D@2@@std@@V12@U?$less@V?$basic_string@DU?$char_traits@D@std@@V?$allocator@D@2@@std@@@2@@property_tree@boost@@Una@mpl@5@U675@U675@U675@U675@U675@U675@U675@U675@U675@U675@U675@U675@U675@U675@U675@U675@U675@U675@@multi_index@boost@@U?$member@U?$pair@$$CBV?$basic_string@DU?$char_traits@D@std@@V?$allocator@D@2@@std@@V?$basic_ptree@V?$basic_string@DU?$char_traits@D@std@@V?$allocator@D@2@@std@@V12@U?$less@V?$basic_string@DU?$char_traits@D@std@@V?$allocator@D@2@@std@@@2@@property_tree@boost@@@std@@$$CBV?$basic_string@DU?$char_traits@D@std@@V?$allocator@D@2@@2@$0A@@23@U?$less@V?$basic_string@DU?$char_traits@D@std@@V?$allocator@D@2@@std@@@std@@@23@Una@mpl@3@U563@U563@U563@U563@U563@U563@U563@U563@U563@U563@U563@U563@U563@U563@U563@U563@U563@@multi_index@boost@@V?$allocator@U?$pair@$$CBV?$basic_string@DU?$char_traits@D@std@@V?$allocator@D@2@@std@@V?$basic_ptree@V?$basic_string@DU?$char_traits@D@std@@V?$allocator@D@2@@std@@V12@U?$less@V?$basic_string@DU?$char_traits@D@std@@V?$allocator@D@2@@std@@@2@@property_tree@boost@@@std@@@2@@detail@multi_index@boost@@U?$vector0@Una@mpl@boost@@@mpl@4@@detail@multi_index@boost@@QBEIXZ 10018e40 f i JsonWriter.obj
 0001:00017e80       ?end@?$sequenced_index@U?$nth_layer@$00U?$pair@$$CBV?$basic_string@DU?$char_traits@D@std@@V?$allocator@D@2@@std@@V?$basic_ptree@V?$basic_string@DU?$char_traits@D@std@@V?$allocator@D@2@@std@@V12@U?$less@V?$basic_string@DU?$char_traits@D@std@@V?$allocator@D@2@@std@@@2@@property_tree@boost@@@std@@U?$indexed_by@U?$sequenced@U?$tag@Una@mpl@boost@@U123@U123@U123@U123@U123@U123@U123@U123@U123@U123@U123@U123@U123@U123@U123@U123@U123@U123@U123@@multi_index@boost@@@multi_index@boost@@U?$ordered_non_unique@U?$tag@Uby_name@subs@?$basic_ptree@V?$basic_string@DU?$char_traits@D@std@@V?$allocator@D@2@@std@@V12@U?$less@V?$basic_string@DU?$char_traits@D@std@@V?$allocator@D@2@@std@@@2@@property_tree@boost@@Una@mpl@5@U675@U675@U675@U675@U675@U675@U675@U675@U675@U675@U675@U675@U675@U675@U675@U675@U675@U675@@multi_index@boost@@U?$member@U?$pair@$$CBV?$basic_string@DU?$char_traits@D@std@@V?$allocator@D@2@@std@@V?$basic_ptree@V?$basic_string@DU?$char_traits@D@std@@V?$allocator@D@2@@std@@V12@U?$less@V?$basic_string@DU?$char_traits@D@std@@V?$allocator@D@2@@std@@@2@@property_tree@boost@@@std@@$$CBV?$basic_string@DU?$char_traits@D@std@@V?$allocator@D@2@@2@$0A@@23@U?$less@V?$basic_string@DU?$char_traits@D@std@@V?$allocator@D@2@@std@@@std@@@23@Una@mpl@3@U563@U563@U563@U563@U563@U563@U563@U563@U563@U563@U563@U563@U563@U563@U563@U563@U563@@multi_index@boost@@V?$allocator@U?$pair@$$CBV?$basic_string@DU?$char_traits@D@std@@V?$allocator@D@2@@std@@V?$basic_ptree@V?$basic_string@DU?$char_traits@D@std@@V?$allocator@D@2@@std@@V12@U?$less@V?$basic_string@DU?$char_traits@D@std@@V?$allocator@D@2@@std@@@2@@property_tree@boost@@@std@@@2@@detail@multi_index@boost@@U?$vector0@Una@mpl@boost@@@mpl@4@@detail@multi_index@boost@@QAE?AV?$bidir_node_iterator@U?$sequenced_index_node@U?$ordered_index_node@Unull_augment_policy@detail@multi_index@boost@@U?$index_node_base@U?$pair@$$CBV?$basic_string@DU?$char_traits@D@std@@V?$allocator@D@2@@std@@V?$basic_ptree@V?$basic_string@DU?$char_traits@D@std@@V?$allocator@D@2@@std@@V12@U?$less@V?$basic_string@DU?$char_traits@D@std@@V?$allocator@D@2@@std@@@2@@property_tree@boost@@@std@@V?$allocator@U?$pair@$$CBV?$basic_string@DU?$char_traits@D@std@@V?$allocator@D@2@@std@@V?$basic_ptree@V?$basic_string@DU?$char_traits@D@std@@V?$allocator@D@2@@std@@V12@U?$less@V?$basic_string@DU?$char_traits@D@std@@V?$allocator@D@2@@std@@@2@@property_tree@boost@@@std@@@2@@234@@detail@multi_index@boost@@@detail@multi_index@boost@@@234@XZ 10018e80 f i JsonWriter.obj
 0001:00017e80       ?end@?$sequenced_index@U?$nth_layer@$00U?$pair@$$CBV?$basic_string@DU?$char_traits@D@std@@V?$allocator@D@2@@std@@V?$basic_ptree@V?$basic_string@DU?$char_traits@D@std@@V?$allocator@D@2@@std@@V12@U?$less@V?$basic_string@DU?$char_traits@D@std@@V?$allocator@D@2@@std@@@2@@property_tree@boost@@@std@@U?$indexed_by@U?$sequenced@U?$tag@Una@mpl@boost@@U123@U123@U123@U123@U123@U123@U123@U123@U123@U123@U123@U123@U123@U123@U123@U123@U123@U123@U123@@multi_index@boost@@@multi_index@boost@@U?$ordered_non_unique@U?$tag@Uby_name@subs@?$basic_ptree@V?$basic_string@DU?$char_traits@D@std@@V?$allocator@D@2@@std@@V12@U?$less@V?$basic_string@DU?$char_traits@D@std@@V?$allocator@D@2@@std@@@2@@property_tree@boost@@Una@mpl@5@U675@U675@U675@U675@U675@U675@U675@U675@U675@U675@U675@U675@U675@U675@U675@U675@U675@U675@@multi_index@boost@@U?$member@U?$pair@$$CBV?$basic_string@DU?$char_traits@D@std@@V?$allocator@D@2@@std@@V?$basic_ptree@V?$basic_string@DU?$char_traits@D@std@@V?$allocator@D@2@@std@@V12@U?$less@V?$basic_string@DU?$char_traits@D@std@@V?$allocator@D@2@@std@@@2@@property_tree@boost@@@std@@$$CBV?$basic_string@DU?$char_traits@D@std@@V?$allocator@D@2@@2@$0A@@23@U?$less@V?$basic_string@DU?$char_traits@D@std@@V?$allocator@D@2@@std@@@std@@@23@Una@mpl@3@U563@U563@U563@U563@U563@U563@U563@U563@U563@U563@U563@U563@U563@U563@U563@U563@U563@@multi_index@boost@@V?$allocator@U?$pair@$$CBV?$basic_string@DU?$char_traits@D@std@@V?$allocator@D@2@@std@@V?$basic_ptree@V?$basic_string@DU?$char_traits@D@std@@V?$allocator@D@2@@std@@V12@U?$less@V?$basic_string@DU?$char_traits@D@std@@V?$allocator@D@2@@std@@@2@@property_tree@boost@@@std@@@2@@detail@multi_index@boost@@U?$vector0@Una@mpl@boost@@@mpl@4@@detail@multi_index@boost@@QBE?AV?$bidir_node_iterator@U?$sequenced_index_node@U?$ordered_index_node@Unull_augment_policy@detail@multi_index@boost@@U?$index_node_base@U?$pair@$$CBV?$basic_string@DU?$char_traits@D@std@@V?$allocator@D@2@@std@@V?$basic_ptree@V?$basic_string@DU?$char_traits@D@std@@V?$allocator@D@2@@std@@V12@U?$less@V?$basic_string@DU?$char_traits@D@std@@V?$allocator@D@2@@std@@@2@@property_tree@boost@@@std@@V?$allocator@U?$pair@$$CBV?$basic_string@DU?$char_traits@D@std@@V?$allocator@D@2@@std@@V?$basic_ptree@V?$basic_string@DU?$char_traits@D@std@@V?$allocator@D@2@@std@@V12@U?$less@V?$basic_string@DU?$char_traits@D@std@@V?$allocator@D@2@@std@@@2@@property_tree@boost@@@std@@@2@@234@@detail@multi_index@boost@@@detail@multi_index@boost@@@234@XZ 10018e80 f i JsonWriter.obj
 0001:00017e80       ?end@?$ordered_index_impl@U?$member@U?$pair@$$CBV?$basic_string@DU?$char_traits@D@std@@V?$allocator@D@2@@std@@V?$basic_ptree@V?$basic_string@DU?$char_traits@D@std@@V?$allocator@D@2@@std@@V12@U?$less@V?$basic_string@DU?$char_traits@D@std@@V?$allocator@D@2@@std@@@2@@property_tree@boost@@@std@@$$CBV?$basic_string@DU?$char_traits@D@std@@V?$allocator@D@2@@2@$0A@@multi_index@boost@@U?$less@V?$basic_string@DU?$char_traits@D@std@@V?$allocator@D@2@@std@@@std@@U?$nth_layer@$01U?$pair@$$CBV?$basic_string@DU?$char_traits@D@std@@V?$allocator@D@2@@std@@V?$basic_ptree@V?$basic_string@DU?$char_traits@D@std@@V?$allocator@D@2@@std@@V12@U?$less@V?$basic_string@DU?$char_traits@D@std@@V?$allocator@D@2@@std@@@2@@property_tree@boost@@@std@@U?$indexed_by@U?$sequenced@U?$tag@Una@mpl@boost@@U123@U123@U123@U123@U123@U123@U123@U123@U123@U123@U123@U123@U123@U123@U123@U123@U123@U123@U123@@multi_index@boost@@@multi_index@boost@@U?$ordered_non_unique@U?$tag@Uby_name@subs@?$basic_ptree@V?$basic_string@DU?$char_traits@D@std@@V?$allocator@D@2@@std@@V12@U?$less@V?$basic_string@DU?$char_traits@D@std@@V?$allocator@D@2@@std@@@2@@property_tree@boost@@Una@mpl@5@U675@U675@U675@U675@U675@U675@U675@U675@U675@U675@U675@U675@U675@U675@U675@U675@U675@U675@@multi_index@boost@@U?$member@U?$pair@$$CBV?$basic_string@DU?$char_traits@D@std@@V?$allocator@D@2@@std@@V?$basic_ptree@V?$basic_string@DU?$char_traits@D@std@@V?$allocator@D@2@@std@@V12@U?$less@V?$basic_string@DU?$char_traits@D@std@@V?$allocator@D@2@@std@@@2@@property_tree@boost@@@std@@$$CBV?$basic_string@DU?$char_traits@D@std@@V?$allocator@D@2@@2@$0A@@23@U?$less@V?$basic_string@DU?$char_traits@D@std@@V?$allocator@D@2@@std@@@std@@@23@Una@mpl@3@U563@U563@U563@U563@U563@U563@U563@U563@U563@U563@U563@U563@U563@U563@U563@U563@U563@@multi_index@boost@@V?$allocator@U?$pair@$$CBV?$basic_string@DU?$char_traits@D@std@@V?$allocator@D@2@@std@@V?$basic_ptree@V?$basic_string@DU?$char_traits@D@std@@V?$allocator@D@2@@std@@V12@U?$less@V?$basic_string@DU?$char_traits@D@std@@V?$allocator@D@2@@std@@@2@@property_tree@boost@@@std@@@2@@detail@23@U?$vector1@Uby_name@subs@?$basic_ptree@V?$basic_string@DU?$char_traits@D@std@@V?$allocator@D@2@@std@@V12@U?$less@V?$basic_string@DU?$char_traits@D@std@@V?$allocator@D@2@@std@@@2@@property_tree@boost@@@mpl@3@Uordered_non_unique_tag@723@Unull_augment_policy@723@@detail@multi_index@boost@@QAE?AV?$bidir_node_iterator@U?$ordered_index_node@Unull_augment_policy@detail@multi_index@boost@@U?$index_node_base@U?$pair@$$CBV?$basic_string@DU?$char_traits@D@std@@V?$allocator@D@2@@std@@V?$basic_ptree@V?$basic_string@DU?$char_traits@D@std@@V?$allocator@D@2@@std@@V12@U?$less@V?$basic_string@DU?$char_traits@D@std@@V?$allocator@D@2@@std@@@2@@property_tree@boost@@@std@@V?$allocator@U?$pair@$$CBV?$basic_string@DU?$char_traits@D@std@@V?$allocator@D@2@@std@@V?$basic_ptree@V?$basic_string@DU?$char_traits@D@std@@V?$allocator@D@2@@std@@V12@U?$less@V?$basic_string@DU?$char_traits@D@std@@V?$allocator@D@2@@std@@@2@@property_tree@boost@@@std@@@2@@234@@detail@multi_index@boost@@@234@XZ 10018e80 f i JsonWriter.obj
 0001:00017e80       ?end@?$ordered_index_impl@U?$member@U?$pair@$$CBV?$basic_string@DU?$char_traits@D@std@@V?$allocator@D@2@@std@@V?$basic_ptree@V?$basic_string@DU?$char_traits@D@std@@V?$allocator@D@2@@std@@V12@U?$less@V?$basic_string@DU?$char_traits@D@std@@V?$allocator@D@2@@std@@@2@@property_tree@boost@@@std@@$$CBV?$basic_string@DU?$char_traits@D@std@@V?$allocator@D@2@@2@$0A@@multi_index@boost@@U?$less@V?$basic_string@DU?$char_traits@D@std@@V?$allocator@D@2@@std@@@std@@U?$nth_layer@$01U?$pair@$$CBV?$basic_string@DU?$char_traits@D@std@@V?$allocator@D@2@@std@@V?$basic_ptree@V?$basic_string@DU?$char_traits@D@std@@V?$allocator@D@2@@std@@V12@U?$less@V?$basic_string@DU?$char_traits@D@std@@V?$allocator@D@2@@std@@@2@@property_tree@boost@@@std@@U?$indexed_by@U?$sequenced@U?$tag@Una@mpl@boost@@U123@U123@U123@U123@U123@U123@U123@U123@U123@U123@U123@U123@U123@U123@U123@U123@U123@U123@U123@@multi_index@boost@@@multi_index@boost@@U?$ordered_non_unique@U?$tag@Uby_name@subs@?$basic_ptree@V?$basic_string@DU?$char_traits@D@std@@V?$allocator@D@2@@std@@V12@U?$less@V?$basic_string@DU?$char_traits@D@std@@V?$allocator@D@2@@std@@@2@@property_tree@boost@@Una@mpl@5@U675@U675@U675@U675@U675@U675@U675@U675@U675@U675@U675@U675@U675@U675@U675@U675@U675@U675@@multi_index@boost@@U?$member@U?$pair@$$CBV?$basic_string@DU?$char_traits@D@std@@V?$allocator@D@2@@std@@V?$basic_ptree@V?$basic_string@DU?$char_traits@D@std@@V?$allocator@D@2@@std@@V12@U?$less@V?$basic_string@DU?$char_traits@D@std@@V?$allocator@D@2@@std@@@2@@property_tree@boost@@@std@@$$CBV?$basic_string@DU?$char_traits@D@std@@V?$allocator@D@2@@2@$0A@@23@U?$less@V?$basic_string@DU?$char_traits@D@std@@V?$allocator@D@2@@std@@@std@@@23@Una@mpl@3@U563@U563@U563@U563@U563@U563@U563@U563@U563@U563@U563@U563@U563@U563@U563@U563@U563@@multi_index@boost@@V?$allocator@U?$pair@$$CBV?$basic_string@DU?$char_traits@D@std@@V?$allocator@D@2@@std@@V?$basic_ptree@V?$basic_string@DU?$char_traits@D@std@@V?$allocator@D@2@@std@@V12@U?$less@V?$basic_string@DU?$char_traits@D@std@@V?$allocator@D@2@@std@@@2@@property_tree@boost@@@std@@@2@@detail@23@U?$vector1@Uby_name@subs@?$basic_ptree@V?$basic_string@DU?$char_traits@D@std@@V?$allocator@D@2@@std@@V12@U?$less@V?$basic_string@DU?$char_traits@D@std@@V?$allocator@D@2@@std@@@2@@property_tree@boost@@@mpl@3@Uordered_non_unique_tag@723@Unull_augment_policy@723@@detail@multi_index@boost@@QBE?AV?$bidir_node_iterator@U?$ordered_index_node@Unull_augment_policy@detail@multi_index@boost@@U?$index_node_base@U?$pair@$$CBV?$basic_string@DU?$char_traits@D@std@@V?$allocator@D@2@@std@@V?$basic_ptree@V?$basic_string@DU?$char_traits@D@std@@V?$allocator@D@2@@std@@V12@U?$less@V?$basic_string@DU?$char_traits@D@std@@V?$allocator@D@2@@std@@@2@@property_tree@boost@@@std@@V?$allocator@U?$pair@$$CBV?$basic_string@DU?$char_traits@D@std@@V?$allocator@D@2@@std@@V?$basic_ptree@V?$basic_string@DU?$char_traits@D@std@@V?$allocator@D@2@@std@@V12@U?$less@V?$basic_string@DU?$char_traits@D@std@@V?$allocator@D@2@@std@@@2@@property_tree@boost@@@std@@@2@@234@@detail@multi_index@boost@@@234@XZ 10018e80 f i JsonWriter.obj
 0001:00017ed0       ?begin@?$sequenced_index@U?$nth_layer@$00U?$pair@$$CBV?$basic_string@DU?$char_traits@D@std@@V?$allocator@D@2@@std@@V?$basic_ptree@V?$basic_string@DU?$char_traits@D@std@@V?$allocator@D@2@@std@@V12@U?$less@V?$basic_string@DU?$char_traits@D@std@@V?$allocator@D@2@@std@@@2@@property_tree@boost@@@std@@U?$indexed_by@U?$sequenced@U?$tag@Una@mpl@boost@@U123@U123@U123@U123@U123@U123@U123@U123@U123@U123@U123@U123@U123@U123@U123@U123@U123@U123@U123@@multi_index@boost@@@multi_index@boost@@U?$ordered_non_unique@U?$tag@Uby_name@subs@?$basic_ptree@V?$basic_string@DU?$char_traits@D@std@@V?$allocator@D@2@@std@@V12@U?$less@V?$basic_string@DU?$char_traits@D@std@@V?$allocator@D@2@@std@@@2@@property_tree@boost@@Una@mpl@5@U675@U675@U675@U675@U675@U675@U675@U675@U675@U675@U675@U675@U675@U675@U675@U675@U675@U675@@multi_index@boost@@U?$member@U?$pair@$$CBV?$basic_string@DU?$char_traits@D@std@@V?$allocator@D@2@@std@@V?$basic_ptree@V?$basic_string@DU?$char_traits@D@std@@V?$allocator@D@2@@std@@V12@U?$less@V?$basic_string@DU?$char_traits@D@std@@V?$allocator@D@2@@std@@@2@@property_tree@boost@@@std@@$$CBV?$basic_string@DU?$char_traits@D@std@@V?$allocator@D@2@@2@$0A@@23@U?$less@V?$basic_string@DU?$char_traits@D@std@@V?$allocator@D@2@@std@@@std@@@23@Una@mpl@3@U563@U563@U563@U563@U563@U563@U563@U563@U563@U563@U563@U563@U563@U563@U563@U563@U563@@multi_index@boost@@V?$allocator@U?$pair@$$CBV?$basic_string@DU?$char_traits@D@std@@V?$allocator@D@2@@std@@V?$basic_ptree@V?$basic_string@DU?$char_traits@D@std@@V?$allocator@D@2@@std@@V12@U?$less@V?$basic_string@DU?$char_traits@D@std@@V?$allocator@D@2@@std@@@2@@property_tree@boost@@@std@@@2@@detail@multi_index@boost@@U?$vector0@Una@mpl@boost@@@mpl@4@@detail@multi_index@boost@@QBE?AV?$bidir_node_iterator@U?$sequenced_index_node@U?$ordered_index_node@Unull_augment_policy@detail@multi_index@boost@@U?$index_node_base@U?$pair@$$CBV?$basic_string@DU?$char_traits@D@std@@V?$allocator@D@2@@std@@V?$basic_ptree@V?$basic_string@DU?$char_traits@D@std@@V?$allocator@D@2@@std@@V12@U?$less@V?$basic_string@DU?$char_traits@D@std@@V?$allocator@D@2@@std@@@2@@property_tree@boost@@@std@@V?$allocator@U?$pair@$$CBV?$basic_string@DU?$char_traits@D@std@@V?$allocator@D@2@@std@@V?$basic_ptree@V?$basic_string@DU?$char_traits@D@std@@V?$allocator@D@2@@std@@V12@U?$less@V?$basic_string@DU?$char_traits@D@std@@V?$allocator@D@2@@std@@@2@@property_tree@boost@@@std@@@2@@234@@detail@multi_index@boost@@@detail@multi_index@boost@@@234@XZ 10018ed0 f i JsonWriter.obj
 0001:00017f40       ??1?$header_holder@PAU?$sequenced_index_node@U?$ordered_index_node@Unull_augment_policy@detail@multi_index@boost@@U?$index_node_base@U?$pair@$$CBV?$basic_string@DU?$char_traits@D@std@@V?$allocator@D@2@@std@@V?$basic_ptree@V?$basic_string@DU?$char_traits@D@std@@V?$allocator@D@2@@std@@V12@U?$less@V?$basic_string@DU?$char_traits@D@std@@V?$allocator@D@2@@std@@@2@@property_tree@boost@@@std@@V?$allocator@U?$pair@$$CBV?$basic_string@DU?$char_traits@D@std@@V?$allocator@D@2@@std@@V?$basic_ptree@V?$basic_string@DU?$char_traits@D@std@@V?$allocator@D@2@@std@@V12@U?$less@V?$basic_string@DU?$char_traits@D@std@@V?$allocator@D@2@@std@@@2@@property_tree@boost@@@std@@@2@@234@@detail@multi_index@boost@@@detail@multi_index@boost@@V?$multi_index_container@U?$pair@$$CBV?$basic_string@DU?$char_traits@D@std@@V?$allocator@D@2@@std@@V?$basic_ptree@V?$basic_string@DU?$char_traits@D@std@@V?$allocator@D@2@@std@@V12@U?$less@V?$basic_string@DU?$char_traits@D@std@@V?$allocator@D@2@@std@@@2@@property_tree@boost@@@std@@U?$indexed_by@U?$sequenced@U?$tag@Una@mpl@boost@@U123@U123@U123@U123@U123@U123@U123@U123@U123@U123@U123@U123@U123@U123@U123@U123@U123@U123@U123@@multi_index@boost@@@multi_index@boost@@U?$ordered_non_unique@U?$tag@Uby_name@subs@?$basic_ptree@V?$basic_string@DU?$char_traits@D@std@@V?$allocator@D@2@@std@@V12@U?$less@V?$basic_string@DU?$char_traits@D@std@@V?$allocator@D@2@@std@@@2@@property_tree@boost@@Una@mpl@5@U675@U675@U675@U675@U675@U675@U675@U675@U675@U675@U675@U675@U675@U675@U675@U675@U675@U675@@multi_index@boost@@U?$member@U?$pair@$$CBV?$basic_string@DU?$char_traits@D@std@@V?$allocator@D@2@@std@@V?$basic_ptree@V?$basic_string@DU?$char_traits@D@std@@V?$allocator@D@2@@std@@V12@U?$less@V?$basic_string@DU?$char_traits@D@std@@V?$allocator@D@2@@std@@@2@@property_tree@boost@@@std@@$$CBV?$basic_string@DU?$char_traits@D@std@@V?$allocator@D@2@@2@$0A@@23@U?$less@V?$basic_string@DU?$char_traits@D@std@@V?$allocator@D@2@@std@@@std@@@23@Una@mpl@3@U563@U563@U563@U563@U563@U563@U563@U563@U563@U563@U563@U563@U563@U563@U563@U563@U563@@multi_index@boost@@V?$allocator@U?$pair@$$CBV?$basic_string@DU?$char_traits@D@std@@V?$allocator@D@2@@std@@V?$basic_ptree@V?$basic_string@DU?$char_traits@D@std@@V?$allocator@D@2@@std@@V12@U?$less@V?$basic_string@DU?$char_traits@D@std@@V?$allocator@D@2@@std@@@2@@property_tree@boost@@@std@@@2@@34@@detail@multi_index@boost@@QAE@XZ 10018f40 f i JsonWriter.obj
 0001:00017f90       ??0?$header_holder@PAU?$sequenced_index_node@U?$ordered_index_node@Unull_augment_policy@detail@multi_index@boost@@U?$index_node_base@U?$pair@$$CBV?$basic_string@DU?$char_traits@D@std@@V?$allocator@D@2@@std@@V?$basic_ptree@V?$basic_string@DU?$char_traits@D@std@@V?$allocator@D@2@@std@@V12@U?$less@V?$basic_string@DU?$char_traits@D@std@@V?$allocator@D@2@@std@@@2@@property_tree@boost@@@std@@V?$allocator@U?$pair@$$CBV?$basic_string@DU?$char_traits@D@std@@V?$allocator@D@2@@std@@V?$basic_ptree@V?$basic_string@DU?$char_traits@D@std@@V?$allocator@D@2@@std@@V12@U?$less@V?$basic_string@DU?$char_traits@D@std@@V?$allocator@D@2@@std@@@2@@property_tree@boost@@@std@@@2@@234@@detail@multi_index@boost@@@detail@multi_index@boost@@V?$multi_index_container@U?$pair@$$CBV?$basic_string@DU?$char_traits@D@std@@V?$allocator@D@2@@std@@V?$basic_ptree@V?$basic_string@DU?$char_traits@D@std@@V?$allocator@D@2@@std@@V12@U?$less@V?$basic_string@DU?$char_traits@D@std@@V?$allocator@D@2@@std@@@2@@property_tree@boost@@@std@@U?$indexed_by@U?$sequenced@U?$tag@Una@mpl@boost@@U123@U123@U123@U123@U123@U123@U123@U123@U123@U123@U123@U123@U123@U123@U123@U123@U123@U123@U123@@multi_index@boost@@@multi_index@boost@@U?$ordered_non_unique@U?$tag@Uby_name@subs@?$basic_ptree@V?$basic_string@DU?$char_traits@D@std@@V?$allocator@D@2@@std@@V12@U?$less@V?$basic_string@DU?$char_traits@D@std@@V?$allocator@D@2@@std@@@2@@property_tree@boost@@Una@mpl@5@U675@U675@U675@U675@U675@U675@U675@U675@U675@U675@U675@U675@U675@U675@U675@U675@U675@U675@@multi_index@boost@@U?$member@U?$pair@$$CBV?$basic_string@DU?$char_traits@D@std@@V?$allocator@D@2@@std@@V?$basic_ptree@V?$basic_string@DU?$char_traits@D@std@@V?$allocator@D@2@@std@@V12@U?$less@V?$basic_string@DU?$char_traits@D@std@@V?$allocator@D@2@@std@@@2@@property_tree@boost@@@std@@$$CBV?$basic_string@DU?$char_traits@D@std@@V?$allocator@D@2@@2@$0A@@23@U?$less@V?$basic_string@DU?$char_traits@D@std@@V?$allocator@D@2@@std@@@std@@@23@Una@mpl@3@U563@U563@U563@U563@U563@U563@U563@U563@U563@U563@U563@U563@U563@U563@U563@U563@U563@@multi_index@boost@@V?$allocator@U?$pair@$$CBV?$basic_string@DU?$char_traits@D@std@@V?$allocator@D@2@@std@@V?$basic_ptree@V?$basic_string@DU?$char_traits@D@std@@V?$allocator@D@2@@std@@V12@U?$less@V?$basic_string@DU?$char_traits@D@std@@V?$allocator@D@2@@std@@@2@@property_tree@boost@@@std@@@2@@34@@detail@multi_index@boost@@QAE@XZ 10018f90 f i JsonWriter.obj
 0001:00017fc0       ?delete_all_nodes_@?$multi_index_container@U?$pair@$$CBV?$basic_string@DU?$char_traits@D@std@@V?$allocator@D@2@@std@@V?$basic_ptree@V?$basic_string@DU?$char_traits@D@std@@V?$allocator@D@2@@std@@V12@U?$less@V?$basic_string@DU?$char_traits@D@std@@V?$allocator@D@2@@std@@@2@@property_tree@boost@@@std@@U?$indexed_by@U?$sequenced@U?$tag@Una@mpl@boost@@U123@U123@U123@U123@U123@U123@U123@U123@U123@U123@U123@U123@U123@U123@U123@U123@U123@U123@U123@@multi_index@boost@@@multi_index@boost@@U?$ordered_non_unique@U?$tag@Uby_name@subs@?$basic_ptree@V?$basic_string@DU?$char_traits@D@std@@V?$allocator@D@2@@std@@V12@U?$less@V?$basic_string@DU?$char_traits@D@std@@V?$allocator@D@2@@std@@@2@@property_tree@boost@@Una@mpl@5@U675@U675@U675@U675@U675@U675@U675@U675@U675@U675@U675@U675@U675@U675@U675@U675@U675@U675@@multi_index@boost@@U?$member@U?$pair@$$CBV?$basic_string@DU?$char_traits@D@std@@V?$allocator@D@2@@std@@V?$basic_ptree@V?$basic_string@DU?$char_traits@D@std@@V?$allocator@D@2@@std@@V12@U?$less@V?$basic_string@DU?$char_traits@D@std@@V?$allocator@D@2@@std@@@2@@property_tree@boost@@@std@@$$CBV?$basic_string@DU?$char_traits@D@std@@V?$allocator@D@2@@2@$0A@@23@U?$less@V?$basic_string@DU?$char_traits@D@std@@V?$allocator@D@2@@std@@@std@@@23@Una@mpl@3@U563@U563@U563@U563@U563@U563@U563@U563@U563@U563@U563@U563@U563@U563@U563@U563@U563@@multi_index@boost@@V?$allocator@U?$pair@$$CBV?$basic_string@DU?$char_traits@D@std@@V?$allocator@D@2@@std@@V?$basic_ptree@V?$basic_string@DU?$char_traits@D@std@@V?$allocator@D@2@@std@@V12@U?$less@V?$basic_string@DU?$char_traits@D@std@@V?$allocator@D@2@@std@@@2@@property_tree@boost@@@std@@@2@@multi_index@boost@@IAEXXZ 10018fc0 f i JsonWriter.obj
 0001:00017fe0       ?erase@?$basic_string@DU?$char_traits@D@std@@V?$allocator@D@2@@std@@QAEAAV12@II@Z 10018fe0 f i JsonWriter.obj
 0001:00018070       ?_Set_back@?$basic_filebuf@DU?$char_traits@D@std@@@std@@AAEXXZ 10019070 f i JsonWriter.obj
 0001:000180d0       ?_Reset_back@?$basic_filebuf@DU?$char_traits@D@std@@@std@@AAEXXZ 100190d0 f i JsonWriter.obj
 0001:00018110       ?_Initcvt@?$basic_filebuf@DU?$char_traits@D@std@@@std@@IAEXABV?$codecvt@DDU_Mbstatet@@@2@@Z 10019110 f i JsonWriter.obj
 0001:00018160       ?_Endwrite@?$basic_filebuf@DU?$char_traits@D@std@@@std@@IAE_NXZ 10019160 f i JsonWriter.obj
 0001:00018380       ?_Init@?$basic_filebuf@DU?$char_traits@D@std@@@std@@IAEXPAU_iobuf@@W4_Initfl@12@@Z 10019380 f i JsonWriter.obj
 0001:00018460       ?close@?$basic_filebuf@DU?$char_traits@D@std@@@std@@QAEPAV12@XZ 10019460 f i JsonWriter.obj
 0001:000184d0       ?open@?$basic_filebuf@DU?$char_traits@D@std@@@std@@QAEPAV12@PBDHH@Z 100194d0 f i JsonWriter.obj
 0001:00018590       ??0?$basic_filebuf@DU?$char_traits@D@std@@@std@@QAE@PAU_iobuf@@@Z 10019590 f i JsonWriter.obj
 0001:00018600       ?seekpos@?$fpos@U_Mbstatet@@@std@@QBE_JXZ 10019600 f i JsonWriter.obj
 0001:00018620       ?state@?$fpos@U_Mbstatet@@@std@@QBE?AU_Mbstatet@@XZ 10019620 f i JsonWriter.obj
 0001:00018650       ??0?$fpos@U_Mbstatet@@@std@@QAE@U_Mbstatet@@_J@Z 10019650 f i JsonWriter.obj
 0001:00018690       ?data@?$auto_space@U?$copy_map_entry@U?$sequenced_index_node@U?$ordered_index_node@Unull_augment_policy@detail@multi_index@boost@@U?$index_node_base@U?$pair@$$CBV?$basic_string@DU?$char_traits@D@std@@V?$allocator@D@2@@std@@V?$basic_ptree@V?$basic_string@DU?$char_traits@D@std@@V?$allocator@D@2@@std@@V12@U?$less@V?$basic_string@DU?$char_traits@D@std@@V?$allocator@D@2@@std@@@2@@property_tree@boost@@@std@@V?$allocator@U?$pair@$$CBV?$basic_string@DU?$char_traits@D@std@@V?$allocator@D@2@@std@@V?$basic_ptree@V?$basic_string@DU?$char_traits@D@std@@V?$allocator@D@2@@std@@V12@U?$less@V?$basic_string@DU?$char_traits@D@std@@V?$allocator@D@2@@std@@@2@@property_tree@boost@@@std@@@2@@234@@detail@multi_index@boost@@@detail@multi_index@boost@@@detail@multi_index@boost@@V?$allocator@U?$pair@$$CBV?$basic_string@DU?$char_traits@D@std@@V?$allocator@D@2@@std@@V?$basic_ptree@V?$basic_string@DU?$char_traits@D@std@@V?$allocator@D@2@@std@@V12@U?$less@V?$basic_string@DU?$char_traits@D@std@@V?$allocator@D@2@@std@@@2@@property_tree@boost@@@std@@@std@@@detail@multi_index@boost@@QBEPAU?$copy_map_entry@U?$sequenced_index_node@U?$ordered_index_node@Unull_augment_policy@detail@multi_index@boost@@U?$index_node_base@U?$pair@$$CBV?$basic_string@DU?$char_traits@D@std@@V?$allocator@D@2@@std@@V?$basic_ptree@V?$basic_string@DU?$char_traits@D@std@@V?$allocator@D@2@@std@@V12@U?$less@V?$basic_string@DU?$char_traits@D@std@@V?$allocator@D@2@@std@@@2@@property_tree@boost@@@std@@V?$allocator@U?$pair@$$CBV?$basic_string@DU?$char_traits@D@std@@V?$allocator@D@2@@std@@V?$basic_ptree@V?$basic_string@DU?$char_traits@D@std@@V?$allocator@D@2@@std@@V12@U?$less@V?$basic_string@DU?$char_traits@D@std@@V?$allocator@D@2@@std@@@2@@property_tree@boost@@@std@@@2@@234@@detail@multi_index@boost@@@detail@multi_index@boost@@@234@XZ 10019690 f i JsonWriter.obj
 0001:000186b0       ??1?$auto_space@U?$copy_map_entry@U?$sequenced_index_node@U?$ordered_index_node@Unull_augment_policy@detail@multi_index@boost@@U?$index_node_base@U?$pair@$$CBV?$basic_string@DU?$char_traits@D@std@@V?$allocator@D@2@@std@@V?$basic_ptree@V?$basic_string@DU?$char_traits@D@std@@V?$allocator@D@2@@std@@V12@U?$less@V?$basic_string@DU?$char_traits@D@std@@V?$allocator@D@2@@std@@@2@@property_tree@boost@@@std@@V?$allocator@U?$pair@$$CBV?$basic_string@DU?$char_traits@D@std@@V?$allocator@D@2@@std@@V?$basic_ptree@V?$basic_string@DU?$char_traits@D@std@@V?$allocator@D@2@@std@@V12@U?$less@V?$basic_string@DU?$char_traits@D@std@@V?$allocator@D@2@@std@@@2@@property_tree@boost@@@std@@@2@@234@@detail@multi_index@boost@@@detail@multi_index@boost@@@detail@multi_index@boost@@V?$allocator@U?$pair@$$CBV?$basic_string@DU?$char_traits@D@std@@V?$allocator@D@2@@std@@V?$basic_ptree@V?$basic_string@DU?$char_traits@D@std@@V?$allocator@D@2@@std@@V12@U?$less@V?$basic_string@DU?$char_traits@D@std@@V?$allocator@D@2@@std@@@2@@property_tree@boost@@@std@@@std@@@detail@multi_index@boost@@QAE@XZ 100196b0 f i JsonWriter.obj
 0001:00018710       ??0?$auto_space@U?$copy_map_entry@U?$sequenced_index_node@U?$ordered_index_node@Unull_augment_policy@detail@multi_index@boost@@U?$index_node_base@U?$pair@$$CBV?$basic_string@DU?$char_traits@D@std@@V?$allocator@D@2@@std@@V?$basic_ptree@V?$basic_string@DU?$char_traits@D@std@@V?$allocator@D@2@@std@@V12@U?$less@V?$basic_string@DU?$char_traits@D@std@@V?$allocator@D@2@@std@@@2@@property_tree@boost@@@std@@V?$allocator@U?$pair@$$CBV?$basic_string@DU?$char_traits@D@std@@V?$allocator@D@2@@std@@V?$basic_ptree@V?$basic_string@DU?$char_traits@D@std@@V?$allocator@D@2@@std@@V12@U?$less@V?$basic_string@DU?$char_traits@D@std@@V?$allocator@D@2@@std@@@2@@property_tree@boost@@@std@@@2@@234@@detail@multi_index@boost@@@detail@multi_index@boost@@@detail@multi_index@boost@@V?$allocator@U?$pair@$$CBV?$basic_string@DU?$char_traits@D@std@@V?$allocator@D@2@@std@@V?$basic_ptree@V?$basic_string@DU?$char_traits@D@std@@V?$allocator@D@2@@std@@V12@U?$less@V?$basic_string@DU?$char_traits@D@std@@V?$allocator@D@2@@std@@@2@@property_tree@boost@@@std@@@std@@@detail@multi_index@boost@@QAE@ABV?$allocator@U?$pair@$$CBV?$basic_string@DU?$char_traits@D@std@@V?$allocator@D@2@@std@@V?$basic_ptree@V?$basic_string@DU?$char_traits@D@std@@V?$allocator@D@2@@std@@V12@U?$less@V?$basic_string@DU?$char_traits@D@std@@V?$allocator@D@2@@std@@@2@@property_tree@boost@@@std@@@std@@I@Z 10019710 f i JsonWriter.obj
 0001:00018770       ?get_tail@?$cons@Unull_type@tuples@boost@@U?$cons@V?$tuple@U?$member@U?$pair@$$CBV?$basic_string@DU?$char_traits@D@std@@V?$allocator@D@2@@std@@V?$basic_ptree@V?$basic_string@DU?$char_traits@D@std@@V?$allocator@D@2@@std@@V12@U?$less@V?$basic_string@DU?$char_traits@D@std@@V?$allocator@D@2@@std@@@2@@property_tree@boost@@@std@@$$CBV?$basic_string@DU?$char_traits@D@std@@V?$allocator@D@2@@2@$0A@@multi_index@boost@@U?$less@V?$basic_string@DU?$char_traits@D@std@@V?$allocator@D@2@@std@@@std@@Unull_type@tuples@3@U673@U673@U673@U673@U673@U673@U673@@tuples@boost@@Unull_type@23@@23@@tuples@boost@@QBEABU?$cons@V?$tuple@U?$member@U?$pair@$$CBV?$basic_string@DU?$char_traits@D@std@@V?$allocator@D@2@@std@@V?$basic_ptree@V?$basic_string@DU?$char_traits@D@std@@V?$allocator@D@2@@std@@V12@U?$less@V?$basic_string@DU?$char_traits@D@std@@V?$allocator@D@2@@std@@@2@@property_tree@boost@@@std@@$$CBV?$basic_string@DU?$char_traits@D@std@@V?$allocator@D@2@@2@$0A@@multi_index@boost@@U?$less@V?$basic_string@DU?$char_traits@D@std@@V?$allocator@D@2@@std@@@std@@Unull_type@tuples@3@U673@U673@U673@U673@U673@U673@U673@@tuples@boost@@Unull_type@23@@23@XZ 10019770 f i JsonWriter.obj
 0001:00018790       ??0?$tuple@U?$member@U?$pair@$$CBV?$basic_string@DU?$char_traits@D@std@@V?$allocator@D@2@@std@@V?$basic_ptree@V?$basic_string@DU?$char_traits@D@std@@V?$allocator@D@2@@std@@V12@U?$less@V?$basic_string@DU?$char_traits@D@std@@V?$allocator@D@2@@std@@@2@@property_tree@boost@@@std@@$$CBV?$basic_string@DU?$char_traits@D@std@@V?$allocator@D@2@@2@$0A@@multi_index@boost@@U?$less@V?$basic_string@DU?$char_traits@D@std@@V?$allocator@D@2@@std@@@std@@Unull_type@tuples@3@U673@U673@U673@U673@U673@U673@U673@@tuples@boost@@QAE@XZ 10019790 f i JsonWriter.obj
 0001:000187b0       ?deallocate_node@?$multi_index_container@U?$pair@$$CBV?$basic_string@DU?$char_traits@D@std@@V?$allocator@D@2@@std@@V?$basic_ptree@V?$basic_string@DU?$char_traits@D@std@@V?$allocator@D@2@@std@@V12@U?$less@V?$basic_string@DU?$char_traits@D@std@@V?$allocator@D@2@@std@@@2@@property_tree@boost@@@std@@U?$indexed_by@U?$sequenced@U?$tag@Una@mpl@boost@@U123@U123@U123@U123@U123@U123@U123@U123@U123@U123@U123@U123@U123@U123@U123@U123@U123@U123@U123@@multi_index@boost@@@multi_index@boost@@U?$ordered_non_unique@U?$tag@Uby_name@subs@?$basic_ptree@V?$basic_string@DU?$char_traits@D@std@@V?$allocator@D@2@@std@@V12@U?$less@V?$basic_string@DU?$char_traits@D@std@@V?$allocator@D@2@@std@@@2@@property_tree@boost@@Una@mpl@5@U675@U675@U675@U675@U675@U675@U675@U675@U675@U675@U675@U675@U675@U675@U675@U675@U675@U675@@multi_index@boost@@U?$member@U?$pair@$$CBV?$basic_string@DU?$char_traits@D@std@@V?$allocator@D@2@@std@@V?$basic_ptree@V?$basic_string@DU?$char_traits@D@std@@V?$allocator@D@2@@std@@V12@U?$less@V?$basic_string@DU?$char_traits@D@std@@V?$allocator@D@2@@std@@@2@@property_tree@boost@@@std@@$$CBV?$basic_string@DU?$char_traits@D@std@@V?$allocator@D@2@@2@$0A@@23@U?$less@V?$basic_string@DU?$char_traits@D@std@@V?$allocator@D@2@@std@@@std@@@23@Una@mpl@3@U563@U563@U563@U563@U563@U563@U563@U563@U563@U563@U563@U563@U563@U563@U563@U563@U563@@multi_index@boost@@V?$allocator@U?$pair@$$CBV?$basic_string@DU?$char_traits@D@std@@V?$allocator@D@2@@std@@V?$basic_ptree@V?$basic_string@DU?$char_traits@D@std@@V?$allocator@D@2@@std@@V12@U?$less@V?$basic_string@DU?$char_traits@D@std@@V?$allocator@D@2@@std@@@2@@property_tree@boost@@@std@@@2@@multi_index@boost@@IAEXPAU?$sequenced_index_node@U?$ordered_index_node@Unull_augment_policy@detail@multi_index@boost@@U?$index_node_base@U?$pair@$$CBV?$basic_string@DU?$char_traits@D@std@@V?$allocator@D@2@@std@@V?$basic_ptree@V?$basic_string@DU?$char_traits@D@std@@V?$allocator@D@2@@std@@V12@U?$less@V?$basic_string@DU?$char_traits@D@std@@V?$allocator@D@2@@std@@@2@@property_tree@boost@@@std@@V?$allocator@U?$pair@$$CBV?$basic_string@DU?$char_traits@D@std@@V?$allocator@D@2@@std@@V?$basic_ptree@V?$basic_string@DU?$char_traits@D@std@@V?$allocator@D@2@@std@@V12@U?$less@V?$basic_string@DU?$char_traits@D@std@@V?$allocator@D@2@@std@@@2@@property_tree@boost@@@std@@@2@@234@@detail@multi_index@boost@@@detail@23@@Z 100197b0 f i JsonWriter.obj
 0001:000187b0       ?deallocate@?$copy_map@U?$sequenced_index_node@U?$ordered_index_node@Unull_augment_policy@detail@multi_index@boost@@U?$index_node_base@U?$pair@$$CBV?$basic_string@DU?$char_traits@D@std@@V?$allocator@D@2@@std@@V?$basic_ptree@V?$basic_string@DU?$char_traits@D@std@@V?$allocator@D@2@@std@@V12@U?$less@V?$basic_string@DU?$char_traits@D@std@@V?$allocator@D@2@@std@@@2@@property_tree@boost@@@std@@V?$allocator@U?$pair@$$CBV?$basic_string@DU?$char_traits@D@std@@V?$allocator@D@2@@std@@V?$basic_ptree@V?$basic_string@DU?$char_traits@D@std@@V?$allocator@D@2@@std@@V12@U?$less@V?$basic_string@DU?$char_traits@D@std@@V?$allocator@D@2@@std@@@2@@property_tree@boost@@@std@@@2@@234@@detail@multi_index@boost@@@detail@multi_index@boost@@V?$allocator@U?$pair@$$CBV?$basic_string@DU?$char_traits@D@std@@V?$allocator@D@2@@std@@V?$basic_ptree@V?$basic_string@DU?$char_traits@D@std@@V?$allocator@D@2@@std@@V12@U?$less@V?$basic_string@DU?$char_traits@D@std@@V?$allocator@D@2@@std@@@2@@property_tree@boost@@@std@@@std@@@detail@multi_index@boost@@AAEXPAU?$sequenced_index_node@U?$ordered_index_node@Unull_augment_policy@detail@multi_index@boost@@U?$index_node_base@U?$pair@$$CBV?$basic_string@DU?$char_traits@D@std@@V?$allocator@D@2@@std@@V?$basic_ptree@V?$basic_string@DU?$char_traits@D@std@@V?$allocator@D@2@@std@@V12@U?$less@V?$basic_string@DU?$char_traits@D@std@@V?$allocator@D@2@@std@@@2@@property_tree@boost@@@std@@V?$allocator@U?$pair@$$CBV?$basic_string@DU?$char_traits@D@std@@V?$allocator@D@2@@std@@V?$basic_ptree@V?$basic_string@DU?$char_traits@D@std@@V?$allocator@D@2@@std@@V12@U?$less@V?$basic_string@DU?$char_traits@D@std@@V?$allocator@D@2@@std@@@2@@property_tree@boost@@@std@@@2@@234@@detail@multi_index@boost@@@234@@Z 100197b0 f i JsonWriter.obj
 0001:000187d0       ?allocate_node@?$multi_index_container@U?$pair@$$CBV?$basic_string@DU?$char_traits@D@std@@V?$allocator@D@2@@std@@V?$basic_ptree@V?$basic_string@DU?$char_traits@D@std@@V?$allocator@D@2@@std@@V12@U?$less@V?$basic_string@DU?$char_traits@D@std@@V?$allocator@D@2@@std@@@2@@property_tree@boost@@@std@@U?$indexed_by@U?$sequenced@U?$tag@Una@mpl@boost@@U123@U123@U123@U123@U123@U123@U123@U123@U123@U123@U123@U123@U123@U123@U123@U123@U123@U123@U123@@multi_index@boost@@@multi_index@boost@@U?$ordered_non_unique@U?$tag@Uby_name@subs@?$basic_ptree@V?$basic_string@DU?$char_traits@D@std@@V?$allocator@D@2@@std@@V12@U?$less@V?$basic_string@DU?$char_traits@D@std@@V?$allocator@D@2@@std@@@2@@property_tree@boost@@Una@mpl@5@U675@U675@U675@U675@U675@U675@U675@U675@U675@U675@U675@U675@U675@U675@U675@U675@U675@U675@@multi_index@boost@@U?$member@U?$pair@$$CBV?$basic_string@DU?$char_traits@D@std@@V?$allocator@D@2@@std@@V?$basic_ptree@V?$basic_string@DU?$char_traits@D@std@@V?$allocator@D@2@@std@@V12@U?$less@V?$basic_string@DU?$char_traits@D@std@@V?$allocator@D@2@@std@@@2@@property_tree@boost@@@std@@$$CBV?$basic_string@DU?$char_traits@D@std@@V?$allocator@D@2@@2@$0A@@23@U?$less@V?$basic_string@DU?$char_traits@D@std@@V?$allocator@D@2@@std@@@std@@@23@Una@mpl@3@U563@U563@U563@U563@U563@U563@U563@U563@U563@U563@U563@U563@U563@U563@U563@U563@U563@@multi_index@boost@@V?$allocator@U?$pair@$$CBV?$basic_string@DU?$char_traits@D@std@@V?$allocator@D@2@@std@@V?$basic_ptree@V?$basic_string@DU?$char_traits@D@std@@V?$allocator@D@2@@std@@V12@U?$less@V?$basic_string@DU?$char_traits@D@std@@V?$allocator@D@2@@std@@@2@@property_tree@boost@@@std@@@2@@multi_index@boost@@IAEPAU?$sequenced_index_node@U?$ordered_index_node@Unull_augment_policy@detail@multi_index@boost@@U?$index_node_base@U?$pair@$$CBV?$basic_string@DU?$char_traits@D@std@@V?$allocator@D@2@@std@@V?$basic_ptree@V?$basic_string@DU?$char_traits@D@std@@V?$allocator@D@2@@std@@V12@U?$less@V?$basic_string@DU?$char_traits@D@std@@V?$allocator@D@2@@std@@@2@@property_tree@boost@@@std@@V?$allocator@U?$pair@$$CBV?$basic_string@DU?$char_traits@D@std@@V?$allocator@D@2@@std@@V?$basic_ptree@V?$basic_string@DU?$char_traits@D@std@@V?$allocator@D@2@@std@@V12@U?$less@V?$basic_string@DU?$char_traits@D@std@@V?$allocator@D@2@@std@@@2@@property_tree@boost@@@std@@@2@@234@@detail@multi_index@boost@@@detail@23@XZ 100197d0 f i JsonWriter.obj
 0001:000187d0       ?allocate@?$copy_map@U?$sequenced_index_node@U?$ordered_index_node@Unull_augment_policy@detail@multi_index@boost@@U?$index_node_base@U?$pair@$$CBV?$basic_string@DU?$char_traits@D@std@@V?$allocator@D@2@@std@@V?$basic_ptree@V?$basic_string@DU?$char_traits@D@std@@V?$allocator@D@2@@std@@V12@U?$less@V?$basic_string@DU?$char_traits@D@std@@V?$allocator@D@2@@std@@@2@@property_tree@boost@@@std@@V?$allocator@U?$pair@$$CBV?$basic_string@DU?$char_traits@D@std@@V?$allocator@D@2@@std@@V?$basic_ptree@V?$basic_string@DU?$char_traits@D@std@@V?$allocator@D@2@@std@@V12@U?$less@V?$basic_string@DU?$char_traits@D@std@@V?$allocator@D@2@@std@@@2@@property_tree@boost@@@std@@@2@@234@@detail@multi_index@boost@@@detail@multi_index@boost@@V?$allocator@U?$pair@$$CBV?$basic_string@DU?$char_traits@D@std@@V?$allocator@D@2@@std@@V?$basic_ptree@V?$basic_string@DU?$char_traits@D@std@@V?$allocator@D@2@@std@@V12@U?$less@V?$basic_string@DU?$char_traits@D@std@@V?$allocator@D@2@@std@@@2@@property_tree@boost@@@std@@@std@@@detail@multi_index@boost@@AAEPAU?$sequenced_index_node@U?$ordered_index_node@Unull_augment_policy@detail@multi_index@boost@@U?$index_node_base@U?$pair@$$CBV?$basic_string@DU?$char_traits@D@std@@V?$allocator@D@2@@std@@V?$basic_ptree@V?$basic_string@DU?$char_traits@D@std@@V?$allocator@D@2@@std@@V12@U?$less@V?$basic_string@DU?$char_traits@D@std@@V?$allocator@D@2@@std@@@2@@property_tree@boost@@@std@@V?$allocator@U?$pair@$$CBV?$basic_string@DU?$char_traits@D@std@@V?$allocator@D@2@@std@@V?$basic_ptree@V?$basic_string@DU?$char_traits@D@std@@V?$allocator@D@2@@std@@V12@U?$less@V?$basic_string@DU?$char_traits@D@std@@V?$allocator@D@2@@std@@@2@@property_tree@boost@@@std@@@2@@234@@detail@multi_index@boost@@@234@XZ 100197d0 f i JsonWriter.obj
 0001:000187f0       ?find@?$copy_map@U?$sequenced_index_node@U?$ordered_index_node@Unull_augment_policy@detail@multi_index@boost@@U?$index_node_base@U?$pair@$$CBV?$basic_string@DU?$char_traits@D@std@@V?$allocator@D@2@@std@@V?$basic_ptree@V?$basic_string@DU?$char_traits@D@std@@V?$allocator@D@2@@std@@V12@U?$less@V?$basic_string@DU?$char_traits@D@std@@V?$allocator@D@2@@std@@@2@@property_tree@boost@@@std@@V?$allocator@U?$pair@$$CBV?$basic_string@DU?$char_traits@D@std@@V?$allocator@D@2@@std@@V?$basic_ptree@V?$basic_string@DU?$char_traits@D@std@@V?$allocator@D@2@@std@@V12@U?$less@V?$basic_string@DU?$char_traits@D@std@@V?$allocator@D@2@@std@@@2@@property_tree@boost@@@std@@@2@@234@@detail@multi_index@boost@@@detail@multi_index@boost@@V?$allocator@U?$pair@$$CBV?$basic_string@DU?$char_traits@D@std@@V?$allocator@D@2@@std@@V?$basic_ptree@V?$basic_string@DU?$char_traits@D@std@@V?$allocator@D@2@@std@@V12@U?$less@V?$basic_string@DU?$char_traits@D@std@@V?$allocator@D@2@@std@@@2@@property_tree@boost@@@std@@@std@@@detail@multi_index@boost@@QBEPAU?$sequenced_index_node@U?$ordered_index_node@Unull_augment_policy@detail@multi_index@boost@@U?$index_node_base@U?$pair@$$CBV?$basic_string@DU?$char_traits@D@std@@V?$allocator@D@2@@std@@V?$basic_ptree@V?$basic_string@DU?$char_traits@D@std@@V?$allocator@D@2@@std@@V12@U?$less@V?$basic_string@DU?$char_traits@D@std@@V?$allocator@D@2@@std@@@2@@property_tree@boost@@@std@@V?$allocator@U?$pair@$$CBV?$basic_string@DU?$char_traits@D@std@@V?$allocator@D@2@@std@@V?$basic_ptree@V?$basic_string@DU?$char_traits@D@std@@V?$allocator@D@2@@std@@V12@U?$less@V?$basic_string@DU?$char_traits@D@std@@V?$allocator@D@2@@std@@@2@@property_tree@boost@@@std@@@2@@234@@detail@multi_index@boost@@@234@PAU5234@@Z 100197f0 f i JsonWriter.obj
 0001:00018840       ?copy_@?$ordered_index_impl@U?$member@U?$pair@$$CBV?$basic_string@DU?$char_traits@D@std@@V?$allocator@D@2@@std@@V?$basic_ptree@V?$basic_string@DU?$char_traits@D@std@@V?$allocator@D@2@@std@@V12@U?$less@V?$basic_string@DU?$char_traits@D@std@@V?$allocator@D@2@@std@@@2@@property_tree@boost@@@std@@$$CBV?$basic_string@DU?$char_traits@D@std@@V?$allocator@D@2@@2@$0A@@multi_index@boost@@U?$less@V?$basic_string@DU?$char_traits@D@std@@V?$allocator@D@2@@std@@@std@@U?$nth_layer@$01U?$pair@$$CBV?$basic_string@DU?$char_traits@D@std@@V?$allocator@D@2@@std@@V?$basic_ptree@V?$basic_string@DU?$char_traits@D@std@@V?$allocator@D@2@@std@@V12@U?$less@V?$basic_string@DU?$char_traits@D@std@@V?$allocator@D@2@@std@@@2@@property_tree@boost@@@std@@U?$indexed_by@U?$sequenced@U?$tag@Una@mpl@boost@@U123@U123@U123@U123@U123@U123@U123@U123@U123@U123@U123@U123@U123@U123@U123@U123@U123@U123@U123@@multi_index@boost@@@multi_index@boost@@U?$ordered_non_unique@U?$tag@Uby_name@subs@?$basic_ptree@V?$basic_string@DU?$char_traits@D@std@@V?$allocator@D@2@@std@@V12@U?$less@V?$basic_string@DU?$char_traits@D@std@@V?$allocator@D@2@@std@@@2@@property_tree@boost@@Una@mpl@5@U675@U675@U675@U675@U675@U675@U675@U675@U675@U675@U675@U675@U675@U675@U675@U675@U675@U675@@multi_index@boost@@U?$member@U?$pair@$$CBV?$basic_string@DU?$char_traits@D@std@@V?$allocator@D@2@@std@@V?$basic_ptree@V?$basic_string@DU?$char_traits@D@std@@V?$allocator@D@2@@std@@V12@U?$less@V?$basic_string@DU?$char_traits@D@std@@V?$allocator@D@2@@std@@@2@@property_tree@boost@@@std@@$$CBV?$basic_string@DU?$char_traits@D@std@@V?$allocator@D@2@@2@$0A@@23@U?$less@V?$basic_string@DU?$char_traits@D@std@@V?$allocator@D@2@@std@@@std@@@23@Una@mpl@3@U563@U563@U563@U563@U563@U563@U563@U563@U563@U563@U563@U563@U563@U563@U563@U563@U563@@multi_index@boost@@V?$allocator@U?$pair@$$CBV?$basic_string@DU?$char_traits@D@std@@V?$allocator@D@2@@std@@V?$basic_ptree@V?$basic_string@DU?$char_traits@D@std@@V?$allocator@D@2@@std@@V12@U?$less@V?$basic_string@DU?$char_traits@D@std@@V?$allocator@D@2@@std@@@2@@property_tree@boost@@@std@@@2@@detail@23@U?$vector1@Uby_name@subs@?$basic_ptree@V?$basic_string@DU?$char_traits@D@std@@V?$allocator@D@2@@std@@V12@U?$less@V?$basic_string@DU?$char_traits@D@std@@V?$allocator@D@2@@std@@@2@@property_tree@boost@@@mpl@3@Uordered_non_unique_tag@723@Unull_augment_policy@723@@detail@multi_index@boost@@IAEXABV1234@ABV?$copy_map@U?$sequenced_index_node@U?$ordered_index_node@Unull_augment_policy@detail@multi_index@boost@@U?$index_node_base@U?$pair@$$CBV?$basic_string@DU?$char_traits@D@std@@V?$allocator@D@2@@std@@V?$basic_ptree@V?$basic_string@DU?$char_traits@D@std@@V?$allocator@D@2@@std@@V12@U?$less@V?$basic_string@DU?$char_traits@D@std@@V?$allocator@D@2@@std@@@2@@property_tree@boost@@@std@@V?$allocator@U?$pair@$$CBV?$basic_string@DU?$char_traits@D@std@@V?$allocator@D@2@@std@@V?$basic_ptree@V?$basic_string@DU?$char_traits@D@std@@V?$allocator@D@2@@std@@V12@U?$less@V?$basic_string@DU?$char_traits@D@std@@V?$allocator@D@2@@std@@@2@@property_tree@boost@@@std@@@2@@234@@detail@multi_index@boost@@@detail@multi_index@boost@@V?$allocator@U?$pair@$$CBV?$basic_string@DU?$char_traits@D@std@@V?$allocator@D@2@@std@@V?$basic_ptree@V?$basic_string@DU?$char_traits@D@std@@V?$allocator@D@2@@std@@V12@U?$less@V?$basic_string@DU?$char_traits@D@std@@V?$allocator@D@2@@std@@@2@@property_tree@boost@@@std@@@std@@@234@@Z 10019840 f i JsonWriter.obj
 0001:00018b30       ??0?$ordered_index@U?$member@U?$pair@$$CBV?$basic_string@DU?$char_traits@D@std@@V?$allocator@D@2@@std@@V?$basic_ptree@V?$basic_string@DU?$char_traits@D@std@@V?$allocator@D@2@@std@@V12@U?$less@V?$basic_string@DU?$char_traits@D@std@@V?$allocator@D@2@@std@@@2@@property_tree@boost@@@std@@$$CBV?$basic_string@DU?$char_traits@D@std@@V?$allocator@D@2@@2@$0A@@multi_index@boost@@U?$less@V?$basic_string@DU?$char_traits@D@std@@V?$allocator@D@2@@std@@@std@@U?$nth_layer@$01U?$pair@$$CBV?$basic_string@DU?$char_traits@D@std@@V?$allocator@D@2@@std@@V?$basic_ptree@V?$basic_string@DU?$char_traits@D@std@@V?$allocator@D@2@@std@@V12@U?$less@V?$basic_string@DU?$char_traits@D@std@@V?$allocator@D@2@@std@@@2@@property_tree@boost@@@std@@U?$indexed_by@U?$sequenced@U?$tag@Una@mpl@boost@@U123@U123@U123@U123@U123@U123@U123@U123@U123@U123@U123@U123@U123@U123@U123@U123@U123@U123@U123@@multi_index@boost@@@multi_index@boost@@U?$ordered_non_unique@U?$tag@Uby_name@subs@?$basic_ptree@V?$basic_string@DU?$char_traits@D@std@@V?$allocator@D@2@@std@@V12@U?$less@V?$basic_string@DU?$char_traits@D@std@@V?$allocator@D@2@@std@@@2@@property_tree@boost@@Una@mpl@5@U675@U675@U675@U675@U675@U675@U675@U675@U675@U675@U675@U675@U675@U675@U675@U675@U675@U675@@multi_index@boost@@U?$member@U?$pair@$$CBV?$basic_string@DU?$char_traits@D@std@@V?$allocator@D@2@@std@@V?$basic_ptree@V?$basic_string@DU?$char_traits@D@std@@V?$allocator@D@2@@std@@V12@U?$less@V?$basic_string@DU?$char_traits@D@std@@V?$allocator@D@2@@std@@@2@@property_tree@boost@@@std@@$$CBV?$basic_string@DU?$char_traits@D@std@@V?$allocator@D@2@@2@$0A@@23@U?$less@V?$basic_string@DU?$char_traits@D@std@@V?$allocator@D@2@@std@@@std@@@23@Una@mpl@3@U563@U563@U563@U563@U563@U563@U563@U563@U563@U563@U563@U563@U563@U563@U563@U563@U563@@multi_index@boost@@V?$allocator@U?$pair@$$CBV?$basic_string@DU?$char_traits@D@std@@V?$allocator@D@2@@std@@V?$basic_ptree@V?$basic_string@DU?$char_traits@D@std@@V?$allocator@D@2@@std@@V12@U?$less@V?$basic_string@DU?$char_traits@D@std@@V?$allocator@D@2@@std@@@2@@property_tree@boost@@@std@@@2@@detail@23@U?$vector1@Uby_name@subs@?$basic_ptree@V?$basic_string@DU?$char_traits@D@std@@V?$allocator@D@2@@std@@V12@U?$less@V?$basic_string@DU?$char_traits@D@std@@V?$allocator@D@2@@std@@@2@@property_tree@boost@@@mpl@3@Uordered_non_unique_tag@723@Unull_augment_policy@723@@detail@multi_index@boost@@IAE@ABV0123@@Z 10019b30 f i JsonWriter.obj
 0001:00018b50       ??0?$ordered_index@U?$member@U?$pair@$$CBV?$basic_string@DU?$char_traits@D@std@@V?$allocator@D@2@@std@@V?$basic_ptree@V?$basic_string@DU?$char_traits@D@std@@V?$allocator@D@2@@std@@V12@U?$less@V?$basic_string@DU?$char_traits@D@std@@V?$allocator@D@2@@std@@@2@@property_tree@boost@@@std@@$$CBV?$basic_string@DU?$char_traits@D@std@@V?$allocator@D@2@@2@$0A@@multi_index@boost@@U?$less@V?$basic_string@DU?$char_traits@D@std@@V?$allocator@D@2@@std@@@std@@U?$nth_layer@$01U?$pair@$$CBV?$basic_string@DU?$char_traits@D@std@@V?$allocator@D@2@@std@@V?$basic_ptree@V?$basic_string@DU?$char_traits@D@std@@V?$allocator@D@2@@std@@V12@U?$less@V?$basic_string@DU?$char_traits@D@std@@V?$allocator@D@2@@std@@@2@@property_tree@boost@@@std@@U?$indexed_by@U?$sequenced@U?$tag@Una@mpl@boost@@U123@U123@U123@U123@U123@U123@U123@U123@U123@U123@U123@U123@U123@U123@U123@U123@U123@U123@U123@@multi_index@boost@@@multi_index@boost@@U?$ordered_non_unique@U?$tag@Uby_name@subs@?$basic_ptree@V?$basic_string@DU?$char_traits@D@std@@V?$allocator@D@2@@std@@V12@U?$less@V?$basic_string@DU?$char_traits@D@std@@V?$allocator@D@2@@std@@@2@@property_tree@boost@@Una@mpl@5@U675@U675@U675@U675@U675@U675@U675@U675@U675@U675@U675@U675@U675@U675@U675@U675@U675@U675@@multi_index@boost@@U?$member@U?$pair@$$CBV?$basic_string@DU?$char_traits@D@std@@V?$allocator@D@2@@std@@V?$basic_ptree@V?$basic_string@DU?$char_traits@D@std@@V?$allocator@D@2@@std@@V12@U?$less@V?$basic_string@DU?$char_traits@D@std@@V?$allocator@D@2@@std@@@2@@property_tree@boost@@@std@@$$CBV?$basic_string@DU?$char_traits@D@std@@V?$allocator@D@2@@2@$0A@@23@U?$less@V?$basic_string@DU?$char_traits@D@std@@V?$allocator@D@2@@std@@@std@@@23@Una@mpl@3@U563@U563@U563@U563@U563@U563@U563@U563@U563@U563@U563@U563@U563@U563@U563@U563@U563@@multi_index@boost@@V?$allocator@U?$pair@$$CBV?$basic_string@DU?$char_traits@D@std@@V?$allocator@D@2@@std@@V?$basic_ptree@V?$basic_string@DU?$char_traits@D@std@@V?$allocator@D@2@@std@@V12@U?$less@V?$basic_string@DU?$char_traits@D@std@@V?$allocator@D@2@@std@@@2@@property_tree@boost@@@std@@@2@@detail@23@U?$vector1@Uby_name@subs@?$basic_ptree@V?$basic_string@DU?$char_traits@D@std@@V?$allocator@D@2@@std@@V12@U?$less@V?$basic_string@DU?$char_traits@D@std@@V?$allocator@D@2@@std@@@2@@property_tree@boost@@@mpl@3@Uordered_non_unique_tag@723@Unull_augment_policy@723@@detail@multi_index@boost@@IAE@ABU?$cons@V?$tuple@U?$member@U?$pair@$$CBV?$basic_string@DU?$char_traits@D@std@@V?$allocator@D@2@@std@@V?$basic_ptree@V?$basic_string@DU?$char_traits@D@std@@V?$allocator@D@2@@std@@V12@U?$less@V?$basic_string@DU?$char_traits@D@std@@V?$allocator@D@2@@std@@@2@@property_tree@boost@@@std@@$$CBV?$basic_string@DU?$char_traits@D@std@@V?$allocator@D@2@@2@$0A@@multi_index@boost@@U?$less@V?$basic_string@DU?$char_traits@D@std@@V?$allocator@D@2@@std@@@std@@Unull_type@tuples@3@U673@U673@U673@U673@U673@U673@U673@@tuples@boost@@Unull_type@23@@tuples@3@ABV?$allocator@U?$pair@$$CBV?$basic_string@DU?$char_traits@D@std@@V?$allocator@D@2@@std@@V?$basic_ptree@V?$basic_string@DU?$char_traits@D@std@@V?$allocator@D@2@@std@@V12@U?$less@V?$basic_string@DU?$char_traits@D@std@@V?$allocator@D@2@@std@@@2@@property_tree@boost@@@std@@@std@@@Z 10019b50 f i JsonWriter.obj
 0001:00018b70       ?relink@?$sequenced_index@U?$nth_layer@$00U?$pair@$$CBV?$basic_string@DU?$char_traits@D@std@@V?$allocator@D@2@@std@@V?$basic_ptree@V?$basic_string@DU?$char_traits@D@std@@V?$allocator@D@2@@std@@V12@U?$less@V?$basic_string@DU?$char_traits@D@std@@V?$allocator@D@2@@std@@@2@@property_tree@boost@@@std@@U?$indexed_by@U?$sequenced@U?$tag@Una@mpl@boost@@U123@U123@U123@U123@U123@U123@U123@U123@U123@U123@U123@U123@U123@U123@U123@U123@U123@U123@U123@@multi_index@boost@@@multi_index@boost@@U?$ordered_non_unique@U?$tag@Uby_name@subs@?$basic_ptree@V?$basic_string@DU?$char_traits@D@std@@V?$allocator@D@2@@std@@V12@U?$less@V?$basic_string@DU?$char_traits@D@std@@V?$allocator@D@2@@std@@@2@@property_tree@boost@@Una@mpl@5@U675@U675@U675@U675@U675@U675@U675@U675@U675@U675@U675@U675@U675@U675@U675@U675@U675@U675@@multi_index@boost@@U?$member@U?$pair@$$CBV?$basic_string@DU?$char_traits@D@std@@V?$allocator@D@2@@std@@V?$basic_ptree@V?$basic_string@DU?$char_traits@D@std@@V?$allocator@D@2@@std@@V12@U?$less@V?$basic_string@DU?$char_traits@D@std@@V?$allocator@D@2@@std@@@2@@property_tree@boost@@@std@@$$CBV?$basic_string@DU?$char_traits@D@std@@V?$allocator@D@2@@2@$0A@@23@U?$less@V?$basic_string@DU?$char_traits@D@std@@V?$allocator@D@2@@std@@@std@@@23@Una@mpl@3@U563@U563@U563@U563@U563@U563@U563@U563@U563@U563@U563@U563@U563@U563@U563@U563@U563@@multi_index@boost@@V?$allocator@U?$pair@$$CBV?$basic_string@DU?$char_traits@D@std@@V?$allocator@D@2@@std@@V?$basic_ptree@V?$basic_string@DU?$char_traits@D@std@@V?$allocator@D@2@@std@@V12@U?$less@V?$basic_string@DU?$char_traits@D@std@@V?$allocator@D@2@@std@@@2@@property_tree@boost@@@std@@@2@@detail@multi_index@boost@@U?$vector0@Una@mpl@boost@@@mpl@4@@detail@multi_index@boost@@CAXPAU?$sequenced_index_node@U?$ordered_index_node@Unull_augment_policy@detail@multi_index@boost@@U?$index_node_base@U?$pair@$$CBV?$basic_string@DU?$char_traits@D@std@@V?$allocator@D@2@@std@@V?$basic_ptree@V?$basic_string@DU?$char_traits@D@std@@V?$allocator@D@2@@std@@V12@U?$less@V?$basic_string@DU?$char_traits@D@std@@V?$allocator@D@2@@std@@@2@@property_tree@boost@@@std@@V?$allocator@U?$pair@$$CBV?$basic_string@DU?$char_traits@D@std@@V?$allocator@D@2@@std@@V?$basic_ptree@V?$basic_string@DU?$char_traits@D@std@@V?$allocator@D@2@@std@@V12@U?$less@V?$basic_string@DU?$char_traits@D@std@@V?$allocator@D@2@@std@@@2@@property_tree@boost@@@std@@@2@@234@@detail@multi_index@boost@@@234@0@Z 10019b70 f i JsonWriter.obj
 0001:00018b90       ?empty_initialize@?$sequenced_index@U?$nth_layer@$00U?$pair@$$CBV?$basic_string@DU?$char_traits@D@std@@V?$allocator@D@2@@std@@V?$basic_ptree@V?$basic_string@DU?$char_traits@D@std@@V?$allocator@D@2@@std@@V12@U?$less@V?$basic_string@DU?$char_traits@D@std@@V?$allocator@D@2@@std@@@2@@property_tree@boost@@@std@@U?$indexed_by@U?$sequenced@U?$tag@Una@mpl@boost@@U123@U123@U123@U123@U123@U123@U123@U123@U123@U123@U123@U123@U123@U123@U123@U123@U123@U123@U123@@multi_index@boost@@@multi_index@boost@@U?$ordered_non_unique@U?$tag@Uby_name@subs@?$basic_ptree@V?$basic_string@DU?$char_traits@D@std@@V?$allocator@D@2@@std@@V12@U?$less@V?$basic_string@DU?$char_traits@D@std@@V?$allocator@D@2@@std@@@2@@property_tree@boost@@Una@mpl@5@U675@U675@U675@U675@U675@U675@U675@U675@U675@U675@U675@U675@U675@U675@U675@U675@U675@U675@@multi_index@boost@@U?$member@U?$pair@$$CBV?$basic_string@DU?$char_traits@D@std@@V?$allocator@D@2@@std@@V?$basic_ptree@V?$basic_string@DU?$char_traits@D@std@@V?$allocator@D@2@@std@@V12@U?$less@V?$basic_string@DU?$char_traits@D@std@@V?$allocator@D@2@@std@@@2@@property_tree@boost@@@std@@$$CBV?$basic_string@DU?$char_traits@D@std@@V?$allocator@D@2@@2@$0A@@23@U?$less@V?$basic_string@DU?$char_traits@D@std@@V?$allocator@D@2@@std@@@std@@@23@Una@mpl@3@U563@U563@U563@U563@U563@U563@U563@U563@U563@U563@U563@U563@U563@U563@U563@U563@U563@@multi_index@boost@@V?$allocator@U?$pair@$$CBV?$basic_string@DU?$char_traits@D@std@@V?$allocator@D@2@@std@@V?$basic_ptree@V?$basic_string@DU?$char_traits@D@std@@V?$allocator@D@2@@std@@V12@U?$less@V?$basic_string@DU?$char_traits@D@std@@V?$allocator@D@2@@std@@@2@@property_tree@boost@@@std@@@2@@detail@multi_index@boost@@U?$vector0@Una@mpl@boost@@@mpl@4@@detail@multi_index@boost@@AAEXXZ 10019b90 f i JsonWriter.obj
 0001:00018bf0       ?header@?$sequenced_index@U?$nth_layer@$00U?$pair@$$CBV?$basic_string@DU?$char_traits@D@std@@V?$allocator@D@2@@std@@V?$basic_ptree@V?$basic_string@DU?$char_traits@D@std@@V?$allocator@D@2@@std@@V12@U?$less@V?$basic_string@DU?$char_traits@D@std@@V?$allocator@D@2@@std@@@2@@property_tree@boost@@@std@@U?$indexed_by@U?$sequenced@U?$tag@Una@mpl@boost@@U123@U123@U123@U123@U123@U123@U123@U123@U123@U123@U123@U123@U123@U123@U123@U123@U123@U123@U123@@multi_index@boost@@@multi_index@boost@@U?$ordered_non_unique@U?$tag@Uby_name@subs@?$basic_ptree@V?$basic_string@DU?$char_traits@D@std@@V?$allocator@D@2@@std@@V12@U?$less@V?$basic_string@DU?$char_traits@D@std@@V?$allocator@D@2@@std@@@2@@property_tree@boost@@Una@mpl@5@U675@U675@U675@U675@U675@U675@U675@U675@U675@U675@U675@U675@U675@U675@U675@U675@U675@U675@@multi_index@boost@@U?$member@U?$pair@$$CBV?$basic_string@DU?$char_traits@D@std@@V?$allocator@D@2@@std@@V?$basic_ptree@V?$basic_string@DU?$char_traits@D@std@@V?$allocator@D@2@@std@@V12@U?$less@V?$basic_string@DU?$char_traits@D@std@@V?$allocator@D@2@@std@@@2@@property_tree@boost@@@std@@$$CBV?$basic_string@DU?$char_traits@D@std@@V?$allocator@D@2@@2@$0A@@23@U?$less@V?$basic_string@DU?$char_traits@D@std@@V?$allocator@D@2@@std@@@std@@@23@Una@mpl@3@U563@U563@U563@U563@U563@U563@U563@U563@U563@U563@U563@U563@U563@U563@U563@U563@U563@@multi_index@boost@@V?$allocator@U?$pair@$$CBV?$basic_string@DU?$char_traits@D@std@@V?$allocator@D@2@@std@@V?$basic_ptree@V?$basic_string@DU?$char_traits@D@std@@V?$allocator@D@2@@std@@V12@U?$less@V?$basic_string@DU?$char_traits@D@std@@V?$allocator@D@2@@std@@@2@@property_tree@boost@@@std@@@2@@detail@multi_index@boost@@U?$vector0@Una@mpl@boost@@@mpl@4@@detail@multi_index@boost@@ABEPAU?$sequenced_index_node@U?$ordered_index_node@Unull_augment_policy@detail@multi_index@boost@@U?$index_node_base@U?$pair@$$CBV?$basic_string@DU?$char_traits@D@std@@V?$allocator@D@2@@std@@V?$basic_ptree@V?$basic_string@DU?$char_traits@D@std@@V?$allocator@D@2@@std@@V12@U?$less@V?$basic_string@DU?$char_traits@D@std@@V?$allocator@D@2@@std@@@2@@property_tree@boost@@@std@@V?$allocator@U?$pair@$$CBV?$basic_string@DU?$char_traits@D@std@@V?$allocator@D@2@@std@@V?$basic_ptree@V?$basic_string@DU?$char_traits@D@std@@V?$allocator@D@2@@std@@V12@U?$less@V?$basic_string@DU?$char_traits@D@std@@V?$allocator@D@2@@std@@@2@@property_tree@boost@@@std@@@2@@234@@detail@multi_index@boost@@@234@XZ 10019bf0 f i JsonWriter.obj
 0001:00018bf0       ?header@?$ordered_index_impl@U?$member@U?$pair@$$CBV?$basic_string@DU?$char_traits@D@std@@V?$allocator@D@2@@std@@V?$basic_ptree@V?$basic_string@DU?$char_traits@D@std@@V?$allocator@D@2@@std@@V12@U?$less@V?$basic_string@DU?$char_traits@D@std@@V?$allocator@D@2@@std@@@2@@property_tree@boost@@@std@@$$CBV?$basic_string@DU?$char_traits@D@std@@V?$allocator@D@2@@2@$0A@@multi_index@boost@@U?$less@V?$basic_string@DU?$char_traits@D@std@@V?$allocator@D@2@@std@@@std@@U?$nth_layer@$01U?$pair@$$CBV?$basic_string@DU?$char_traits@D@std@@V?$allocator@D@2@@std@@V?$basic_ptree@V?$basic_string@DU?$char_traits@D@std@@V?$allocator@D@2@@std@@V12@U?$less@V?$basic_string@DU?$char_traits@D@std@@V?$allocator@D@2@@std@@@2@@property_tree@boost@@@std@@U?$indexed_by@U?$sequenced@U?$tag@Una@mpl@boost@@U123@U123@U123@U123@U123@U123@U123@U123@U123@U123@U123@U123@U123@U123@U123@U123@U123@U123@U123@@multi_index@boost@@@multi_index@boost@@U?$ordered_non_unique@U?$tag@Uby_name@subs@?$basic_ptree@V?$basic_string@DU?$char_traits@D@std@@V?$allocator@D@2@@std@@V12@U?$less@V?$basic_string@DU?$char_traits@D@std@@V?$allocator@D@2@@std@@@2@@property_tree@boost@@Una@mpl@5@U675@U675@U675@U675@U675@U675@U675@U675@U675@U675@U675@U675@U675@U675@U675@U675@U675@U675@@multi_index@boost@@U?$member@U?$pair@$$CBV?$basic_string@DU?$char_traits@D@std@@V?$allocator@D@2@@std@@V?$basic_ptree@V?$basic_string@DU?$char_traits@D@std@@V?$allocator@D@2@@std@@V12@U?$less@V?$basic_string@DU?$char_traits@D@std@@V?$allocator@D@2@@std@@@2@@property_tree@boost@@@std@@$$CBV?$basic_string@DU?$char_traits@D@std@@V?$allocator@D@2@@2@$0A@@23@U?$less@V?$basic_string@DU?$char_traits@D@std@@V?$allocator@D@2@@std@@@std@@@23@Una@mpl@3@U563@U563@U563@U563@U563@U563@U563@U563@U563@U563@U563@U563@U563@U563@U563@U563@U563@@multi_index@boost@@V?$allocator@U?$pair@$$CBV?$basic_string@DU?$char_traits@D@std@@V?$allocator@D@2@@std@@V?$basic_ptree@V?$basic_string@DU?$char_traits@D@std@@V?$allocator@D@2@@std@@V12@U?$less@V?$basic_string@DU?$char_traits@D@std@@V?$allocator@D@2@@std@@@2@@property_tree@boost@@@std@@@2@@detail@23@U?$vector1@Uby_name@subs@?$basic_ptree@V?$basic_string@DU?$char_traits@D@std@@V?$allocator@D@2@@std@@V12@U?$less@V?$basic_string@DU?$char_traits@D@std@@V?$allocator@D@2@@std@@@2@@property_tree@boost@@@mpl@3@Uordered_non_unique_tag@723@Unull_augment_policy@723@@detail@multi_index@boost@@IBEPAU?$ordered_index_node@Unull_augment_policy@detail@multi_index@boost@@U?$index_node_base@U?$pair@$$CBV?$basic_string@DU?$char_traits@D@std@@V?$allocator@D@2@@std@@V?$basic_ptree@V?$basic_string@DU?$char_traits@D@std@@V?$allocator@D@2@@std@@V12@U?$less@V?$basic_string@DU?$char_traits@D@std@@V?$allocator@D@2@@std@@@2@@property_tree@boost@@@std@@V?$allocator@U?$pair@$$CBV?$basic_string@DU?$char_traits@D@std@@V?$allocator@D@2@@std@@V?$basic_ptree@V?$basic_string@DU?$char_traits@D@std@@V?$allocator@D@2@@std@@V12@U?$less@V?$basic_string@DU?$char_traits@D@std@@V?$allocator@D@2@@std@@@2@@property_tree@boost@@@std@@@2@@234@@234@XZ 10019bf0 f i JsonWriter.obj
 0001:00018c10       ?delete_all_nodes_@?$sequenced_index@U?$nth_layer@$00U?$pair@$$CBV?$basic_string@DU?$char_traits@D@std@@V?$allocator@D@2@@std@@V?$basic_ptree@V?$basic_string@DU?$char_traits@D@std@@V?$allocator@D@2@@std@@V12@U?$less@V?$basic_string@DU?$char_traits@D@std@@V?$allocator@D@2@@std@@@2@@property_tree@boost@@@std@@U?$indexed_by@U?$sequenced@U?$tag@Una@mpl@boost@@U123@U123@U123@U123@U123@U123@U123@U123@U123@U123@U123@U123@U123@U123@U123@U123@U123@U123@U123@@multi_index@boost@@@multi_index@boost@@U?$ordered_non_unique@U?$tag@Uby_name@subs@?$basic_ptree@V?$basic_string@DU?$char_traits@D@std@@V?$allocator@D@2@@std@@V12@U?$less@V?$basic_string@DU?$char_traits@D@std@@V?$allocator@D@2@@std@@@2@@property_tree@boost@@Una@mpl@5@U675@U675@U675@U675@U675@U675@U675@U675@U675@U675@U675@U675@U675@U675@U675@U675@U675@U675@@multi_index@boost@@U?$member@U?$pair@$$CBV?$basic_string@DU?$char_traits@D@std@@V?$allocator@D@2@@std@@V?$basic_ptree@V?$basic_string@DU?$char_traits@D@std@@V?$allocator@D@2@@std@@V12@U?$less@V?$basic_string@DU?$char_traits@D@std@@V?$allocator@D@2@@std@@@2@@property_tree@boost@@@std@@$$CBV?$basic_string@DU?$char_traits@D@std@@V?$allocator@D@2@@2@$0A@@23@U?$less@V?$basic_string@DU?$char_traits@D@std@@V?$allocator@D@2@@std@@@std@@@23@Una@mpl@3@U563@U563@U563@U563@U563@U563@U563@U563@U563@U563@U563@U563@U563@U563@U563@U563@U563@@multi_index@boost@@V?$allocator@U?$pair@$$CBV?$basic_string@DU?$char_traits@D@std@@V?$allocator@D@2@@std@@V?$basic_ptree@V?$basic_string@DU?$char_traits@D@std@@V?$allocator@D@2@@std@@V12@U?$less@V?$basic_string@DU?$char_traits@D@std@@V?$allocator@D@2@@std@@@2@@property_tree@boost@@@std@@@2@@detail@multi_index@boost@@U?$vector0@Una@mpl@boost@@@mpl@4@@detail@multi_index@boost@@IAEXXZ 10019c10 f i JsonWriter.obj
 0001:00018c80       ?make_iterator@?$ordered_index_impl@U?$member@U?$pair@$$CBV?$basic_string@DU?$char_traits@D@std@@V?$allocator@D@2@@std@@V?$basic_ptree@V?$basic_string@DU?$char_traits@D@std@@V?$allocator@D@2@@std@@V12@U?$less@V?$basic_string@DU?$char_traits@D@std@@V?$allocator@D@2@@std@@@2@@property_tree@boost@@@std@@$$CBV?$basic_string@DU?$char_traits@D@std@@V?$allocator@D@2@@2@$0A@@multi_index@boost@@U?$less@V?$basic_string@DU?$char_traits@D@std@@V?$allocator@D@2@@std@@@std@@U?$nth_layer@$01U?$pair@$$CBV?$basic_string@DU?$char_traits@D@std@@V?$allocator@D@2@@std@@V?$basic_ptree@V?$basic_string@DU?$char_traits@D@std@@V?$allocator@D@2@@std@@V12@U?$less@V?$basic_string@DU?$char_traits@D@std@@V?$allocator@D@2@@std@@@2@@property_tree@boost@@@std@@U?$indexed_by@U?$sequenced@U?$tag@Una@mpl@boost@@U123@U123@U123@U123@U123@U123@U123@U123@U123@U123@U123@U123@U123@U123@U123@U123@U123@U123@U123@@multi_index@boost@@@multi_index@boost@@U?$ordered_non_unique@U?$tag@Uby_name@subs@?$basic_ptree@V?$basic_string@DU?$char_traits@D@std@@V?$allocator@D@2@@std@@V12@U?$less@V?$basic_string@DU?$char_traits@D@std@@V?$allocator@D@2@@std@@@2@@property_tree@boost@@Una@mpl@5@U675@U675@U675@U675@U675@U675@U675@U675@U675@U675@U675@U675@U675@U675@U675@U675@U675@U675@@multi_index@boost@@U?$member@U?$pair@$$CBV?$basic_string@DU?$char_traits@D@std@@V?$allocator@D@2@@std@@V?$basic_ptree@V?$basic_string@DU?$char_traits@D@std@@V?$allocator@D@2@@std@@V12@U?$less@V?$basic_string@DU?$char_traits@D@std@@V?$allocator@D@2@@std@@@2@@property_tree@boost@@@std@@$$CBV?$basic_string@DU?$char_traits@D@std@@V?$allocator@D@2@@2@$0A@@23@U?$less@V?$basic_string@DU?$char_traits@D@std@@V?$allocator@D@2@@std@@@std@@@23@Una@mpl@3@U563@U563@U563@U563@U563@U563@U563@U563@U563@U563@U563@U563@U563@U563@U563@U563@U563@@multi_index@boost@@V?$allocator@U?$pair@$$CBV?$basic_string@DU?$char_traits@D@std@@V?$allocator@D@2@@std@@V?$basic_ptree@V?$basic_string@DU?$char_traits@D@std@@V?$allocator@D@2@@std@@V12@U?$less@V?$basic_string@DU?$char_traits@D@std@@V?$allocator@D@2@@std@@@2@@property_tree@boost@@@std@@@2@@detail@23@U?$vector1@Uby_name@subs@?$basic_ptree@V?$basic_string@DU?$char_traits@D@std@@V?$allocator@D@2@@std@@V12@U?$less@V?$basic_string@DU?$char_traits@D@std@@V?$allocator@D@2@@std@@@2@@property_tree@boost@@@mpl@3@Uordered_non_unique_tag@723@Unull_augment_policy@723@@detail@multi_index@boost@@IAE?AV?$bidir_node_iterator@U?$ordered_index_node@Unull_augment_policy@detail@multi_index@boost@@U?$index_node_base@U?$pair@$$CBV?$basic_string@DU?$char_traits@D@std@@V?$allocator@D@2@@std@@V?$basic_ptree@V?$basic_string@DU?$char_traits@D@std@@V?$allocator@D@2@@std@@V12@U?$less@V?$basic_string@DU?$char_traits@D@std@@V?$allocator@D@2@@std@@@2@@property_tree@boost@@@std@@V?$allocator@U?$pair@$$CBV?$basic_string@DU?$char_traits@D@std@@V?$allocator@D@2@@std@@V?$basic_ptree@V?$basic_string@DU?$char_traits@D@std@@V?$allocator@D@2@@std@@V12@U?$less@V?$basic_string@DU?$char_traits@D@std@@V?$allocator@D@2@@std@@@2@@property_tree@boost@@@std@@@2@@234@@detail@multi_index@boost@@@234@PAU?$ordered_index_node@Unull_augment_policy@detail@multi_index@boost@@U?$index_node_base@U?$pair@$$CBV?$basic_string@DU?$char_traits@D@std@@V?$allocator@D@2@@std@@V?$basic_ptree@V?$basic_string@DU?$char_traits@D@std@@V?$allocator@D@2@@std@@V12@U?$less@V?$basic_string@DU?$char_traits@D@std@@V?$allocator@D@2@@std@@@2@@property_tree@boost@@@std@@V?$allocator@U?$pair@$$CBV?$basic_string@DU?$char_traits@D@std@@V?$allocator@D@2@@std@@V?$basic_ptree@V?$basic_string@DU?$char_traits@D@std@@V?$allocator@D@2@@std@@V12@U?$less@V?$basic_string@DU?$char_traits@D@std@@V?$allocator@D@2@@std@@@2@@property_tree@boost@@@std@@@2@@234@@234@@Z 10019c80 f i JsonWriter.obj
 0001:00018c80       ?make_iterator@?$sequenced_index@U?$nth_layer@$00U?$pair@$$CBV?$basic_string@DU?$char_traits@D@std@@V?$allocator@D@2@@std@@V?$basic_ptree@V?$basic_string@DU?$char_traits@D@std@@V?$allocator@D@2@@std@@V12@U?$less@V?$basic_string@DU?$char_traits@D@std@@V?$allocator@D@2@@std@@@2@@property_tree@boost@@@std@@U?$indexed_by@U?$sequenced@U?$tag@Una@mpl@boost@@U123@U123@U123@U123@U123@U123@U123@U123@U123@U123@U123@U123@U123@U123@U123@U123@U123@U123@U123@@multi_index@boost@@@multi_index@boost@@U?$ordered_non_unique@U?$tag@Uby_name@subs@?$basic_ptree@V?$basic_string@DU?$char_traits@D@std@@V?$allocator@D@2@@std@@V12@U?$less@V?$basic_string@DU?$char_traits@D@std@@V?$allocator@D@2@@std@@@2@@property_tree@boost@@Una@mpl@5@U675@U675@U675@U675@U675@U675@U675@U675@U675@U675@U675@U675@U675@U675@U675@U675@U675@U675@@multi_index@boost@@U?$member@U?$pair@$$CBV?$basic_string@DU?$char_traits@D@std@@V?$allocator@D@2@@std@@V?$basic_ptree@V?$basic_string@DU?$char_traits@D@std@@V?$allocator@D@2@@std@@V12@U?$less@V?$basic_string@DU?$char_traits@D@std@@V?$allocator@D@2@@std@@@2@@property_tree@boost@@@std@@$$CBV?$basic_string@DU?$char_traits@D@std@@V?$allocator@D@2@@2@$0A@@23@U?$less@V?$basic_string@DU?$char_traits@D@std@@V?$allocator@D@2@@std@@@std@@@23@Una@mpl@3@U563@U563@U563@U563@U563@U563@U563@U563@U563@U563@U563@U563@U563@U563@U563@U563@U563@@multi_index@boost@@V?$allocator@U?$pair@$$CBV?$basic_string@DU?$char_traits@D@std@@V?$allocator@D@2@@std@@V?$basic_ptree@V?$basic_string@DU?$char_traits@D@std@@V?$allocator@D@2@@std@@V12@U?$less@V?$basic_string@DU?$char_traits@D@std@@V?$allocator@D@2@@std@@@2@@property_tree@boost@@@std@@@2@@detail@multi_index@boost@@U?$vector0@Una@mpl@boost@@@mpl@4@@detail@multi_index@boost@@IAE?AV?$bidir_node_iterator@U?$sequenced_index_node@U?$ordered_index_node@Unull_augment_policy@detail@multi_index@boost@@U?$index_node_base@U?$pair@$$CBV?$basic_string@DU?$char_traits@D@std@@V?$allocator@D@2@@std@@V?$basic_ptree@V?$basic_string@DU?$char_traits@D@std@@V?$allocator@D@2@@std@@V12@U?$less@V?$basic_string@DU?$char_traits@D@std@@V?$allocator@D@2@@std@@@2@@property_tree@boost@@@std@@V?$allocator@U?$pair@$$CBV?$basic_string@DU?$char_traits@D@std@@V?$allocator@D@2@@std@@V?$basic_ptree@V?$basic_string@DU?$char_traits@D@std@@V?$allocator@D@2@@std@@V12@U?$less@V?$basic_string@DU?$char_traits@D@std@@V?$allocator@D@2@@std@@@2@@property_tree@boost@@@std@@@2@@234@@detail@multi_index@boost@@@detail@multi_index@boost@@@234@PAU?$sequenced_index_node@U?$ordered_index_node@Unull_augment_policy@detail@multi_index@boost@@U?$index_node_base@U?$pair@$$CBV?$basic_string@DU?$char_traits@D@std@@V?$allocator@D@2@@std@@V?$basic_ptree@V?$basic_string@DU?$char_traits@D@std@@V?$allocator@D@2@@std@@V12@U?$less@V?$basic_string@DU?$char_traits@D@std@@V?$allocator@D@2@@std@@@2@@property_tree@boost@@@std@@V?$allocator@U?$pair@$$CBV?$basic_string@DU?$char_traits@D@std@@V?$allocator@D@2@@std@@V?$basic_ptree@V?$basic_string@DU?$char_traits@D@std@@V?$allocator@D@2@@std@@V12@U?$less@V?$basic_string@DU?$char_traits@D@std@@V?$allocator@D@2@@std@@@2@@property_tree@boost@@@std@@@2@@234@@detail@multi_index@boost@@@234@@Z 10019c80 f i JsonWriter.obj
 0001:00018c80       ?make_iterator@?$sequenced_index@U?$nth_layer@$00U?$pair@$$CBV?$basic_string@DU?$char_traits@D@std@@V?$allocator@D@2@@std@@V?$basic_ptree@V?$basic_string@DU?$char_traits@D@std@@V?$allocator@D@2@@std@@V12@U?$less@V?$basic_string@DU?$char_traits@D@std@@V?$allocator@D@2@@std@@@2@@property_tree@boost@@@std@@U?$indexed_by@U?$sequenced@U?$tag@Una@mpl@boost@@U123@U123@U123@U123@U123@U123@U123@U123@U123@U123@U123@U123@U123@U123@U123@U123@U123@U123@U123@@multi_index@boost@@@multi_index@boost@@U?$ordered_non_unique@U?$tag@Uby_name@subs@?$basic_ptree@V?$basic_string@DU?$char_traits@D@std@@V?$allocator@D@2@@std@@V12@U?$less@V?$basic_string@DU?$char_traits@D@std@@V?$allocator@D@2@@std@@@2@@property_tree@boost@@Una@mpl@5@U675@U675@U675@U675@U675@U675@U675@U675@U675@U675@U675@U675@U675@U675@U675@U675@U675@U675@@multi_index@boost@@U?$member@U?$pair@$$CBV?$basic_string@DU?$char_traits@D@std@@V?$allocator@D@2@@std@@V?$basic_ptree@V?$basic_string@DU?$char_traits@D@std@@V?$allocator@D@2@@std@@V12@U?$less@V?$basic_string@DU?$char_traits@D@std@@V?$allocator@D@2@@std@@@2@@property_tree@boost@@@std@@$$CBV?$basic_string@DU?$char_traits@D@std@@V?$allocator@D@2@@2@$0A@@23@U?$less@V?$basic_string@DU?$char_traits@D@std@@V?$allocator@D@2@@std@@@std@@@23@Una@mpl@3@U563@U563@U563@U563@U563@U563@U563@U563@U563@U563@U563@U563@U563@U563@U563@U563@U563@@multi_index@boost@@V?$allocator@U?$pair@$$CBV?$basic_string@DU?$char_traits@D@std@@V?$allocator@D@2@@std@@V?$basic_ptree@V?$basic_string@DU?$char_traits@D@std@@V?$allocator@D@2@@std@@V12@U?$less@V?$basic_string@DU?$char_traits@D@std@@V?$allocator@D@2@@std@@@2@@property_tree@boost@@@std@@@2@@detail@multi_index@boost@@U?$vector0@Una@mpl@boost@@@mpl@4@@detail@multi_index@boost@@IBE?AV?$bidir_node_iterator@U?$sequenced_index_node@U?$ordered_index_node@Unull_augment_policy@detail@multi_index@boost@@U?$index_node_base@U?$pair@$$CBV?$basic_string@DU?$char_traits@D@std@@V?$allocator@D@2@@std@@V?$basic_ptree@V?$basic_string@DU?$char_traits@D@std@@V?$allocator@D@2@@std@@V12@U?$less@V?$basic_string@DU?$char_traits@D@std@@V?$allocator@D@2@@std@@@2@@property_tree@boost@@@std@@V?$allocator@U?$pair@$$CBV?$basic_string@DU?$char_traits@D@std@@V?$allocator@D@2@@std@@V?$basic_ptree@V?$basic_string@DU?$char_traits@D@std@@V?$allocator@D@2@@std@@V12@U?$less@V?$basic_string@DU?$char_traits@D@std@@V?$allocator@D@2@@std@@@2@@property_tree@boost@@@std@@@2@@234@@detail@multi_index@boost@@@detail@multi_index@boost@@@234@PAU?$sequenced_index_node@U?$ordered_index_node@Unull_augment_policy@detail@multi_index@boost@@U?$index_node_base@U?$pair@$$CBV?$basic_string@DU?$char_traits@D@std@@V?$allocator@D@2@@std@@V?$basic_ptree@V?$basic_string@DU?$char_traits@D@std@@V?$allocator@D@2@@std@@V12@U?$less@V?$basic_string@DU?$char_traits@D@std@@V?$allocator@D@2@@std@@@2@@property_tree@boost@@@std@@V?$allocator@U?$pair@$$CBV?$basic_string@DU?$char_traits@D@std@@V?$allocator@D@2@@std@@V?$basic_ptree@V?$basic_string@DU?$char_traits@D@std@@V?$allocator@D@2@@std@@V12@U?$less@V?$basic_string@DU?$char_traits@D@std@@V?$allocator@D@2@@std@@@2@@property_tree@boost@@@std@@@2@@234@@detail@multi_index@boost@@@234@@Z 10019c80 f i JsonWriter.obj
 0001:00018c80       ?make_iterator@?$ordered_index_impl@U?$member@U?$pair@$$CBV?$basic_string@DU?$char_traits@D@std@@V?$allocator@D@2@@std@@V?$basic_ptree@V?$basic_string@DU?$char_traits@D@std@@V?$allocator@D@2@@std@@V12@U?$less@V?$basic_string@DU?$char_traits@D@std@@V?$allocator@D@2@@std@@@2@@property_tree@boost@@@std@@$$CBV?$basic_string@DU?$char_traits@D@std@@V?$allocator@D@2@@2@$0A@@multi_index@boost@@U?$less@V?$basic_string@DU?$char_traits@D@std@@V?$allocator@D@2@@std@@@std@@U?$nth_layer@$01U?$pair@$$CBV?$basic_string@DU?$char_traits@D@std@@V?$allocator@D@2@@std@@V?$basic_ptree@V?$basic_string@DU?$char_traits@D@std@@V?$allocator@D@2@@std@@V12@U?$less@V?$basic_string@DU?$char_traits@D@std@@V?$allocator@D@2@@std@@@2@@property_tree@boost@@@std@@U?$indexed_by@U?$sequenced@U?$tag@Una@mpl@boost@@U123@U123@U123@U123@U123@U123@U123@U123@U123@U123@U123@U123@U123@U123@U123@U123@U123@U123@U123@@multi_index@boost@@@multi_index@boost@@U?$ordered_non_unique@U?$tag@Uby_name@subs@?$basic_ptree@V?$basic_string@DU?$char_traits@D@std@@V?$allocator@D@2@@std@@V12@U?$less@V?$basic_string@DU?$char_traits@D@std@@V?$allocator@D@2@@std@@@2@@property_tree@boost@@Una@mpl@5@U675@U675@U675@U675@U675@U675@U675@U675@U675@U675@U675@U675@U675@U675@U675@U675@U675@U675@@multi_index@boost@@U?$member@U?$pair@$$CBV?$basic_string@DU?$char_traits@D@std@@V?$allocator@D@2@@std@@V?$basic_ptree@V?$basic_string@DU?$char_traits@D@std@@V?$allocator@D@2@@std@@V12@U?$less@V?$basic_string@DU?$char_traits@D@std@@V?$allocator@D@2@@std@@@2@@property_tree@boost@@@std@@$$CBV?$basic_string@DU?$char_traits@D@std@@V?$allocator@D@2@@2@$0A@@23@U?$less@V?$basic_string@DU?$char_traits@D@std@@V?$allocator@D@2@@std@@@std@@@23@Una@mpl@3@U563@U563@U563@U563@U563@U563@U563@U563@U563@U563@U563@U563@U563@U563@U563@U563@U563@@multi_index@boost@@V?$allocator@U?$pair@$$CBV?$basic_string@DU?$char_traits@D@std@@V?$allocator@D@2@@std@@V?$basic_ptree@V?$basic_string@DU?$char_traits@D@std@@V?$allocator@D@2@@std@@V12@U?$less@V?$basic_string@DU?$char_traits@D@std@@V?$allocator@D@2@@std@@@2@@property_tree@boost@@@std@@@2@@detail@23@U?$vector1@Uby_name@subs@?$basic_ptree@V?$basic_string@DU?$char_traits@D@std@@V?$allocator@D@2@@std@@V12@U?$less@V?$basic_string@DU?$char_traits@D@std@@V?$allocator@D@2@@std@@@2@@property_tree@boost@@@mpl@3@Uordered_non_unique_tag@723@Unull_augment_policy@723@@detail@multi_index@boost@@IBE?AV?$bidir_node_iterator@U?$ordered_index_node@Unull_augment_policy@detail@multi_index@boost@@U?$index_node_base@U?$pair@$$CBV?$basic_string@DU?$char_traits@D@std@@V?$allocator@D@2@@std@@V?$basic_ptree@V?$basic_string@DU?$char_traits@D@std@@V?$allocator@D@2@@std@@V12@U?$less@V?$basic_string@DU?$char_traits@D@std@@V?$allocator@D@2@@std@@@2@@property_tree@boost@@@std@@V?$allocator@U?$pair@$$CBV?$basic_string@DU?$char_traits@D@std@@V?$allocator@D@2@@std@@V?$basic_ptree@V?$basic_string@DU?$char_traits@D@std@@V?$allocator@D@2@@std@@V12@U?$less@V?$basic_string@DU?$char_traits@D@std@@V?$allocator@D@2@@std@@@2@@property_tree@boost@@@std@@@2@@234@@detail@multi_index@boost@@@234@PAU?$ordered_index_node@Unull_augment_policy@detail@multi_index@boost@@U?$index_node_base@U?$pair@$$CBV?$basic_string@DU?$char_traits@D@std@@V?$allocator@D@2@@std@@V?$basic_ptree@V?$basic_string@DU?$char_traits@D@std@@V?$allocator@D@2@@std@@V12@U?$less@V?$basic_string@DU?$char_traits@D@std@@V?$allocator@D@2@@std@@@2@@property_tree@boost@@@std@@V?$allocator@U?$pair@$$CBV?$basic_string@DU?$char_traits@D@std@@V?$allocator@D@2@@std@@V?$basic_ptree@V?$basic_string@DU?$char_traits@D@std@@V?$allocator@D@2@@std@@V12@U?$less@V?$basic_string@DU?$char_traits@D@std@@V?$allocator@D@2@@std@@@2@@property_tree@boost@@@std@@@2@@234@@234@@Z 10019c80 f i JsonWriter.obj
 0001:00018ca0       ?final_insert_@?$index_base@U?$pair@$$CBV?$basic_string@DU?$char_traits@D@std@@V?$allocator@D@2@@std@@V?$basic_ptree@V?$basic_string@DU?$char_traits@D@std@@V?$allocator@D@2@@std@@V12@U?$less@V?$basic_string@DU?$char_traits@D@std@@V?$allocator@D@2@@std@@@2@@property_tree@boost@@@std@@U?$indexed_by@U?$sequenced@U?$tag@Una@mpl@boost@@U123@U123@U123@U123@U123@U123@U123@U123@U123@U123@U123@U123@U123@U123@U123@U123@U123@U123@U123@@multi_index@boost@@@multi_index@boost@@U?$ordered_non_unique@U?$tag@Uby_name@subs@?$basic_ptree@V?$basic_string@DU?$char_traits@D@std@@V?$allocator@D@2@@std@@V12@U?$less@V?$basic_string@DU?$char_traits@D@std@@V?$allocator@D@2@@std@@@2@@property_tree@boost@@Una@mpl@5@U675@U675@U675@U675@U675@U675@U675@U675@U675@U675@U675@U675@U675@U675@U675@U675@U675@U675@@multi_index@boost@@U?$member@U?$pair@$$CBV?$basic_string@DU?$char_traits@D@std@@V?$allocator@D@2@@std@@V?$basic_ptree@V?$basic_string@DU?$char_traits@D@std@@V?$allocator@D@2@@std@@V12@U?$less@V?$basic_string@DU?$char_traits@D@std@@V?$allocator@D@2@@std@@@2@@property_tree@boost@@@std@@$$CBV?$basic_string@DU?$char_traits@D@std@@V?$allocator@D@2@@2@$0A@@23@U?$less@V?$basic_string@DU?$char_traits@D@std@@V?$allocator@D@2@@std@@@std@@@23@Una@mpl@3@U563@U563@U563@U563@U563@U563@U563@U563@U563@U563@U563@U563@U563@U563@U563@U563@U563@@multi_index@boost@@V?$allocator@U?$pair@$$CBV?$basic_string@DU?$char_traits@D@std@@V?$allocator@D@2@@std@@V?$basic_ptree@V?$basic_string@DU?$char_traits@D@std@@V?$allocator@D@2@@std@@V12@U?$less@V?$basic_string@DU?$char_traits@D@std@@V?$allocator@D@2@@std@@@2@@property_tree@boost@@@std@@@2@@detail@multi_index@boost@@IAE?AU?$pair@PAU?$sequenced_index_node@U?$ordered_index_node@Unull_augment_policy@detail@multi_index@boost@@U?$index_node_base@U?$pair@$$CBV?$basic_string@DU?$char_traits@D@std@@V?$allocator@D@2@@std@@V?$basic_ptree@V?$basic_string@DU?$char_traits@D@std@@V?$allocator@D@2@@std@@V12@U?$less@V?$basic_string@DU?$char_traits@D@std@@V?$allocator@D@2@@std@@@2@@property_tree@boost@@@std@@V?$allocator@U?$pair@$$CBV?$basic_string@DU?$char_traits@D@std@@V?$allocator@D@2@@std@@V?$basic_ptree@V?$basic_string@DU?$char_traits@D@std@@V?$allocator@D@2@@std@@V12@U?$less@V?$basic_string@DU?$char_traits@D@std@@V?$allocator@D@2@@std@@@2@@property_tree@boost@@@std@@@2@@234@@detail@multi_index@boost@@@detail@multi_index@boost@@_N@std@@ABU?$pair@$$CBV?$basic_string@DU?$char_traits@D@std@@V?$allocator@D@2@@std@@V?$basic_ptree@V?$basic_string@DU?$char_traits@D@std@@V?$allocator@D@2@@std@@V12@U?$less@V?$basic_string@DU?$char_traits@D@std@@V?$allocator@D@2@@std@@@2@@property_tree@boost@@@6@@Z 10019ca0 f i JsonWriter.obj
 0001:00018cd0       ?final_size_@?$index_base@U?$pair@$$CBV?$basic_string@DU?$char_traits@D@std@@V?$allocator@D@2@@std@@V?$basic_ptree@V?$basic_string@DU?$char_traits@D@std@@V?$allocator@D@2@@std@@V12@U?$less@V?$basic_string@DU?$char_traits@D@std@@V?$allocator@D@2@@std@@@2@@property_tree@boost@@@std@@U?$indexed_by@U?$sequenced@U?$tag@Una@mpl@boost@@U123@U123@U123@U123@U123@U123@U123@U123@U123@U123@U123@U123@U123@U123@U123@U123@U123@U123@U123@@multi_index@boost@@@multi_index@boost@@U?$ordered_non_unique@U?$tag@Uby_name@subs@?$basic_ptree@V?$basic_string@DU?$char_traits@D@std@@V?$allocator@D@2@@std@@V12@U?$less@V?$basic_string@DU?$char_traits@D@std@@V?$allocator@D@2@@std@@@2@@property_tree@boost@@Una@mpl@5@U675@U675@U675@U675@U675@U675@U675@U675@U675@U675@U675@U675@U675@U675@U675@U675@U675@U675@@multi_index@boost@@U?$member@U?$pair@$$CBV?$basic_string@DU?$char_traits@D@std@@V?$allocator@D@2@@std@@V?$basic_ptree@V?$basic_string@DU?$char_traits@D@std@@V?$allocator@D@2@@std@@V12@U?$less@V?$basic_string@DU?$char_traits@D@std@@V?$allocator@D@2@@std@@@2@@property_tree@boost@@@std@@$$CBV?$basic_string@DU?$char_traits@D@std@@V?$allocator@D@2@@2@$0A@@23@U?$less@V?$basic_string@DU?$char_traits@D@std@@V?$allocator@D@2@@std@@@std@@@23@Una@mpl@3@U563@U563@U563@U563@U563@U563@U563@U563@U563@U563@U563@U563@U563@U563@U563@U563@U563@@multi_index@boost@@V?$allocator@U?$pair@$$CBV?$basic_string@DU?$char_traits@D@std@@V?$allocator@D@2@@std@@V?$basic_ptree@V?$basic_string@DU?$char_traits@D@std@@V?$allocator@D@2@@std@@V12@U?$less@V?$basic_string@DU?$char_traits@D@std@@V?$allocator@D@2@@std@@@2@@property_tree@boost@@@std@@@2@@detail@multi_index@boost@@IBEIXZ 10019cd0 f i JsonWriter.obj
 0001:00018cf0       ?final@?$header_holder@PAU?$sequenced_index_node@U?$ordered_index_node@Unull_augment_policy@detail@multi_index@boost@@U?$index_node_base@U?$pair@$$CBV?$basic_string@DU?$char_traits@D@std@@V?$allocator@D@2@@std@@V?$basic_ptree@V?$basic_string@DU?$char_traits@D@std@@V?$allocator@D@2@@std@@V12@U?$less@V?$basic_string@DU?$char_traits@D@std@@V?$allocator@D@2@@std@@@2@@property_tree@boost@@@std@@V?$allocator@U?$pair@$$CBV?$basic_string@DU?$char_traits@D@std@@V?$allocator@D@2@@std@@V?$basic_ptree@V?$basic_string@DU?$char_traits@D@std@@V?$allocator@D@2@@std@@V12@U?$less@V?$basic_string@DU?$char_traits@D@std@@V?$allocator@D@2@@std@@@2@@property_tree@boost@@@std@@@2@@234@@detail@multi_index@boost@@@detail@multi_index@boost@@V?$multi_index_container@U?$pair@$$CBV?$basic_string@DU?$char_traits@D@std@@V?$allocator@D@2@@std@@V?$basic_ptree@V?$basic_string@DU?$char_traits@D@std@@V?$allocator@D@2@@std@@V12@U?$less@V?$basic_string@DU?$char_traits@D@std@@V?$allocator@D@2@@std@@@2@@property_tree@boost@@@std@@U?$indexed_by@U?$sequenced@U?$tag@Una@mpl@boost@@U123@U123@U123@U123@U123@U123@U123@U123@U123@U123@U123@U123@U123@U123@U123@U123@U123@U123@U123@@multi_index@boost@@@multi_index@boost@@U?$ordered_non_unique@U?$tag@Uby_name@subs@?$basic_ptree@V?$basic_string@DU?$char_traits@D@std@@V?$allocator@D@2@@std@@V12@U?$less@V?$basic_string@DU?$char_traits@D@std@@V?$allocator@D@2@@std@@@2@@property_tree@boost@@Una@mpl@5@U675@U675@U675@U675@U675@U675@U675@U675@U675@U675@U675@U675@U675@U675@U675@U675@U675@U675@@multi_index@boost@@U?$member@U?$pair@$$CBV?$basic_string@DU?$char_traits@D@std@@V?$allocator@D@2@@std@@V?$basic_ptree@V?$basic_string@DU?$char_traits@D@std@@V?$allocator@D@2@@std@@V12@U?$less@V?$basic_string@DU?$char_traits@D@std@@V?$allocator@D@2@@std@@@2@@property_tree@boost@@@std@@$$CBV?$basic_string@DU?$char_traits@D@std@@V?$allocator@D@2@@2@$0A@@23@U?$less@V?$basic_string@DU?$char_traits@D@std@@V?$allocator@D@2@@std@@@std@@@23@Una@mpl@3@U563@U563@U563@U563@U563@U563@U563@U563@U563@U563@U563@U563@U563@U563@U563@U563@U563@@multi_index@boost@@V?$allocator@U?$pair@$$CBV?$basic_string@DU?$char_traits@D@std@@V?$allocator@D@2@@std@@V?$basic_ptree@V?$basic_string@DU?$char_traits@D@std@@V?$allocator@D@2@@std@@V12@U?$less@V?$basic_string@DU?$char_traits@D@std@@V?$allocator@D@2@@std@@@2@@property_tree@boost@@@std@@@2@@34@@detail@multi_index@boost@@AAEAAV?$multi_index_container@U?$pair@$$CBV?$basic_string@DU?$char_traits@D@std@@V?$allocator@D@2@@std@@V?$basic_ptree@V?$basic_string@DU?$char_traits@D@std@@V?$allocator@D@2@@std@@V12@U?$less@V?$basic_string@DU?$char_traits@D@std@@V?$allocator@D@2@@std@@@2@@property_tree@boost@@@std@@U?$indexed_by@U?$sequenced@U?$tag@Una@mpl@boost@@U123@U123@U123@U123@U123@U123@U123@U123@U123@U123@U123@U123@U123@U123@U123@U123@U123@U123@U123@@multi_index@boost@@@multi_index@boost@@U?$ordered_non_unique@U?$tag@Uby_name@subs@?$basic_ptree@V?$basic_string@DU?$char_traits@D@std@@V?$allocator@D@2@@std@@V12@U?$less@V?$basic_string@DU?$char_traits@D@std@@V?$allocator@D@2@@std@@@2@@property_tree@boost@@Una@mpl@5@U675@U675@U675@U675@U675@U675@U675@U675@U675@U675@U675@U675@U675@U675@U675@U675@U675@U675@@multi_index@boost@@U?$member@U?$pair@$$CBV?$basic_string@DU?$char_traits@D@std@@V?$allocator@D@2@@std@@V?$basic_ptree@V?$basic_string@DU?$char_traits@D@std@@V?$allocator@D@2@@std@@V12@U?$less@V?$basic_string@DU?$char_traits@D@std@@V?$allocator@D@2@@std@@@2@@property_tree@boost@@@std@@$$CBV?$basic_string@DU?$char_traits@D@std@@V?$allocator@D@2@@2@$0A@@23@U?$less@V?$basic_string@DU?$char_traits@D@std@@V?$allocator@D@2@@std@@@std@@@23@Una@mpl@3@U563@U563@U563@U563@U563@U563@U563@U563@U563@U563@U563@U563@U563@U563@U563@U563@U563@@multi_index@boost@@V?$allocator@U?$pair@$$CBV?$basic_string@DU?$char_traits@D@std@@V?$allocator@D@2@@std@@V?$basic_ptree@V?$basic_string@DU?$char_traits@D@std@@V?$allocator@D@2@@std@@V12@U?$less@V?$basic_string@DU?$char_traits@D@std@@V?$allocator@D@2@@std@@@2@@property_tree@boost@@@std@@@2@@34@XZ 10019cf0 f i JsonWriter.obj
 0001:00018d20       ?increment@?$sequenced_index_node@U?$ordered_index_node@Unull_augment_policy@detail@multi_index@boost@@U?$index_node_base@U?$pair@$$CBV?$basic_string@DU?$char_traits@D@std@@V?$allocator@D@2@@std@@V?$basic_ptree@V?$basic_string@DU?$char_traits@D@std@@V?$allocator@D@2@@std@@V12@U?$less@V?$basic_string@DU?$char_traits@D@std@@V?$allocator@D@2@@std@@@2@@property_tree@boost@@@std@@V?$allocator@U?$pair@$$CBV?$basic_string@DU?$char_traits@D@std@@V?$allocator@D@2@@std@@V?$basic_ptree@V?$basic_string@DU?$char_traits@D@std@@V?$allocator@D@2@@std@@V12@U?$less@V?$basic_string@DU?$char_traits@D@std@@V?$allocator@D@2@@std@@@2@@property_tree@boost@@@std@@@2@@234@@detail@multi_index@boost@@@detail@multi_index@boost@@SAXAAPAU1234@@Z 10019d20 f i JsonWriter.obj
 0001:00018d70       ?from_impl@?$sequenced_index_node@U?$ordered_index_node@Unull_augment_policy@detail@multi_index@boost@@U?$index_node_base@U?$pair@$$CBV?$basic_string@DU?$char_traits@D@std@@V?$allocator@D@2@@std@@V?$basic_ptree@V?$basic_string@DU?$char_traits@D@std@@V?$allocator@D@2@@std@@V12@U?$less@V?$basic_string@DU?$char_traits@D@std@@V?$allocator@D@2@@std@@@2@@property_tree@boost@@@std@@V?$allocator@U?$pair@$$CBV?$basic_string@DU?$char_traits@D@std@@V?$allocator@D@2@@std@@V?$basic_ptree@V?$basic_string@DU?$char_traits@D@std@@V?$allocator@D@2@@std@@V12@U?$less@V?$basic_string@DU?$char_traits@D@std@@V?$allocator@D@2@@std@@@2@@property_tree@boost@@@std@@@2@@234@@detail@multi_index@boost@@@detail@multi_index@boost@@SAPAU1234@PAU?$sequenced_index_node_impl@V?$allocator@D@std@@@234@@Z 10019d70 f i JsonWriter.obj
 0001:00018db0       ?impl@?$sequenced_index_node@U?$ordered_index_node@Unull_augment_policy@detail@multi_index@boost@@U?$index_node_base@U?$pair@$$CBV?$basic_string@DU?$char_traits@D@std@@V?$allocator@D@2@@std@@V?$basic_ptree@V?$basic_string@DU?$char_traits@D@std@@V?$allocator@D@2@@std@@V12@U?$less@V?$basic_string@DU?$char_traits@D@std@@V?$allocator@D@2@@std@@@2@@property_tree@boost@@@std@@V?$allocator@U?$pair@$$CBV?$basic_string@DU?$char_traits@D@std@@V?$allocator@D@2@@std@@V?$basic_ptree@V?$basic_string@DU?$char_traits@D@std@@V?$allocator@D@2@@std@@V12@U?$less@V?$basic_string@DU?$char_traits@D@std@@V?$allocator@D@2@@std@@@2@@property_tree@boost@@@std@@@2@@234@@detail@multi_index@boost@@@detail@multi_index@boost@@QAEPAU?$sequenced_index_node_impl@V?$allocator@D@std@@@234@XZ 10019db0 f i JsonWriter.obj
 0001:00018de0       ?next@?$sequenced_index_node@U?$ordered_index_node@Unull_augment_policy@detail@multi_index@boost@@U?$index_node_base@U?$pair@$$CBV?$basic_string@DU?$char_traits@D@std@@V?$allocator@D@2@@std@@V?$basic_ptree@V?$basic_string@DU?$char_traits@D@std@@V?$allocator@D@2@@std@@V12@U?$less@V?$basic_string@DU?$char_traits@D@std@@V?$allocator@D@2@@std@@@2@@property_tree@boost@@@std@@V?$allocator@U?$pair@$$CBV?$basic_string@DU?$char_traits@D@std@@V?$allocator@D@2@@std@@V?$basic_ptree@V?$basic_string@DU?$char_traits@D@std@@V?$allocator@D@2@@std@@V12@U?$less@V?$basic_string@DU?$char_traits@D@std@@V?$allocator@D@2@@std@@@2@@property_tree@boost@@@std@@@2@@234@@detail@multi_index@boost@@@detail@multi_index@boost@@QAEAAPAU?$sequenced_index_node_impl@V?$allocator@D@std@@@234@XZ 10019de0 f i JsonWriter.obj
 0001:00018e00       ?prior@?$sequenced_index_node@U?$ordered_index_node@Unull_augment_policy@detail@multi_index@boost@@U?$index_node_base@U?$pair@$$CBV?$basic_string@DU?$char_traits@D@std@@V?$allocator@D@2@@std@@V?$basic_ptree@V?$basic_string@DU?$char_traits@D@std@@V?$allocator@D@2@@std@@V12@U?$less@V?$basic_string@DU?$char_traits@D@std@@V?$allocator@D@2@@std@@@2@@property_tree@boost@@@std@@V?$allocator@U?$pair@$$CBV?$basic_string@DU?$char_traits@D@std@@V?$allocator@D@2@@std@@V?$basic_ptree@V?$basic_string@DU?$char_traits@D@std@@V?$allocator@D@2@@std@@V12@U?$less@V?$basic_string@DU?$char_traits@D@std@@V?$allocator@D@2@@std@@@2@@property_tree@boost@@@std@@@2@@234@@detail@multi_index@boost@@@detail@multi_index@boost@@QAEAAPAU?$sequenced_index_node_impl@V?$allocator@D@std@@@234@XZ 10019e00 f i JsonWriter.obj
 0001:00018e20       ?deallocate@?$_Default_allocator_traits@V?$allocator@U?$copy_map_entry@U?$sequenced_index_node@U?$ordered_index_node@Unull_augment_policy@detail@multi_index@boost@@U?$index_node_base@U?$pair@$$CBV?$basic_string@DU?$char_traits@D@std@@V?$allocator@D@2@@std@@V?$basic_ptree@V?$basic_string@DU?$char_traits@D@std@@V?$allocator@D@2@@std@@V12@U?$less@V?$basic_string@DU?$char_traits@D@std@@V?$allocator@D@2@@std@@@2@@property_tree@boost@@@std@@V?$allocator@U?$pair@$$CBV?$basic_string@DU?$char_traits@D@std@@V?$allocator@D@2@@std@@V?$basic_ptree@V?$basic_string@DU?$char_traits@D@std@@V?$allocator@D@2@@std@@V12@U?$less@V?$basic_string@DU?$char_traits@D@std@@V?$allocator@D@2@@std@@@2@@property_tree@boost@@@std@@@2@@234@@detail@multi_index@boost@@@detail@multi_index@boost@@@detail@multi_index@boost@@@std@@@std@@SAXAAV?$allocator@U?$copy_map_entry@U?$sequenced_index_node@U?$ordered_index_node@Unull_augment_policy@detail@multi_index@boost@@U?$index_node_base@U?$pair@$$CBV?$basic_string@DU?$char_traits@D@std@@V?$allocator@D@2@@std@@V?$basic_ptree@V?$basic_string@DU?$char_traits@D@std@@V?$allocator@D@2@@std@@V12@U?$less@V?$basic_string@DU?$char_traits@D@std@@V?$allocator@D@2@@std@@@2@@property_tree@boost@@@std@@V?$allocator@U?$pair@$$CBV?$basic_string@DU?$char_traits@D@std@@V?$allocator@D@2@@std@@V?$basic_ptree@V?$basic_string@DU?$char_traits@D@std@@V?$allocator@D@2@@std@@V12@U?$less@V?$basic_string@DU?$char_traits@D@std@@V?$allocator@D@2@@std@@@2@@property_tree@boost@@@std@@@2@@234@@detail@multi_index@boost@@@detail@multi_index@boost@@@detail@multi_index@boost@@@2@QAU?$copy_map_entry@U?$sequenced_index_node@U?$ordered_index_node@Unull_augment_policy@detail@multi_index@boost@@U?$index_node_base@U?$pair@$$CBV?$basic_string@DU?$char_traits@D@std@@V?$allocator@D@2@@std@@V?$basic_ptree@V?$basic_string@DU?$char_traits@D@std@@V?$allocator@D@2@@std@@V12@U?$less@V?$basic_string@DU?$char_traits@D@std@@V?$allocator@D@2@@std@@@2@@property_tree@boost@@@std@@V?$allocator@U?$pair@$$CBV?$basic_string@DU?$char_traits@D@std@@V?$allocator@D@2@@std@@V?$basic_ptree@V?$basic_string@DU?$char_traits@D@std@@V?$allocator@D@2@@std@@V12@U?$less@V?$basic_string@DU?$char_traits@D@std@@V?$allocator@D@2@@std@@@2@@property_tree@boost@@@std@@@2@@234@@detail@multi_index@boost@@@detail@multi_index@boost@@@detail@multi_index@boost@@I@Z 10019e20 f i JsonWriter.obj
 0001:00018e40       ?allocate@?$_Default_allocator_traits@V?$allocator@U?$copy_map_entry@U?$sequenced_index_node@U?$ordered_index_node@Unull_augment_policy@detail@multi_index@boost@@U?$index_node_base@U?$pair@$$CBV?$basic_string@DU?$char_traits@D@std@@V?$allocator@D@2@@std@@V?$basic_ptree@V?$basic_string@DU?$char_traits@D@std@@V?$allocator@D@2@@std@@V12@U?$less@V?$basic_string@DU?$char_traits@D@std@@V?$allocator@D@2@@std@@@2@@property_tree@boost@@@std@@V?$allocator@U?$pair@$$CBV?$basic_string@DU?$char_traits@D@std@@V?$allocator@D@2@@std@@V?$basic_ptree@V?$basic_string@DU?$char_traits@D@std@@V?$allocator@D@2@@std@@V12@U?$less@V?$basic_string@DU?$char_traits@D@std@@V?$allocator@D@2@@std@@@2@@property_tree@boost@@@std@@@2@@234@@detail@multi_index@boost@@@detail@multi_index@boost@@@detail@multi_index@boost@@@std@@@std@@SAPAU?$copy_map_entry@U?$sequenced_index_node@U?$ordered_index_node@Unull_augment_policy@detail@multi_index@boost@@U?$index_node_base@U?$pair@$$CBV?$basic_string@DU?$char_traits@D@std@@V?$allocator@D@2@@std@@V?$basic_ptree@V?$basic_string@DU?$char_traits@D@std@@V?$allocator@D@2@@std@@V12@U?$less@V?$basic_string@DU?$char_traits@D@std@@V?$allocator@D@2@@std@@@2@@property_tree@boost@@@std@@V?$allocator@U?$pair@$$CBV?$basic_string@DU?$char_traits@D@std@@V?$allocator@D@2@@std@@V?$basic_ptree@V?$basic_string@DU?$char_traits@D@std@@V?$allocator@D@2@@std@@V12@U?$less@V?$basic_string@DU?$char_traits@D@std@@V?$allocator@D@2@@std@@@2@@property_tree@boost@@@std@@@2@@234@@detail@multi_index@boost@@@detail@multi_index@boost@@@detail@multi_index@boost@@AAV?$allocator@U?$copy_map_entry@U?$sequenced_index_node@U?$ordered_index_node@Unull_augment_policy@detail@multi_index@boost@@U?$index_node_base@U?$pair@$$CBV?$basic_string@DU?$char_traits@D@std@@V?$allocator@D@2@@std@@V?$basic_ptree@V?$basic_string@DU?$char_traits@D@std@@V?$allocator@D@2@@std@@V12@U?$less@V?$basic_string@DU?$char_traits@D@std@@V?$allocator@D@2@@std@@@2@@property_tree@boost@@@std@@V?$allocator@U?$pair@$$CBV?$basic_string@DU?$char_traits@D@std@@V?$allocator@D@2@@std@@V?$basic_ptree@V?$basic_string@DU?$char_traits@D@std@@V?$allocator@D@2@@std@@V12@U?$less@V?$basic_string@DU?$char_traits@D@std@@V?$allocator@D@2@@std@@@2@@property_tree@boost@@@std@@@2@@234@@detail@multi_index@boost@@@detail@multi_index@boost@@@detail@multi_index@boost@@@2@I@Z 10019e40 f i JsonWriter.obj
 0001:00018e60       ??0?$cons@U?$member@U?$pair@$$CBV?$basic_string@DU?$char_traits@D@std@@V?$allocator@D@2@@std@@V?$basic_ptree@V?$basic_string@DU?$char_traits@D@std@@V?$allocator@D@2@@std@@V12@U?$less@V?$basic_string@DU?$char_traits@D@std@@V?$allocator@D@2@@std@@@2@@property_tree@boost@@@std@@$$CBV?$basic_string@DU?$char_traits@D@std@@V?$allocator@D@2@@2@$0A@@multi_index@boost@@U?$cons@U?$less@V?$basic_string@DU?$char_traits@D@std@@V?$allocator@D@2@@std@@@std@@Unull_type@tuples@boost@@@tuples@3@@tuples@boost@@QAE@XZ 10019e60 f i JsonWriter.obj
 0001:00018e80       ?relink@?$sequenced_index_node_impl@V?$allocator@D@std@@@detail@multi_index@boost@@SAXPAU1234@0@Z 10019e80 f i JsonWriter.obj
 0001:00018ee0       ?increment@?$sequenced_index_node_impl@V?$allocator@D@std@@@detail@multi_index@boost@@SAXAAPAU1234@@Z 10019ee0 f i JsonWriter.obj
 0001:00018f00       ?left@?$ordered_index_node_compressed_base@Unull_augment_policy@detail@multi_index@boost@@V?$allocator@D@std@@@detail@multi_index@boost@@QAEAAPAU?$ordered_index_node_impl@Unull_augment_policy@detail@multi_index@boost@@V?$allocator@D@std@@@234@XZ 10019f00 f i JsonWriter.obj
 0001:00018f00       ?next@?$sequenced_index_node_impl@V?$allocator@D@std@@@detail@multi_index@boost@@QAEAAPAU1234@XZ 10019f00 f i JsonWriter.obj
 0001:00018f20       ??4parent_ref@?$ordered_index_node_compressed_base@Unull_augment_policy@detail@multi_index@boost@@V?$allocator@D@std@@@detail@multi_index@boost@@QAEAAU01234@PAU?$ordered_index_node_impl@Unull_augment_policy@detail@multi_index@boost@@V?$allocator@D@std@@@234@@Z 10019f20 f i JsonWriter.obj
 0001:00018f50       ??Bparent_ref@?$ordered_index_node_compressed_base@Unull_augment_policy@detail@multi_index@boost@@V?$allocator@D@std@@@detail@multi_index@boost@@QBEPAU?$ordered_index_node_impl@Unull_augment_policy@detail@multi_index@boost@@V?$allocator@D@std@@@234@XZ 10019f50 f i JsonWriter.obj
 0001:00018f70       ??4color_ref@?$ordered_index_node_compressed_base@Unull_augment_policy@detail@multi_index@boost@@V?$allocator@D@std@@@detail@multi_index@boost@@QAEAAU01234@ABU01234@@Z 10019f70 f i JsonWriter.obj
 0001:00018f90       ?right@?$ordered_index_node_compressed_base@Unull_augment_policy@detail@multi_index@boost@@V?$allocator@D@std@@@detail@multi_index@boost@@QAEAAPAU?$ordered_index_node_impl@Unull_augment_policy@detail@multi_index@boost@@V?$allocator@D@std@@@234@XZ 10019f90 f i JsonWriter.obj
 0001:00018fb0       ?end@?$copy_map@U?$sequenced_index_node@U?$ordered_index_node@Unull_augment_policy@detail@multi_index@boost@@U?$index_node_base@U?$pair@$$CBV?$basic_string@DU?$char_traits@D@std@@V?$allocator@D@2@@std@@V?$basic_ptree@V?$basic_string@DU?$char_traits@D@std@@V?$allocator@D@2@@std@@V12@U?$less@V?$basic_string@DU?$char_traits@D@std@@V?$allocator@D@2@@std@@@2@@property_tree@boost@@@std@@V?$allocator@U?$pair@$$CBV?$basic_string@DU?$char_traits@D@std@@V?$allocator@D@2@@std@@V?$basic_ptree@V?$basic_string@DU?$char_traits@D@std@@V?$allocator@D@2@@std@@V12@U?$less@V?$basic_string@DU?$char_traits@D@std@@V?$allocator@D@2@@std@@@2@@property_tree@boost@@@std@@@2@@234@@detail@multi_index@boost@@@detail@multi_index@boost@@V?$allocator@U?$pair@$$CBV?$basic_string@DU?$char_traits@D@std@@V?$allocator@D@2@@std@@V?$basic_ptree@V?$basic_string@DU?$char_traits@D@std@@V?$allocator@D@2@@std@@V12@U?$less@V?$basic_string@DU?$char_traits@D@std@@V?$allocator@D@2@@std@@@2@@property_tree@boost@@@std@@@std@@@detail@multi_index@boost@@QBEPBU?$copy_map_entry@U?$sequenced_index_node@U?$ordered_index_node@Unull_augment_policy@detail@multi_index@boost@@U?$index_node_base@U?$pair@$$CBV?$basic_string@DU?$char_traits@D@std@@V?$allocator@D@2@@std@@V?$basic_ptree@V?$basic_string@DU?$char_traits@D@std@@V?$allocator@D@2@@std@@V12@U?$less@V?$basic_string@DU?$char_traits@D@std@@V?$allocator@D@2@@std@@@2@@property_tree@boost@@@std@@V?$allocator@U?$pair@$$CBV?$basic_string@DU?$char_traits@D@std@@V?$allocator@D@2@@std@@V?$basic_ptree@V?$basic_string@DU?$char_traits@D@std@@V?$allocator@D@2@@std@@V12@U?$less@V?$basic_string@DU?$char_traits@D@std@@V?$allocator@D@2@@std@@@2@@property_tree@boost@@@std@@@2@@234@@detail@multi_index@boost@@@detail@multi_index@boost@@@234@XZ 10019fb0 f i JsonWriter.obj
 0001:00018fe0       ?begin@?$copy_map@U?$sequenced_index_node@U?$ordered_index_node@Unull_augment_policy@detail@multi_index@boost@@U?$index_node_base@U?$pair@$$CBV?$basic_string@DU?$char_traits@D@std@@V?$allocator@D@2@@std@@V?$basic_ptree@V?$basic_string@DU?$char_traits@D@std@@V?$allocator@D@2@@std@@V12@U?$less@V?$basic_string@DU?$char_traits@D@std@@V?$allocator@D@2@@std@@@2@@property_tree@boost@@@std@@V?$allocator@U?$pair@$$CBV?$basic_string@DU?$char_traits@D@std@@V?$allocator@D@2@@std@@V?$basic_ptree@V?$basic_string@DU?$char_traits@D@std@@V?$allocator@D@2@@std@@V12@U?$less@V?$basic_string@DU?$char_traits@D@std@@V?$allocator@D@2@@std@@@2@@property_tree@boost@@@std@@@2@@234@@detail@multi_index@boost@@@detail@multi_index@boost@@V?$allocator@U?$pair@$$CBV?$basic_string@DU?$char_traits@D@std@@V?$allocator@D@2@@std@@V?$basic_ptree@V?$basic_string@DU?$char_traits@D@std@@V?$allocator@D@2@@std@@V12@U?$less@V?$basic_string@DU?$char_traits@D@std@@V?$allocator@D@2@@std@@@2@@property_tree@boost@@@std@@@std@@@detail@multi_index@boost@@QBEPBU?$copy_map_entry@U?$sequenced_index_node@U?$ordered_index_node@Unull_augment_policy@detail@multi_index@boost@@U?$index_node_base@U?$pair@$$CBV?$basic_string@DU?$char_traits@D@std@@V?$allocator@D@2@@std@@V?$basic_ptree@V?$basic_string@DU?$char_traits@D@std@@V?$allocator@D@2@@std@@V12@U?$less@V?$basic_string@DU?$char_traits@D@std@@V?$allocator@D@2@@std@@@2@@property_tree@boost@@@std@@V?$allocator@U?$pair@$$CBV?$basic_string@DU?$char_traits@D@std@@V?$allocator@D@2@@std@@V?$basic_ptree@V?$basic_string@DU?$char_traits@D@std@@V?$allocator@D@2@@std@@V12@U?$less@V?$basic_string@DU?$char_traits@D@std@@V?$allocator@D@2@@std@@@2@@property_tree@boost@@@std@@@2@@234@@detail@multi_index@boost@@@detail@multi_index@boost@@@234@XZ 10019fe0 f i JsonWriter.obj
 0001:00019010       ?empty_initialize@?$ordered_index_impl@U?$member@U?$pair@$$CBV?$basic_string@DU?$char_traits@D@std@@V?$allocator@D@2@@std@@V?$basic_ptree@V?$basic_string@DU?$char_traits@D@std@@V?$allocator@D@2@@std@@V12@U?$less@V?$basic_string@DU?$char_traits@D@std@@V?$allocator@D@2@@std@@@2@@property_tree@boost@@@std@@$$CBV?$basic_string@DU?$char_traits@D@std@@V?$allocator@D@2@@2@$0A@@multi_index@boost@@U?$less@V?$basic_string@DU?$char_traits@D@std@@V?$allocator@D@2@@std@@@std@@U?$nth_layer@$01U?$pair@$$CBV?$basic_string@DU?$char_traits@D@std@@V?$allocator@D@2@@std@@V?$basic_ptree@V?$basic_string@DU?$char_traits@D@std@@V?$allocator@D@2@@std@@V12@U?$less@V?$basic_string@DU?$char_traits@D@std@@V?$allocator@D@2@@std@@@2@@property_tree@boost@@@std@@U?$indexed_by@U?$sequenced@U?$tag@Una@mpl@boost@@U123@U123@U123@U123@U123@U123@U123@U123@U123@U123@U123@U123@U123@U123@U123@U123@U123@U123@U123@@multi_index@boost@@@multi_index@boost@@U?$ordered_non_unique@U?$tag@Uby_name@subs@?$basic_ptree@V?$basic_string@DU?$char_traits@D@std@@V?$allocator@D@2@@std@@V12@U?$less@V?$basic_string@DU?$char_traits@D@std@@V?$allocator@D@2@@std@@@2@@property_tree@boost@@Una@mpl@5@U675@U675@U675@U675@U675@U675@U675@U675@U675@U675@U675@U675@U675@U675@U675@U675@U675@U675@@multi_index@boost@@U?$member@U?$pair@$$CBV?$basic_string@DU?$char_traits@D@std@@V?$allocator@D@2@@std@@V?$basic_ptree@V?$basic_string@DU?$char_traits@D@std@@V?$allocator@D@2@@std@@V12@U?$less@V?$basic_string@DU?$char_traits@D@std@@V?$allocator@D@2@@std@@@2@@property_tree@boost@@@std@@$$CBV?$basic_string@DU?$char_traits@D@std@@V?$allocator@D@2@@2@$0A@@23@U?$less@V?$basic_string@DU?$char_traits@D@std@@V?$allocator@D@2@@std@@@std@@@23@Una@mpl@3@U563@U563@U563@U563@U563@U563@U563@U563@U563@U563@U563@U563@U563@U563@U563@U563@U563@@multi_index@boost@@V?$allocator@U?$pair@$$CBV?$basic_string@DU?$char_traits@D@std@@V?$allocator@D@2@@std@@V?$basic_ptree@V?$basic_string@DU?$char_traits@D@std@@V?$allocator@D@2@@std@@V12@U?$less@V?$basic_string@DU?$char_traits@D@std@@V?$allocator@D@2@@std@@@2@@property_tree@boost@@@std@@@2@@detail@23@U?$vector1@Uby_name@subs@?$basic_ptree@V?$basic_string@DU?$char_traits@D@std@@V?$allocator@D@2@@std@@V12@U?$less@V?$basic_string@DU?$char_traits@D@std@@V?$allocator@D@2@@std@@@2@@property_tree@boost@@@mpl@3@Uordered_non_unique_tag@723@Unull_augment_policy@723@@detail@multi_index@boost@@AAEXXZ 1001a010 f i JsonWriter.obj
 0001:000190c0       ?rightmost@?$ordered_index_impl@U?$member@U?$pair@$$CBV?$basic_string@DU?$char_traits@D@std@@V?$allocator@D@2@@std@@V?$basic_ptree@V?$basic_string@DU?$char_traits@D@std@@V?$allocator@D@2@@std@@V12@U?$less@V?$basic_string@DU?$char_traits@D@std@@V?$allocator@D@2@@std@@@2@@property_tree@boost@@@std@@$$CBV?$basic_string@DU?$char_traits@D@std@@V?$allocator@D@2@@2@$0A@@multi_index@boost@@U?$less@V?$basic_string@DU?$char_traits@D@std@@V?$allocator@D@2@@std@@@std@@U?$nth_layer@$01U?$pair@$$CBV?$basic_string@DU?$char_traits@D@std@@V?$allocator@D@2@@std@@V?$basic_ptree@V?$basic_string@DU?$char_traits@D@std@@V?$allocator@D@2@@std@@V12@U?$less@V?$basic_string@DU?$char_traits@D@std@@V?$allocator@D@2@@std@@@2@@property_tree@boost@@@std@@U?$indexed_by@U?$sequenced@U?$tag@Una@mpl@boost@@U123@U123@U123@U123@U123@U123@U123@U123@U123@U123@U123@U123@U123@U123@U123@U123@U123@U123@U123@@multi_index@boost@@@multi_index@boost@@U?$ordered_non_unique@U?$tag@Uby_name@subs@?$basic_ptree@V?$basic_string@DU?$char_traits@D@std@@V?$allocator@D@2@@std@@V12@U?$less@V?$basic_string@DU?$char_traits@D@std@@V?$allocator@D@2@@std@@@2@@property_tree@boost@@Una@mpl@5@U675@U675@U675@U675@U675@U675@U675@U675@U675@U675@U675@U675@U675@U675@U675@U675@U675@U675@@multi_index@boost@@U?$member@U?$pair@$$CBV?$basic_string@DU?$char_traits@D@std@@V?$allocator@D@2@@std@@V?$basic_ptree@V?$basic_string@DU?$char_traits@D@std@@V?$allocator@D@2@@std@@V12@U?$less@V?$basic_string@DU?$char_traits@D@std@@V?$allocator@D@2@@std@@@2@@property_tree@boost@@@std@@$$CBV?$basic_string@DU?$char_traits@D@std@@V?$allocator@D@2@@2@$0A@@23@U?$less@V?$basic_string@DU?$char_traits@D@std@@V?$allocator@D@2@@std@@@std@@@23@Una@mpl@3@U563@U563@U563@U563@U563@U563@U563@U563@U563@U563@U563@U563@U563@U563@U563@U563@U563@@multi_index@boost@@V?$allocator@U?$pair@$$CBV?$basic_string@DU?$char_traits@D@std@@V?$allocator@D@2@@std@@V?$basic_ptree@V?$basic_string@DU?$char_traits@D@std@@V?$allocator@D@2@@std@@V12@U?$less@V?$basic_string@DU?$char_traits@D@std@@V?$allocator@D@2@@std@@@2@@property_tree@boost@@@std@@@2@@detail@23@U?$vector1@Uby_name@subs@?$basic_ptree@V?$basic_string@DU?$char_traits@D@std@@V?$allocator@D@2@@std@@V12@U?$less@V?$basic_string@DU?$char_traits@D@std@@V?$allocator@D@2@@std@@@2@@property_tree@boost@@@mpl@3@Uordered_non_unique_tag@723@Unull_augment_policy@723@@detail@multi_index@boost@@IBEPAU?$ordered_index_node@Unull_augment_policy@detail@multi_index@boost@@U?$index_node_base@U?$pair@$$CBV?$basic_string@DU?$char_traits@D@std@@V?$allocator@D@2@@std@@V?$basic_ptree@V?$basic_string@DU?$char_traits@D@std@@V?$allocator@D@2@@std@@V12@U?$less@V?$basic_string@DU?$char_traits@D@std@@V?$allocator@D@2@@std@@@2@@property_tree@boost@@@std@@V?$allocator@U?$pair@$$CBV?$basic_string@DU?$char_traits@D@std@@V?$allocator@D@2@@std@@V?$basic_ptree@V?$basic_string@DU?$char_traits@D@std@@V?$allocator@D@2@@std@@V12@U?$less@V?$basic_string@DU?$char_traits@D@std@@V?$allocator@D@2@@std@@@2@@property_tree@boost@@@std@@@2@@234@@234@XZ 1001a0c0 f i JsonWriter.obj
 0001:000190f0       ?leftmost@?$ordered_index_impl@U?$member@U?$pair@$$CBV?$basic_string@DU?$char_traits@D@std@@V?$allocator@D@2@@std@@V?$basic_ptree@V?$basic_string@DU?$char_traits@D@std@@V?$allocator@D@2@@std@@V12@U?$less@V?$basic_string@DU?$char_traits@D@std@@V?$allocator@D@2@@std@@@2@@property_tree@boost@@@std@@$$CBV?$basic_string@DU?$char_traits@D@std@@V?$allocator@D@2@@2@$0A@@multi_index@boost@@U?$less@V?$basic_string@DU?$char_traits@D@std@@V?$allocator@D@2@@std@@@std@@U?$nth_layer@$01U?$pair@$$CBV?$basic_string@DU?$char_traits@D@std@@V?$allocator@D@2@@std@@V?$basic_ptree@V?$basic_string@DU?$char_traits@D@std@@V?$allocator@D@2@@std@@V12@U?$less@V?$basic_string@DU?$char_traits@D@std@@V?$allocator@D@2@@std@@@2@@property_tree@boost@@@std@@U?$indexed_by@U?$sequenced@U?$tag@Una@mpl@boost@@U123@U123@U123@U123@U123@U123@U123@U123@U123@U123@U123@U123@U123@U123@U123@U123@U123@U123@U123@@multi_index@boost@@@multi_index@boost@@U?$ordered_non_unique@U?$tag@Uby_name@subs@?$basic_ptree@V?$basic_string@DU?$char_traits@D@std@@V?$allocator@D@2@@std@@V12@U?$less@V?$basic_string@DU?$char_traits@D@std@@V?$allocator@D@2@@std@@@2@@property_tree@boost@@Una@mpl@5@U675@U675@U675@U675@U675@U675@U675@U675@U675@U675@U675@U675@U675@U675@U675@U675@U675@U675@@multi_index@boost@@U?$member@U?$pair@$$CBV?$basic_string@DU?$char_traits@D@std@@V?$allocator@D@2@@std@@V?$basic_ptree@V?$basic_string@DU?$char_traits@D@std@@V?$allocator@D@2@@std@@V12@U?$less@V?$basic_string@DU?$char_traits@D@std@@V?$allocator@D@2@@std@@@2@@property_tree@boost@@@std@@$$CBV?$basic_string@DU?$char_traits@D@std@@V?$allocator@D@2@@2@$0A@@23@U?$less@V?$basic_string@DU?$char_traits@D@std@@V?$allocator@D@2@@std@@@std@@@23@Una@mpl@3@U563@U563@U563@U563@U563@U563@U563@U563@U563@U563@U563@U563@U563@U563@U563@U563@U563@@multi_index@boost@@V?$allocator@U?$pair@$$CBV?$basic_string@DU?$char_traits@D@std@@V?$allocator@D@2@@std@@V?$basic_ptree@V?$basic_string@DU?$char_traits@D@std@@V?$allocator@D@2@@std@@V12@U?$less@V?$basic_string@DU?$char_traits@D@std@@V?$allocator@D@2@@std@@@2@@property_tree@boost@@@std@@@2@@detail@23@U?$vector1@Uby_name@subs@?$basic_ptree@V?$basic_string@DU?$char_traits@D@std@@V?$allocator@D@2@@std@@V12@U?$less@V?$basic_string@DU?$char_traits@D@std@@V?$allocator@D@2@@std@@@2@@property_tree@boost@@@mpl@3@Uordered_non_unique_tag@723@Unull_augment_policy@723@@detail@multi_index@boost@@IBEPAU?$ordered_index_node@Unull_augment_policy@detail@multi_index@boost@@U?$index_node_base@U?$pair@$$CBV?$basic_string@DU?$char_traits@D@std@@V?$allocator@D@2@@std@@V?$basic_ptree@V?$basic_string@DU?$char_traits@D@std@@V?$allocator@D@2@@std@@V12@U?$less@V?$basic_string@DU?$char_traits@D@std@@V?$allocator@D@2@@std@@@2@@property_tree@boost@@@std@@V?$allocator@U?$pair@$$CBV?$basic_string@DU?$char_traits@D@std@@V?$allocator@D@2@@std@@V?$basic_ptree@V?$basic_string@DU?$char_traits@D@std@@V?$allocator@D@2@@std@@V12@U?$less@V?$basic_string@DU?$char_traits@D@std@@V?$allocator@D@2@@std@@@2@@property_tree@boost@@@std@@@2@@234@@234@XZ 1001a0f0 f i JsonWriter.obj
 0001:00019120       ?root@?$ordered_index_impl@U?$member@U?$pair@$$CBV?$basic_string@DU?$char_traits@D@std@@V?$allocator@D@2@@std@@V?$basic_ptree@V?$basic_string@DU?$char_traits@D@std@@V?$allocator@D@2@@std@@V12@U?$less@V?$basic_string@DU?$char_traits@D@std@@V?$allocator@D@2@@std@@@2@@property_tree@boost@@@std@@$$CBV?$basic_string@DU?$char_traits@D@std@@V?$allocator@D@2@@2@$0A@@multi_index@boost@@U?$less@V?$basic_string@DU?$char_traits@D@std@@V?$allocator@D@2@@std@@@std@@U?$nth_layer@$01U?$pair@$$CBV?$basic_string@DU?$char_traits@D@std@@V?$allocator@D@2@@std@@V?$basic_ptree@V?$basic_string@DU?$char_traits@D@std@@V?$allocator@D@2@@std@@V12@U?$less@V?$basic_string@DU?$char_traits@D@std@@V?$allocator@D@2@@std@@@2@@property_tree@boost@@@std@@U?$indexed_by@U?$sequenced@U?$tag@Una@mpl@boost@@U123@U123@U123@U123@U123@U123@U123@U123@U123@U123@U123@U123@U123@U123@U123@U123@U123@U123@U123@@multi_index@boost@@@multi_index@boost@@U?$ordered_non_unique@U?$tag@Uby_name@subs@?$basic_ptree@V?$basic_string@DU?$char_traits@D@std@@V?$allocator@D@2@@std@@V12@U?$less@V?$basic_string@DU?$char_traits@D@std@@V?$allocator@D@2@@std@@@2@@property_tree@boost@@Una@mpl@5@U675@U675@U675@U675@U675@U675@U675@U675@U675@U675@U675@U675@U675@U675@U675@U675@U675@U675@@multi_index@boost@@U?$member@U?$pair@$$CBV?$basic_string@DU?$char_traits@D@std@@V?$allocator@D@2@@std@@V?$basic_ptree@V?$basic_string@DU?$char_traits@D@std@@V?$allocator@D@2@@std@@V12@U?$less@V?$basic_string@DU?$char_traits@D@std@@V?$allocator@D@2@@std@@@2@@property_tree@boost@@@std@@$$CBV?$basic_string@DU?$char_traits@D@std@@V?$allocator@D@2@@2@$0A@@23@U?$less@V?$basic_string@DU?$char_traits@D@std@@V?$allocator@D@2@@std@@@std@@@23@Una@mpl@3@U563@U563@U563@U563@U563@U563@U563@U563@U563@U563@U563@U563@U563@U563@U563@U563@U563@@multi_index@boost@@V?$allocator@U?$pair@$$CBV?$basic_string@DU?$char_traits@D@std@@V?$allocator@D@2@@std@@V?$basic_ptree@V?$basic_string@DU?$char_traits@D@std@@V?$allocator@D@2@@std@@V12@U?$less@V?$basic_string@DU?$char_traits@D@std@@V?$allocator@D@2@@std@@@2@@property_tree@boost@@@std@@@2@@detail@23@U?$vector1@Uby_name@subs@?$basic_ptree@V?$basic_string@DU?$char_traits@D@std@@V?$allocator@D@2@@std@@V12@U?$less@V?$basic_string@DU?$char_traits@D@std@@V?$allocator@D@2@@std@@@2@@property_tree@boost@@@mpl@3@Uordered_non_unique_tag@723@Unull_augment_policy@723@@detail@multi_index@boost@@IBEPAU?$ordered_index_node@Unull_augment_policy@detail@multi_index@boost@@U?$index_node_base@U?$pair@$$CBV?$basic_string@DU?$char_traits@D@std@@V?$allocator@D@2@@std@@V?$basic_ptree@V?$basic_string@DU?$char_traits@D@std@@V?$allocator@D@2@@std@@V12@U?$less@V?$basic_string@DU?$char_traits@D@std@@V?$allocator@D@2@@std@@@2@@property_tree@boost@@@std@@V?$allocator@U?$pair@$$CBV?$basic_string@DU?$char_traits@D@std@@V?$allocator@D@2@@std@@V?$basic_ptree@V?$basic_string@DU?$char_traits@D@std@@V?$allocator@D@2@@std@@V12@U?$less@V?$basic_string@DU?$char_traits@D@std@@V?$allocator@D@2@@std@@@2@@property_tree@boost@@@std@@@2@@234@@234@XZ 1001a120 f i JsonWriter.obj
 0001:00019160       ??0?$ordered_index_impl@U?$member@U?$pair@$$CBV?$basic_string@DU?$char_traits@D@std@@V?$allocator@D@2@@std@@V?$basic_ptree@V?$basic_string@DU?$char_traits@D@std@@V?$allocator@D@2@@std@@V12@U?$less@V?$basic_string@DU?$char_traits@D@std@@V?$allocator@D@2@@std@@@2@@property_tree@boost@@@std@@$$CBV?$basic_string@DU?$char_traits@D@std@@V?$allocator@D@2@@2@$0A@@multi_index@boost@@U?$less@V?$basic_string@DU?$char_traits@D@std@@V?$allocator@D@2@@std@@@std@@U?$nth_layer@$01U?$pair@$$CBV?$basic_string@DU?$char_traits@D@std@@V?$allocator@D@2@@std@@V?$basic_ptree@V?$basic_string@DU?$char_traits@D@std@@V?$allocator@D@2@@std@@V12@U?$less@V?$basic_string@DU?$char_traits@D@std@@V?$allocator@D@2@@std@@@2@@property_tree@boost@@@std@@U?$indexed_by@U?$sequenced@U?$tag@Una@mpl@boost@@U123@U123@U123@U123@U123@U123@U123@U123@U123@U123@U123@U123@U123@U123@U123@U123@U123@U123@U123@@multi_index@boost@@@multi_index@boost@@U?$ordered_non_unique@U?$tag@Uby_name@subs@?$basic_ptree@V?$basic_string@DU?$char_traits@D@std@@V?$allocator@D@2@@std@@V12@U?$less@V?$basic_string@DU?$char_traits@D@std@@V?$allocator@D@2@@std@@@2@@property_tree@boost@@Una@mpl@5@U675@U675@U675@U675@U675@U675@U675@U675@U675@U675@U675@U675@U675@U675@U675@U675@U675@U675@@multi_index@boost@@U?$member@U?$pair@$$CBV?$basic_string@DU?$char_traits@D@std@@V?$allocator@D@2@@std@@V?$basic_ptree@V?$basic_string@DU?$char_traits@D@std@@V?$allocator@D@2@@std@@V12@U?$less@V?$basic_string@DU?$char_traits@D@std@@V?$allocator@D@2@@std@@@2@@property_tree@boost@@@std@@$$CBV?$basic_string@DU?$char_traits@D@std@@V?$allocator@D@2@@2@$0A@@23@U?$less@V?$basic_string@DU?$char_traits@D@std@@V?$allocator@D@2@@std@@@std@@@23@Una@mpl@3@U563@U563@U563@U563@U563@U563@U563@U563@U563@U563@U563@U563@U563@U563@U563@U563@U563@@multi_index@boost@@V?$allocator@U?$pair@$$CBV?$basic_string@DU?$char_traits@D@std@@V?$allocator@D@2@@std@@V?$basic_ptree@V?$basic_string@DU?$char_traits@D@std@@V?$allocator@D@2@@std@@V12@U?$less@V?$basic_string@DU?$char_traits@D@std@@V?$allocator@D@2@@std@@@2@@property_tree@boost@@@std@@@2@@detail@23@U?$vector1@Uby_name@subs@?$basic_ptree@V?$basic_string@DU?$char_traits@D@std@@V?$allocator@D@2@@std@@V12@U?$less@V?$basic_string@DU?$char_traits@D@std@@V?$allocator@D@2@@std@@@2@@property_tree@boost@@@mpl@3@Uordered_non_unique_tag@723@Unull_augment_policy@723@@detail@multi_index@boost@@IAE@ABU?$cons@V?$tuple@U?$member@U?$pair@$$CBV?$basic_string@DU?$char_traits@D@std@@V?$allocator@D@2@@std@@V?$basic_ptree@V?$basic_string@DU?$char_traits@D@std@@V?$allocator@D@2@@std@@V12@U?$less@V?$basic_string@DU?$char_traits@D@std@@V?$allocator@D@2@@std@@@2@@property_tree@boost@@@std@@$$CBV?$basic_string@DU?$char_traits@D@std@@V?$allocator@D@2@@2@$0A@@multi_index@boost@@U?$less@V?$basic_string@DU?$char_traits@D@std@@V?$allocator@D@2@@std@@@std@@Unull_type@tuples@3@U673@U673@U673@U673@U673@U673@U673@@tuples@boost@@Unull_type@23@@tuples@3@ABV?$allocator@U?$pair@$$CBV?$basic_string@DU?$char_traits@D@std@@V?$allocator@D@2@@std@@V?$basic_ptree@V?$basic_string@DU?$char_traits@D@std@@V?$allocator@D@2@@std@@V12@U?$less@V?$basic_string@DU?$char_traits@D@std@@V?$allocator@D@2@@std@@@2@@property_tree@boost@@@std@@@std@@@Z 1001a160 f i JsonWriter.obj
 0001:000191c0       ?final_delete_node_@?$index_base@U?$pair@$$CBV?$basic_string@DU?$char_traits@D@std@@V?$allocator@D@2@@std@@V?$basic_ptree@V?$basic_string@DU?$char_traits@D@std@@V?$allocator@D@2@@std@@V12@U?$less@V?$basic_string@DU?$char_traits@D@std@@V?$allocator@D@2@@std@@@2@@property_tree@boost@@@std@@U?$indexed_by@U?$sequenced@U?$tag@Una@mpl@boost@@U123@U123@U123@U123@U123@U123@U123@U123@U123@U123@U123@U123@U123@U123@U123@U123@U123@U123@U123@@multi_index@boost@@@multi_index@boost@@U?$ordered_non_unique@U?$tag@Uby_name@subs@?$basic_ptree@V?$basic_string@DU?$char_traits@D@std@@V?$allocator@D@2@@std@@V12@U?$less@V?$basic_string@DU?$char_traits@D@std@@V?$allocator@D@2@@std@@@2@@property_tree@boost@@Una@mpl@5@U675@U675@U675@U675@U675@U675@U675@U675@U675@U675@U675@U675@U675@U675@U675@U675@U675@U675@@multi_index@boost@@U?$member@U?$pair@$$CBV?$basic_string@DU?$char_traits@D@std@@V?$allocator@D@2@@std@@V?$basic_ptree@V?$basic_string@DU?$char_traits@D@std@@V?$allocator@D@2@@std@@V12@U?$less@V?$basic_string@DU?$char_traits@D@std@@V?$allocator@D@2@@std@@@2@@property_tree@boost@@@std@@$$CBV?$basic_string@DU?$char_traits@D@std@@V?$allocator@D@2@@2@$0A@@23@U?$less@V?$basic_string@DU?$char_traits@D@std@@V?$allocator@D@2@@std@@@std@@@23@Una@mpl@3@U563@U563@U563@U563@U563@U563@U563@U563@U563@U563@U563@U563@U563@U563@U563@U563@U563@@multi_index@boost@@V?$allocator@U?$pair@$$CBV?$basic_string@DU?$char_traits@D@std@@V?$allocator@D@2@@std@@V?$basic_ptree@V?$basic_string@DU?$char_traits@D@std@@V?$allocator@D@2@@std@@V12@U?$less@V?$basic_string@DU?$char_traits@D@std@@V?$allocator@D@2@@std@@@2@@property_tree@boost@@@std@@@2@@detail@multi_index@boost@@IAEXPAU?$sequenced_index_node@U?$ordered_index_node@Unull_augment_policy@detail@multi_index@boost@@U?$index_node_base@U?$pair@$$CBV?$basic_string@DU?$char_traits@D@std@@V?$allocator@D@2@@std@@V?$basic_ptree@V?$basic_string@DU?$char_traits@D@std@@V?$allocator@D@2@@std@@V12@U?$less@V?$basic_string@DU?$char_traits@D@std@@V?$allocator@D@2@@std@@@2@@property_tree@boost@@@std@@V?$allocator@U?$pair@$$CBV?$basic_string@DU?$char_traits@D@std@@V?$allocator@D@2@@std@@V?$basic_ptree@V?$basic_string@DU?$char_traits@D@std@@V?$allocator@D@2@@std@@V12@U?$less@V?$basic_string@DU?$char_traits@D@std@@V?$allocator@D@2@@std@@@2@@property_tree@boost@@@std@@@2@@234@@detail@multi_index@boost@@@234@@Z 1001a1c0 f i JsonWriter.obj
 0001:000191f0       ?final_header@?$index_base@U?$pair@$$CBV?$basic_string@DU?$char_traits@D@std@@V?$allocator@D@2@@std@@V?$basic_ptree@V?$basic_string@DU?$char_traits@D@std@@V?$allocator@D@2@@std@@V12@U?$less@V?$basic_string@DU?$char_traits@D@std@@V?$allocator@D@2@@std@@@2@@property_tree@boost@@@std@@U?$indexed_by@U?$sequenced@U?$tag@Una@mpl@boost@@U123@U123@U123@U123@U123@U123@U123@U123@U123@U123@U123@U123@U123@U123@U123@U123@U123@U123@U123@@multi_index@boost@@@multi_index@boost@@U?$ordered_non_unique@U?$tag@Uby_name@subs@?$basic_ptree@V?$basic_string@DU?$char_traits@D@std@@V?$allocator@D@2@@std@@V12@U?$less@V?$basic_string@DU?$char_traits@D@std@@V?$allocator@D@2@@std@@@2@@property_tree@boost@@Una@mpl@5@U675@U675@U675@U675@U675@U675@U675@U675@U675@U675@U675@U675@U675@U675@U675@U675@U675@U675@@multi_index@boost@@U?$member@U?$pair@$$CBV?$basic_string@DU?$char_traits@D@std@@V?$allocator@D@2@@std@@V?$basic_ptree@V?$basic_string@DU?$char_traits@D@std@@V?$allocator@D@2@@std@@V12@U?$less@V?$basic_string@DU?$char_traits@D@std@@V?$allocator@D@2@@std@@@2@@property_tree@boost@@@std@@$$CBV?$basic_string@DU?$char_traits@D@std@@V?$allocator@D@2@@2@$0A@@23@U?$less@V?$basic_string@DU?$char_traits@D@std@@V?$allocator@D@2@@std@@@std@@@23@Una@mpl@3@U563@U563@U563@U563@U563@U563@U563@U563@U563@U563@U563@U563@U563@U563@U563@U563@U563@@multi_index@boost@@V?$allocator@U?$pair@$$CBV?$basic_string@DU?$char_traits@D@std@@V?$allocator@D@2@@std@@V?$basic_ptree@V?$basic_string@DU?$char_traits@D@std@@V?$allocator@D@2@@std@@V12@U?$less@V?$basic_string@DU?$char_traits@D@std@@V?$allocator@D@2@@std@@@2@@property_tree@boost@@@std@@@2@@detail@multi_index@boost@@IBEPAU?$sequenced_index_node@U?$ordered_index_node@Unull_augment_policy@detail@multi_index@boost@@U?$index_node_base@U?$pair@$$CBV?$basic_string@DU?$char_traits@D@std@@V?$allocator@D@2@@std@@V?$basic_ptree@V?$basic_string@DU?$char_traits@D@std@@V?$allocator@D@2@@std@@V12@U?$less@V?$basic_string@DU?$char_traits@D@std@@V?$allocator@D@2@@std@@@2@@property_tree@boost@@@std@@V?$allocator@U?$pair@$$CBV?$basic_string@DU?$char_traits@D@std@@V?$allocator@D@2@@std@@V?$basic_ptree@V?$basic_string@DU?$char_traits@D@std@@V?$allocator@D@2@@std@@V12@U?$less@V?$basic_string@DU?$char_traits@D@std@@V?$allocator@D@2@@std@@@2@@property_tree@boost@@@std@@@2@@234@@detail@multi_index@boost@@@234@XZ 1001a1f0 f i JsonWriter.obj
 0001:00019210       ?final@?$index_base@U?$pair@$$CBV?$basic_string@DU?$char_traits@D@std@@V?$allocator@D@2@@std@@V?$basic_ptree@V?$basic_string@DU?$char_traits@D@std@@V?$allocator@D@2@@std@@V12@U?$less@V?$basic_string@DU?$char_traits@D@std@@V?$allocator@D@2@@std@@@2@@property_tree@boost@@@std@@U?$indexed_by@U?$sequenced@U?$tag@Una@mpl@boost@@U123@U123@U123@U123@U123@U123@U123@U123@U123@U123@U123@U123@U123@U123@U123@U123@U123@U123@U123@@multi_index@boost@@@multi_index@boost@@U?$ordered_non_unique@U?$tag@Uby_name@subs@?$basic_ptree@V?$basic_string@DU?$char_traits@D@std@@V?$allocator@D@2@@std@@V12@U?$less@V?$basic_string@DU?$char_traits@D@std@@V?$allocator@D@2@@std@@@2@@property_tree@boost@@Una@mpl@5@U675@U675@U675@U675@U675@U675@U675@U675@U675@U675@U675@U675@U675@U675@U675@U675@U675@U675@@multi_index@boost@@U?$member@U?$pair@$$CBV?$basic_string@DU?$char_traits@D@std@@V?$allocator@D@2@@std@@V?$basic_ptree@V?$basic_string@DU?$char_traits@D@std@@V?$allocator@D@2@@std@@V12@U?$less@V?$basic_string@DU?$char_traits@D@std@@V?$allocator@D@2@@std@@@2@@property_tree@boost@@@std@@$$CBV?$basic_string@DU?$char_traits@D@std@@V?$allocator@D@2@@2@$0A@@23@U?$less@V?$basic_string@DU?$char_traits@D@std@@V?$allocator@D@2@@std@@@std@@@23@Una@mpl@3@U563@U563@U563@U563@U563@U563@U563@U563@U563@U563@U563@U563@U563@U563@U563@U563@U563@@multi_index@boost@@V?$allocator@U?$pair@$$CBV?$basic_string@DU?$char_traits@D@std@@V?$allocator@D@2@@std@@V?$basic_ptree@V?$basic_string@DU?$char_traits@D@std@@V?$allocator@D@2@@std@@V12@U?$less@V?$basic_string@DU?$char_traits@D@std@@V?$allocator@D@2@@std@@@2@@property_tree@boost@@@std@@@2@@detail@multi_index@boost@@IBEABV?$multi_index_container@U?$pair@$$CBV?$basic_string@DU?$char_traits@D@std@@V?$allocator@D@2@@std@@V?$basic_ptree@V?$basic_string@DU?$char_traits@D@std@@V?$allocator@D@2@@std@@V12@U?$less@V?$basic_string@DU?$char_traits@D@std@@V?$allocator@D@2@@std@@@2@@property_tree@boost@@@std@@U?$indexed_by@U?$sequenced@U?$tag@Una@mpl@boost@@U123@U123@U123@U123@U123@U123@U123@U123@U123@U123@U123@U123@U123@U123@U123@U123@U123@U123@U123@@multi_index@boost@@@multi_index@boost@@U?$ordered_non_unique@U?$tag@Uby_name@subs@?$basic_ptree@V?$basic_string@DU?$char_traits@D@std@@V?$allocator@D@2@@std@@V12@U?$less@V?$basic_string@DU?$char_traits@D@std@@V?$allocator@D@2@@std@@@2@@property_tree@boost@@Una@mpl@5@U675@U675@U675@U675@U675@U675@U675@U675@U675@U675@U675@U675@U675@U675@U675@U675@U675@U675@@multi_index@boost@@U?$member@U?$pair@$$CBV?$basic_string@DU?$char_traits@D@std@@V?$allocator@D@2@@std@@V?$basic_ptree@V?$basic_string@DU?$char_traits@D@std@@V?$allocator@D@2@@std@@V12@U?$less@V?$basic_string@DU?$char_traits@D@std@@V?$allocator@D@2@@std@@@2@@property_tree@boost@@@std@@$$CBV?$basic_string@DU?$char_traits@D@std@@V?$allocator@D@2@@2@$0A@@23@U?$less@V?$basic_string@DU?$char_traits@D@std@@V?$allocator@D@2@@std@@@std@@@23@Una@mpl@3@U563@U563@U563@U563@U563@U563@U563@U563@U563@U563@U563@U563@U563@U563@U563@U563@U563@@multi_index@boost@@V?$allocator@U?$pair@$$CBV?$basic_string@DU?$char_traits@D@std@@V?$allocator@D@2@@std@@V?$basic_ptree@V?$basic_string@DU?$char_traits@D@std@@V?$allocator@D@2@@std@@V12@U?$less@V?$basic_string@DU?$char_traits@D@std@@V?$allocator@D@2@@std@@@2@@property_tree@boost@@@std@@@2@@34@XZ 1001a210 f i JsonWriter.obj
 0001:00019210       ?final@?$index_base@U?$pair@$$CBV?$basic_string@DU?$char_traits@D@std@@V?$allocator@D@2@@std@@V?$basic_ptree@V?$basic_string@DU?$char_traits@D@std@@V?$allocator@D@2@@std@@V12@U?$less@V?$basic_string@DU?$char_traits@D@std@@V?$allocator@D@2@@std@@@2@@property_tree@boost@@@std@@U?$indexed_by@U?$sequenced@U?$tag@Una@mpl@boost@@U123@U123@U123@U123@U123@U123@U123@U123@U123@U123@U123@U123@U123@U123@U123@U123@U123@U123@U123@@multi_index@boost@@@multi_index@boost@@U?$ordered_non_unique@U?$tag@Uby_name@subs@?$basic_ptree@V?$basic_string@DU?$char_traits@D@std@@V?$allocator@D@2@@std@@V12@U?$less@V?$basic_string@DU?$char_traits@D@std@@V?$allocator@D@2@@std@@@2@@property_tree@boost@@Una@mpl@5@U675@U675@U675@U675@U675@U675@U675@U675@U675@U675@U675@U675@U675@U675@U675@U675@U675@U675@@multi_index@boost@@U?$member@U?$pair@$$CBV?$basic_string@DU?$char_traits@D@std@@V?$allocator@D@2@@std@@V?$basic_ptree@V?$basic_string@DU?$char_traits@D@std@@V?$allocator@D@2@@std@@V12@U?$less@V?$basic_string@DU?$char_traits@D@std@@V?$allocator@D@2@@std@@@2@@property_tree@boost@@@std@@$$CBV?$basic_string@DU?$char_traits@D@std@@V?$allocator@D@2@@2@$0A@@23@U?$less@V?$basic_string@DU?$char_traits@D@std@@V?$allocator@D@2@@std@@@std@@@23@Una@mpl@3@U563@U563@U563@U563@U563@U563@U563@U563@U563@U563@U563@U563@U563@U563@U563@U563@U563@@multi_index@boost@@V?$allocator@U?$pair@$$CBV?$basic_string@DU?$char_traits@D@std@@V?$allocator@D@2@@std@@V?$basic_ptree@V?$basic_string@DU?$char_traits@D@std@@V?$allocator@D@2@@std@@V12@U?$less@V?$basic_string@DU?$char_traits@D@std@@V?$allocator@D@2@@std@@@2@@property_tree@boost@@@std@@@2@@detail@multi_index@boost@@IAEAAV?$multi_index_container@U?$pair@$$CBV?$basic_string@DU?$char_traits@D@std@@V?$allocator@D@2@@std@@V?$basic_ptree@V?$basic_string@DU?$char_traits@D@std@@V?$allocator@D@2@@std@@V12@U?$less@V?$basic_string@DU?$char_traits@D@std@@V?$allocator@D@2@@std@@@2@@property_tree@boost@@@std@@U?$indexed_by@U?$sequenced@U?$tag@Una@mpl@boost@@U123@U123@U123@U123@U123@U123@U123@U123@U123@U123@U123@U123@U123@U123@U123@U123@U123@U123@U123@@multi_index@boost@@@multi_index@boost@@U?$ordered_non_unique@U?$tag@Uby_name@subs@?$basic_ptree@V?$basic_string@DU?$char_traits@D@std@@V?$allocator@D@2@@std@@V12@U?$less@V?$basic_string@DU?$char_traits@D@std@@V?$allocator@D@2@@std@@@2@@property_tree@boost@@Una@mpl@5@U675@U675@U675@U675@U675@U675@U675@U675@U675@U675@U675@U675@U675@U675@U675@U675@U675@U675@@multi_index@boost@@U?$member@U?$pair@$$CBV?$basic_string@DU?$char_traits@D@std@@V?$allocator@D@2@@std@@V?$basic_ptree@V?$basic_string@DU?$char_traits@D@std@@V?$allocator@D@2@@std@@V12@U?$less@V?$basic_string@DU?$char_traits@D@std@@V?$allocator@D@2@@std@@@2@@property_tree@boost@@@std@@$$CBV?$basic_string@DU?$char_traits@D@std@@V?$allocator@D@2@@2@$0A@@23@U?$less@V?$basic_string@DU?$char_traits@D@std@@V?$allocator@D@2@@std@@@std@@@23@Una@mpl@3@U563@U563@U563@U563@U563@U563@U563@U563@U563@U563@U563@U563@U563@U563@U563@U563@U563@@multi_index@boost@@V?$allocator@U?$pair@$$CBV?$basic_string@DU?$char_traits@D@std@@V?$allocator@D@2@@std@@V?$basic_ptree@V?$basic_string@DU?$char_traits@D@std@@V?$allocator@D@2@@std@@V12@U?$less@V?$basic_string@DU?$char_traits@D@std@@V?$allocator@D@2@@std@@@2@@property_tree@boost@@@std@@@2@@34@XZ 1001a210 f i JsonWriter.obj
 0001:00019240       ?deallocate@?$_Default_allocator_traits@V?$allocator@U?$sequenced_index_node@U?$ordered_index_node@Unull_augment_policy@detail@multi_index@boost@@U?$index_node_base@U?$pair@$$CBV?$basic_string@DU?$char_traits@D@std@@V?$allocator@D@2@@std@@V?$basic_ptree@V?$basic_string@DU?$char_traits@D@std@@V?$allocator@D@2@@std@@V12@U?$less@V?$basic_string@DU?$char_traits@D@std@@V?$allocator@D@2@@std@@@2@@property_tree@boost@@@std@@V?$allocator@U?$pair@$$CBV?$basic_string@DU?$char_traits@D@std@@V?$allocator@D@2@@std@@V?$basic_ptree@V?$basic_string@DU?$char_traits@D@std@@V?$allocator@D@2@@std@@V12@U?$less@V?$basic_string@DU?$char_traits@D@std@@V?$allocator@D@2@@std@@@2@@property_tree@boost@@@std@@@2@@234@@detail@multi_index@boost@@@detail@multi_index@boost@@@std@@@std@@SAXAAV?$allocator@U?$sequenced_index_node@U?$ordered_index_node@Unull_augment_policy@detail@multi_index@boost@@U?$index_node_base@U?$pair@$$CBV?$basic_string@DU?$char_traits@D@std@@V?$allocator@D@2@@std@@V?$basic_ptree@V?$basic_string@DU?$char_traits@D@std@@V?$allocator@D@2@@std@@V12@U?$less@V?$basic_string@DU?$char_traits@D@std@@V?$allocator@D@2@@std@@@2@@property_tree@boost@@@std@@V?$allocator@U?$pair@$$CBV?$basic_string@DU?$char_traits@D@std@@V?$allocator@D@2@@std@@V?$basic_ptree@V?$basic_string@DU?$char_traits@D@std@@V?$allocator@D@2@@std@@V12@U?$less@V?$basic_string@DU?$char_traits@D@std@@V?$allocator@D@2@@std@@@2@@property_tree@boost@@@std@@@2@@234@@detail@multi_index@boost@@@detail@multi_index@boost@@@2@QAU?$sequenced_index_node@U?$ordered_index_node@Unull_augment_policy@detail@multi_index@boost@@U?$index_node_base@U?$pair@$$CBV?$basic_string@DU?$char_traits@D@std@@V?$allocator@D@2@@std@@V?$basic_ptree@V?$basic_string@DU?$char_traits@D@std@@V?$allocator@D@2@@std@@V12@U?$less@V?$basic_string@DU?$char_traits@D@std@@V?$allocator@D@2@@std@@@2@@property_tree@boost@@@std@@V?$allocator@U?$pair@$$CBV?$basic_string@DU?$char_traits@D@std@@V?$allocator@D@2@@std@@V?$basic_ptree@V?$basic_string@DU?$char_traits@D@std@@V?$allocator@D@2@@std@@V12@U?$less@V?$basic_string@DU?$char_traits@D@std@@V?$allocator@D@2@@std@@@2@@property_tree@boost@@@std@@@2@@234@@detail@multi_index@boost@@@detail@multi_index@boost@@I@Z 1001a240 f i JsonWriter.obj
 0001:00019260       ?allocate@?$_Default_allocator_traits@V?$allocator@U?$sequenced_index_node@U?$ordered_index_node@Unull_augment_policy@detail@multi_index@boost@@U?$index_node_base@U?$pair@$$CBV?$basic_string@DU?$char_traits@D@std@@V?$allocator@D@2@@std@@V?$basic_ptree@V?$basic_string@DU?$char_traits@D@std@@V?$allocator@D@2@@std@@V12@U?$less@V?$basic_string@DU?$char_traits@D@std@@V?$allocator@D@2@@std@@@2@@property_tree@boost@@@std@@V?$allocator@U?$pair@$$CBV?$basic_string@DU?$char_traits@D@std@@V?$allocator@D@2@@std@@V?$basic_ptree@V?$basic_string@DU?$char_traits@D@std@@V?$allocator@D@2@@std@@V12@U?$less@V?$basic_string@DU?$char_traits@D@std@@V?$allocator@D@2@@std@@@2@@property_tree@boost@@@std@@@2@@234@@detail@multi_index@boost@@@detail@multi_index@boost@@@std@@@std@@SAPAU?$sequenced_index_node@U?$ordered_index_node@Unull_augment_policy@detail@multi_index@boost@@U?$index_node_base@U?$pair@$$CBV?$basic_string@DU?$char_traits@D@std@@V?$allocator@D@2@@std@@V?$basic_ptree@V?$basic_string@DU?$char_traits@D@std@@V?$allocator@D@2@@std@@V12@U?$less@V?$basic_string@DU?$char_traits@D@std@@V?$allocator@D@2@@std@@@2@@property_tree@boost@@@std@@V?$allocator@U?$pair@$$CBV?$basic_string@DU?$char_traits@D@std@@V?$allocator@D@2@@std@@V?$basic_ptree@V?$basic_string@DU?$char_traits@D@std@@V?$allocator@D@2@@std@@V12@U?$less@V?$basic_string@DU?$char_traits@D@std@@V?$allocator@D@2@@std@@@2@@property_tree@boost@@@std@@@2@@234@@detail@multi_index@boost@@@detail@multi_index@boost@@AAV?$allocator@U?$sequenced_index_node@U?$ordered_index_node@Unull_augment_policy@detail@multi_index@boost@@U?$index_node_base@U?$pair@$$CBV?$basic_string@DU?$char_traits@D@std@@V?$allocator@D@2@@std@@V?$basic_ptree@V?$basic_string@DU?$char_traits@D@std@@V?$allocator@D@2@@std@@V12@U?$less@V?$basic_string@DU?$char_traits@D@std@@V?$allocator@D@2@@std@@@2@@property_tree@boost@@@std@@V?$allocator@U?$pair@$$CBV?$basic_string@DU?$char_traits@D@std@@V?$allocator@D@2@@std@@V?$basic_ptree@V?$basic_string@DU?$char_traits@D@std@@V?$allocator@D@2@@std@@V12@U?$less@V?$basic_string@DU?$char_traits@D@std@@V?$allocator@D@2@@std@@@2@@property_tree@boost@@@std@@@2@@234@@detail@multi_index@boost@@@detail@multi_index@boost@@@2@I@Z 1001a260 f i JsonWriter.obj
 0001:00019280       ?from_impl@?$ordered_index_node@Unull_augment_policy@detail@multi_index@boost@@U?$index_node_base@U?$pair@$$CBV?$basic_string@DU?$char_traits@D@std@@V?$allocator@D@2@@std@@V?$basic_ptree@V?$basic_string@DU?$char_traits@D@std@@V?$allocator@D@2@@std@@V12@U?$less@V?$basic_string@DU?$char_traits@D@std@@V?$allocator@D@2@@std@@@2@@property_tree@boost@@@std@@V?$allocator@U?$pair@$$CBV?$basic_string@DU?$char_traits@D@std@@V?$allocator@D@2@@std@@V?$basic_ptree@V?$basic_string@DU?$char_traits@D@std@@V?$allocator@D@2@@std@@V12@U?$less@V?$basic_string@DU?$char_traits@D@std@@V?$allocator@D@2@@std@@@2@@property_tree@boost@@@std@@@2@@234@@detail@multi_index@boost@@SAPAU1234@PAU?$ordered_index_node_impl@Unull_augment_policy@detail@multi_index@boost@@V?$allocator@D@std@@@234@@Z 1001a280 f i JsonWriter.obj
 0001:000192c0       ?impl@?$ordered_index_node@Unull_augment_policy@detail@multi_index@boost@@U?$index_node_base@U?$pair@$$CBV?$basic_string@DU?$char_traits@D@std@@V?$allocator@D@2@@std@@V?$basic_ptree@V?$basic_string@DU?$char_traits@D@std@@V?$allocator@D@2@@std@@V12@U?$less@V?$basic_string@DU?$char_traits@D@std@@V?$allocator@D@2@@std@@@2@@property_tree@boost@@@std@@V?$allocator@U?$pair@$$CBV?$basic_string@DU?$char_traits@D@std@@V?$allocator@D@2@@std@@V?$basic_ptree@V?$basic_string@DU?$char_traits@D@std@@V?$allocator@D@2@@std@@V12@U?$less@V?$basic_string@DU?$char_traits@D@std@@V?$allocator@D@2@@std@@@2@@property_tree@boost@@@std@@@2@@234@@detail@multi_index@boost@@QAEPAU?$ordered_index_node_impl@Unull_augment_policy@detail@multi_index@boost@@V?$allocator@D@std@@@234@XZ 1001a2c0 f i JsonWriter.obj
 0001:000192f0       ?right@?$ordered_index_node@Unull_augment_policy@detail@multi_index@boost@@U?$index_node_base@U?$pair@$$CBV?$basic_string@DU?$char_traits@D@std@@V?$allocator@D@2@@std@@V?$basic_ptree@V?$basic_string@DU?$char_traits@D@std@@V?$allocator@D@2@@std@@V12@U?$less@V?$basic_string@DU?$char_traits@D@std@@V?$allocator@D@2@@std@@@2@@property_tree@boost@@@std@@V?$allocator@U?$pair@$$CBV?$basic_string@DU?$char_traits@D@std@@V?$allocator@D@2@@std@@V?$basic_ptree@V?$basic_string@DU?$char_traits@D@std@@V?$allocator@D@2@@std@@V12@U?$less@V?$basic_string@DU?$char_traits@D@std@@V?$allocator@D@2@@std@@@2@@property_tree@boost@@@std@@@2@@234@@detail@multi_index@boost@@QAEAAPAU?$ordered_index_node_impl@Unull_augment_policy@detail@multi_index@boost@@V?$allocator@D@std@@@234@XZ 1001a2f0 f i JsonWriter.obj
 0001:00019310       ?left@?$ordered_index_node@Unull_augment_policy@detail@multi_index@boost@@U?$index_node_base@U?$pair@$$CBV?$basic_string@DU?$char_traits@D@std@@V?$allocator@D@2@@std@@V?$basic_ptree@V?$basic_string@DU?$char_traits@D@std@@V?$allocator@D@2@@std@@V12@U?$less@V?$basic_string@DU?$char_traits@D@std@@V?$allocator@D@2@@std@@@2@@property_tree@boost@@@std@@V?$allocator@U?$pair@$$CBV?$basic_string@DU?$char_traits@D@std@@V?$allocator@D@2@@std@@V?$basic_ptree@V?$basic_string@DU?$char_traits@D@std@@V?$allocator@D@2@@std@@V12@U?$less@V?$basic_string@DU?$char_traits@D@std@@V?$allocator@D@2@@std@@@2@@property_tree@boost@@@std@@@2@@234@@detail@multi_index@boost@@QAEAAPAU?$ordered_index_node_impl@Unull_augment_policy@detail@multi_index@boost@@V?$allocator@D@std@@@234@XZ 1001a310 f i JsonWriter.obj
 0001:00019330       ?parent@?$ordered_index_node@Unull_augment_policy@detail@multi_index@boost@@U?$index_node_base@U?$pair@$$CBV?$basic_string@DU?$char_traits@D@std@@V?$allocator@D@2@@std@@V?$basic_ptree@V?$basic_string@DU?$char_traits@D@std@@V?$allocator@D@2@@std@@V12@U?$less@V?$basic_string@DU?$char_traits@D@std@@V?$allocator@D@2@@std@@@2@@property_tree@boost@@@std@@V?$allocator@U?$pair@$$CBV?$basic_string@DU?$char_traits@D@std@@V?$allocator@D@2@@std@@V?$basic_ptree@V?$basic_string@DU?$char_traits@D@std@@V?$allocator@D@2@@std@@V12@U?$less@V?$basic_string@DU?$char_traits@D@std@@V?$allocator@D@2@@std@@@2@@property_tree@boost@@@std@@@2@@234@@detail@multi_index@boost@@QAE?AUparent_ref@?$ordered_index_node_compressed_base@Unull_augment_policy@detail@multi_index@boost@@V?$allocator@D@std@@@234@XZ 1001a330 f i JsonWriter.obj
 0001:00019330       ?color@?$ordered_index_node@Unull_augment_policy@detail@multi_index@boost@@U?$index_node_base@U?$pair@$$CBV?$basic_string@DU?$char_traits@D@std@@V?$allocator@D@2@@std@@V?$basic_ptree@V?$basic_string@DU?$char_traits@D@std@@V?$allocator@D@2@@std@@V12@U?$less@V?$basic_string@DU?$char_traits@D@std@@V?$allocator@D@2@@std@@@2@@property_tree@boost@@@std@@V?$allocator@U?$pair@$$CBV?$basic_string@DU?$char_traits@D@std@@V?$allocator@D@2@@std@@V?$basic_ptree@V?$basic_string@DU?$char_traits@D@std@@V?$allocator@D@2@@std@@V12@U?$less@V?$basic_string@DU?$char_traits@D@std@@V?$allocator@D@2@@std@@@2@@property_tree@boost@@@std@@@2@@234@@detail@multi_index@boost@@QAE?AUcolor_ref@?$ordered_index_node_compressed_base@Unull_augment_policy@detail@multi_index@boost@@V?$allocator@D@std@@@234@XZ 1001a330 f i JsonWriter.obj
 0001:00019350       ?insert_@?$multi_index_container@U?$pair@$$CBV?$basic_string@DU?$char_traits@D@std@@V?$allocator@D@2@@std@@V?$basic_ptree@V?$basic_string@DU?$char_traits@D@std@@V?$allocator@D@2@@std@@V12@U?$less@V?$basic_string@DU?$char_traits@D@std@@V?$allocator@D@2@@std@@@2@@property_tree@boost@@@std@@U?$indexed_by@U?$sequenced@U?$tag@Una@mpl@boost@@U123@U123@U123@U123@U123@U123@U123@U123@U123@U123@U123@U123@U123@U123@U123@U123@U123@U123@U123@@multi_index@boost@@@multi_index@boost@@U?$ordered_non_unique@U?$tag@Uby_name@subs@?$basic_ptree@V?$basic_string@DU?$char_traits@D@std@@V?$allocator@D@2@@std@@V12@U?$less@V?$basic_string@DU?$char_traits@D@std@@V?$allocator@D@2@@std@@@2@@property_tree@boost@@Una@mpl@5@U675@U675@U675@U675@U675@U675@U675@U675@U675@U675@U675@U675@U675@U675@U675@U675@U675@U675@@multi_index@boost@@U?$member@U?$pair@$$CBV?$basic_string@DU?$char_traits@D@std@@V?$allocator@D@2@@std@@V?$basic_ptree@V?$basic_string@DU?$char_traits@D@std@@V?$allocator@D@2@@std@@V12@U?$less@V?$basic_string@DU?$char_traits@D@std@@V?$allocator@D@2@@std@@@2@@property_tree@boost@@@std@@$$CBV?$basic_string@DU?$char_traits@D@std@@V?$allocator@D@2@@2@$0A@@23@U?$less@V?$basic_string@DU?$char_traits@D@std@@V?$allocator@D@2@@std@@@std@@@23@Una@mpl@3@U563@U563@U563@U563@U563@U563@U563@U563@U563@U563@U563@U563@U563@U563@U563@U563@U563@@multi_index@boost@@V?$allocator@U?$pair@$$CBV?$basic_string@DU?$char_traits@D@std@@V?$allocator@D@2@@std@@V?$basic_ptree@V?$basic_string@DU?$char_traits@D@std@@V?$allocator@D@2@@std@@V12@U?$less@V?$basic_string@DU?$char_traits@D@std@@V?$allocator@D@2@@std@@@2@@property_tree@boost@@@std@@@2@@multi_index@boost@@IAE?AU?$pair@PAU?$sequenced_index_node@U?$ordered_index_node@Unull_augment_policy@detail@multi_index@boost@@U?$index_node_base@U?$pair@$$CBV?$basic_string@DU?$char_traits@D@std@@V?$allocator@D@2@@std@@V?$basic_ptree@V?$basic_string@DU?$char_traits@D@std@@V?$allocator@D@2@@std@@V12@U?$less@V?$basic_string@DU?$char_traits@D@std@@V?$allocator@D@2@@std@@@2@@property_tree@boost@@@std@@V?$allocator@U?$pair@$$CBV?$basic_string@DU?$char_traits@D@std@@V?$allocator@D@2@@std@@V?$basic_ptree@V?$basic_string@DU?$char_traits@D@std@@V?$allocator@D@2@@std@@V12@U?$less@V?$basic_string@DU?$char_traits@D@std@@V?$allocator@D@2@@std@@@2@@property_tree@boost@@@std@@@2@@234@@detail@multi_index@boost@@@detail@multi_index@boost@@_N@std@@ABU?$pair@$$CBV?$basic_string@DU?$char_traits@D@std@@V?$allocator@D@2@@std@@V?$basic_ptree@V?$basic_string@DU?$char_traits@D@std@@V?$allocator@D@2@@std@@V12@U?$less@V?$basic_string@DU?$char_traits@D@std@@V?$allocator@D@2@@std@@@2@@property_tree@boost@@@5@@Z 1001a350 f i JsonWriter.obj
 0001:00019380       ?unlink@?$sequenced_index_node_impl@V?$allocator@D@std@@@detail@multi_index@boost@@SAXPAU1234@@Z 1001a380 f i JsonWriter.obj
 0001:000193d0       ??4color_ref@?$ordered_index_node_compressed_base@Unull_augment_policy@detail@multi_index@boost@@V?$allocator@D@std@@@detail@multi_index@boost@@QAEAAU01234@W4ordered_index_color@234@@Z 1001a3d0 f i JsonWriter.obj
 0001:00019410       ??Bcolor_ref@?$ordered_index_node_compressed_base@Unull_augment_policy@detail@multi_index@boost@@V?$allocator@D@std@@@detail@multi_index@boost@@QBE?AW4ordered_index_color@234@XZ 1001a410 f i JsonWriter.obj
 0001:00019430       ?color@?$ordered_index_node_compressed_base@Unull_augment_policy@detail@multi_index@boost@@V?$allocator@D@std@@@detail@multi_index@boost@@QAE?AUcolor_ref@1234@XZ 1001a430 f i JsonWriter.obj
 0001:00019430       ?parent@?$ordered_index_node_compressed_base@Unull_augment_policy@detail@multi_index@boost@@V?$allocator@D@std@@@detail@multi_index@boost@@QAE?AUparent_ref@1234@XZ 1001a430 f i JsonWriter.obj
 0001:00019450       ??0?$index_base@U?$pair@$$CBV?$basic_string@DU?$char_traits@D@std@@V?$allocator@D@2@@std@@V?$basic_ptree@V?$basic_string@DU?$char_traits@D@std@@V?$allocator@D@2@@std@@V12@U?$less@V?$basic_string@DU?$char_traits@D@std@@V?$allocator@D@2@@std@@@2@@property_tree@boost@@@std@@U?$indexed_by@U?$sequenced@U?$tag@Una@mpl@boost@@U123@U123@U123@U123@U123@U123@U123@U123@U123@U123@U123@U123@U123@U123@U123@U123@U123@U123@U123@@multi_index@boost@@@multi_index@boost@@U?$ordered_non_unique@U?$tag@Uby_name@subs@?$basic_ptree@V?$basic_string@DU?$char_traits@D@std@@V?$allocator@D@2@@std@@V12@U?$less@V?$basic_string@DU?$char_traits@D@std@@V?$allocator@D@2@@std@@@2@@property_tree@boost@@Una@mpl@5@U675@U675@U675@U675@U675@U675@U675@U675@U675@U675@U675@U675@U675@U675@U675@U675@U675@U675@@multi_index@boost@@U?$member@U?$pair@$$CBV?$basic_string@DU?$char_traits@D@std@@V?$allocator@D@2@@std@@V?$basic_ptree@V?$basic_string@DU?$char_traits@D@std@@V?$allocator@D@2@@std@@V12@U?$less@V?$basic_string@DU?$char_traits@D@std@@V?$allocator@D@2@@std@@@2@@property_tree@boost@@@std@@$$CBV?$basic_string@DU?$char_traits@D@std@@V?$allocator@D@2@@2@$0A@@23@U?$less@V?$basic_string@DU?$char_traits@D@std@@V?$allocator@D@2@@std@@@std@@@23@Una@mpl@3@U563@U563@U563@U563@U563@U563@U563@U563@U563@U563@U563@U563@U563@U563@U563@U563@U563@@multi_index@boost@@V?$allocator@U?$pair@$$CBV?$basic_string@DU?$char_traits@D@std@@V?$allocator@D@2@@std@@V?$basic_ptree@V?$basic_string@DU?$char_traits@D@std@@V?$allocator@D@2@@std@@V12@U?$less@V?$basic_string@DU?$char_traits@D@std@@V?$allocator@D@2@@std@@@2@@property_tree@boost@@@std@@@2@@detail@multi_index@boost@@IAE@ABUnull_type@tuples@3@ABV?$allocator@U?$pair@$$CBV?$basic_string@DU?$char_traits@D@std@@V?$allocator@D@2@@std@@V?$basic_ptree@V?$basic_string@DU?$char_traits@D@std@@V?$allocator@D@2@@std@@V12@U?$less@V?$basic_string@DU?$char_traits@D@std@@V?$allocator@D@2@@std@@@2@@property_tree@boost@@@std@@@std@@@Z 1001a450 f i JsonWriter.obj
 0001:00019460       ?delete_node_@?$multi_index_container@U?$pair@$$CBV?$basic_string@DU?$char_traits@D@std@@V?$allocator@D@2@@std@@V?$basic_ptree@V?$basic_string@DU?$char_traits@D@std@@V?$allocator@D@2@@std@@V12@U?$less@V?$basic_string@DU?$char_traits@D@std@@V?$allocator@D@2@@std@@@2@@property_tree@boost@@@std@@U?$indexed_by@U?$sequenced@U?$tag@Una@mpl@boost@@U123@U123@U123@U123@U123@U123@U123@U123@U123@U123@U123@U123@U123@U123@U123@U123@U123@U123@U123@@multi_index@boost@@@multi_index@boost@@U?$ordered_non_unique@U?$tag@Uby_name@subs@?$basic_ptree@V?$basic_string@DU?$char_traits@D@std@@V?$allocator@D@2@@std@@V12@U?$less@V?$basic_string@DU?$char_traits@D@std@@V?$allocator@D@2@@std@@@2@@property_tree@boost@@Una@mpl@5@U675@U675@U675@U675@U675@U675@U675@U675@U675@U675@U675@U675@U675@U675@U675@U675@U675@U675@@multi_index@boost@@U?$member@U?$pair@$$CBV?$basic_string@DU?$char_traits@D@std@@V?$allocator@D@2@@std@@V?$basic_ptree@V?$basic_string@DU?$char_traits@D@std@@V?$allocator@D@2@@std@@V12@U?$less@V?$basic_string@DU?$char_traits@D@std@@V?$allocator@D@2@@std@@@2@@property_tree@boost@@@std@@$$CBV?$basic_string@DU?$char_traits@D@std@@V?$allocator@D@2@@2@$0A@@23@U?$less@V?$basic_string@DU?$char_traits@D@std@@V?$allocator@D@2@@std@@@std@@@23@Una@mpl@3@U563@U563@U563@U563@U563@U563@U563@U563@U563@U563@U563@U563@U563@U563@U563@U563@U563@@multi_index@boost@@V?$allocator@U?$pair@$$CBV?$basic_string@DU?$char_traits@D@std@@V?$allocator@D@2@@std@@V?$basic_ptree@V?$basic_string@DU?$char_traits@D@std@@V?$allocator@D@2@@std@@V12@U?$less@V?$basic_string@DU?$char_traits@D@std@@V?$allocator@D@2@@std@@@2@@property_tree@boost@@@std@@@2@@multi_index@boost@@IAEXPAU?$sequenced_index_node@U?$ordered_index_node@Unull_augment_policy@detail@multi_index@boost@@U?$index_node_base@U?$pair@$$CBV?$basic_string@DU?$char_traits@D@std@@V?$allocator@D@2@@std@@V?$basic_ptree@V?$basic_string@DU?$char_traits@D@std@@V?$allocator@D@2@@std@@V12@U?$less@V?$basic_string@DU?$char_traits@D@std@@V?$allocator@D@2@@std@@@2@@property_tree@boost@@@std@@V?$allocator@U?$pair@$$CBV?$basic_string@DU?$char_traits@D@std@@V?$allocator@D@2@@std@@V?$basic_ptree@V?$basic_string@DU?$char_traits@D@std@@V?$allocator@D@2@@std@@V12@U?$less@V?$basic_string@DU?$char_traits@D@std@@V?$allocator@D@2@@std@@@2@@property_tree@boost@@@std@@@2@@234@@detail@multi_index@boost@@@detail@23@@Z 1001a460 f i JsonWriter.obj
 0001:00019490       ?delete_node_@?$index_base@U?$pair@$$CBV?$basic_string@DU?$char_traits@D@std@@V?$allocator@D@2@@std@@V?$basic_ptree@V?$basic_string@DU?$char_traits@D@std@@V?$allocator@D@2@@std@@V12@U?$less@V?$basic_string@DU?$char_traits@D@std@@V?$allocator@D@2@@std@@@2@@property_tree@boost@@@std@@U?$indexed_by@U?$sequenced@U?$tag@Una@mpl@boost@@U123@U123@U123@U123@U123@U123@U123@U123@U123@U123@U123@U123@U123@U123@U123@U123@U123@U123@U123@@multi_index@boost@@@multi_index@boost@@U?$ordered_non_unique@U?$tag@Uby_name@subs@?$basic_ptree@V?$basic_string@DU?$char_traits@D@std@@V?$allocator@D@2@@std@@V12@U?$less@V?$basic_string@DU?$char_traits@D@std@@V?$allocator@D@2@@std@@@2@@property_tree@boost@@Una@mpl@5@U675@U675@U675@U675@U675@U675@U675@U675@U675@U675@U675@U675@U675@U675@U675@U675@U675@U675@@multi_index@boost@@U?$member@U?$pair@$$CBV?$basic_string@DU?$char_traits@D@std@@V?$allocator@D@2@@std@@V?$basic_ptree@V?$basic_string@DU?$char_traits@D@std@@V?$allocator@D@2@@std@@V12@U?$less@V?$basic_string@DU?$char_traits@D@std@@V?$allocator@D@2@@std@@@2@@property_tree@boost@@@std@@$$CBV?$basic_string@DU?$char_traits@D@std@@V?$allocator@D@2@@2@$0A@@23@U?$less@V?$basic_string@DU?$char_traits@D@std@@V?$allocator@D@2@@std@@@std@@@23@Una@mpl@3@U563@U563@U563@U563@U563@U563@U563@U563@U563@U563@U563@U563@U563@U563@U563@U563@U563@@multi_index@boost@@V?$allocator@U?$pair@$$CBV?$basic_string@DU?$char_traits@D@std@@V?$allocator@D@2@@std@@V?$basic_ptree@V?$basic_string@DU?$char_traits@D@std@@V?$allocator@D@2@@std@@V12@U?$less@V?$basic_string@DU?$char_traits@D@std@@V?$allocator@D@2@@std@@@2@@property_tree@boost@@@std@@@2@@detail@multi_index@boost@@IAEXPAU?$index_node_base@U?$pair@$$CBV?$basic_string@DU?$char_traits@D@std@@V?$allocator@D@2@@std@@V?$basic_ptree@V?$basic_string@DU?$char_traits@D@std@@V?$allocator@D@2@@std@@V12@U?$less@V?$basic_string@DU?$char_traits@D@std@@V?$allocator@D@2@@std@@@2@@property_tree@boost@@@std@@V?$allocator@U?$pair@$$CBV?$basic_string@DU?$char_traits@D@std@@V?$allocator@D@2@@std@@V?$basic_ptree@V?$basic_string@DU?$char_traits@D@std@@V?$allocator@D@2@@std@@V12@U?$less@V?$basic_string@DU?$char_traits@D@std@@V?$allocator@D@2@@std@@@2@@property_tree@boost@@@std@@@2@@234@@Z 1001a490 f i JsonWriter.obj
 0001:000194c0       ??0?$string_path@V?$basic_string@DU?$char_traits@D@std@@V?$allocator@D@2@@std@@U?$id_translator@V?$basic_string@DU?$char_traits@D@std@@V?$allocator@D@2@@std@@@property_tree@boost@@@property_tree@boost@@QAE@ABV012@@Z 1001a4c0 f i JsonWriter.obj
 0001:00019570       ?reduce@?$string_path@V?$basic_string@DU?$char_traits@D@std@@V?$allocator@D@2@@std@@U?$id_translator@V?$basic_string@DU?$char_traits@D@std@@V?$allocator@D@2@@std@@@property_tree@boost@@@property_tree@boost@@QAE?AV?$basic_string@DU?$char_traits@D@std@@V?$allocator@D@2@@std@@XZ 1001a570 f i JsonWriter.obj
 0001:00019750       ?force_path@?$basic_ptree@V?$basic_string@DU?$char_traits@D@std@@V?$allocator@D@2@@std@@V12@U?$less@V?$basic_string@DU?$char_traits@D@std@@V?$allocator@D@2@@std@@@2@@property_tree@boost@@AAEAAV123@AAV?$string_path@V?$basic_string@DU?$char_traits@D@std@@V?$allocator@D@2@@std@@U?$id_translator@V?$basic_string@DU?$char_traits@D@std@@V?$allocator@D@2@@std@@@property_tree@boost@@@23@@Z 1001a750 f i JsonWriter.obj
 0001:00019920       ??$_Unchecked@V?$_String_val@U?$_Simple_types@D@std@@@std@@@std@@YAPADABV?$_String_iterator@V?$_String_val@U?$_Simple_types@D@std@@@std@@@0@@Z 1001a920 f i JsonWriter.obj
 0001:00019940       ??$?0AAV?$basic_string@DU?$char_traits@D@std@@V?$allocator@D@2@@std@@V?$basic_ptree@V?$basic_string@DU?$char_traits@D@std@@V?$allocator@D@2@@std@@V12@U?$less@V?$basic_string@DU?$char_traits@D@std@@V?$allocator@D@2@@std@@@2@@property_tree@boost@@$0A@@?$pair@$$CBV?$basic_string@DU?$char_traits@D@std@@V?$allocator@D@2@@std@@V?$basic_ptree@V?$basic_string@DU?$char_traits@D@std@@V?$allocator@D@2@@std@@V12@U?$less@V?$basic_string@DU?$char_traits@D@std@@V?$allocator@D@2@@std@@@2@@property_tree@boost@@@std@@QAE@AAV?$basic_string@DU?$char_traits@D@std@@V?$allocator@D@2@@1@$$QAV?$basic_ptree@V?$basic_string@DU?$char_traits@D@std@@V?$allocator@D@2@@std@@V12@U?$less@V?$basic_string@DU?$char_traits@D@std@@V?$allocator@D@2@@std@@@2@@property_tree@boost@@@Z 1001a940 f i JsonWriter.obj
 0001:00019940       ??$?0AAV?$basic_string@DU?$char_traits@D@std@@V?$allocator@D@2@@std@@ABV?$basic_ptree@V?$basic_string@DU?$char_traits@D@std@@V?$allocator@D@2@@std@@V12@U?$less@V?$basic_string@DU?$char_traits@D@std@@V?$allocator@D@2@@std@@@2@@property_tree@boost@@$0A@@?$pair@$$CBV?$basic_string@DU?$char_traits@D@std@@V?$allocator@D@2@@std@@V?$basic_ptree@V?$basic_string@DU?$char_traits@D@std@@V?$allocator@D@2@@std@@V12@U?$less@V?$basic_string@DU?$char_traits@D@std@@V?$allocator@D@2@@std@@@2@@property_tree@boost@@@std@@QAE@AAV?$basic_string@DU?$char_traits@D@std@@V?$allocator@D@2@@1@ABV?$basic_ptree@V?$basic_string@DU?$char_traits@D@std@@V?$allocator@D@2@@std@@V12@U?$less@V?$basic_string@DU?$char_traits@D@std@@V?$allocator@D@2@@std@@@2@@property_tree@boost@@@Z 1001a940 f i JsonWriter.obj
 0001:000199c0       ??$put@V?$Point_@H@cv@@V?$stream_translator@DU?$char_traits@D@std@@V?$allocator@D@2@V?$Point_@H@cv@@@property_tree@boost@@@?$basic_ptree@V?$basic_string@DU?$char_traits@D@std@@V?$allocator@D@2@@std@@V12@U?$less@V?$basic_string@DU?$char_traits@D@std@@V?$allocator@D@2@@std@@@2@@property_tree@boost@@QAEAAV012@ABV?$string_path@V?$basic_string@DU?$char_traits@D@std@@V?$allocator@D@2@@std@@U?$id_translator@V?$basic_string@DU?$char_traits@D@std@@V?$allocator@D@2@@std@@@property_tree@boost@@@12@ABV?$Point_@H@cv@@V?$stream_translator@DU?$char_traits@D@std@@V?$allocator@D@2@V?$Point_@H@cv@@@12@@Z 1001a9c0 f i JsonWriter.obj
 0001:00019b00       ??$?0AAY00$$CBDAAV?$basic_ptree@V?$basic_string@DU?$char_traits@D@std@@V?$allocator@D@2@@std@@V12@U?$less@V?$basic_string@DU?$char_traits@D@std@@V?$allocator@D@2@@std@@@2@@property_tree@boost@@$0A@@?$pair@PBDV?$basic_ptree@V?$basic_string@DU?$char_traits@D@std@@V?$allocator@D@2@@std@@V12@U?$less@V?$basic_string@DU?$char_traits@D@std@@V?$allocator@D@2@@std@@@2@@property_tree@boost@@@std@@QAE@AAY00$$CBDAAV?$basic_ptree@V?$basic_string@DU?$char_traits@D@std@@V?$allocator@D@2@@std@@V12@U?$less@V?$basic_string@DU?$char_traits@D@std@@V?$allocator@D@2@@std@@@2@@property_tree@boost@@@Z 1001ab00 f i JsonWriter.obj
 0001:00019b40       ??$put@V?$basic_string@DU?$char_traits@D@std@@V?$allocator@D@2@@std@@U?$id_translator@V?$basic_string@DU?$char_traits@D@std@@V?$allocator@D@2@@std@@@property_tree@boost@@@?$basic_ptree@V?$basic_string@DU?$char_traits@D@std@@V?$allocator@D@2@@std@@V12@U?$less@V?$basic_string@DU?$char_traits@D@std@@V?$allocator@D@2@@std@@@2@@property_tree@boost@@QAEAAV012@ABV?$string_path@V?$basic_string@DU?$char_traits@D@std@@V?$allocator@D@2@@std@@U?$id_translator@V?$basic_string@DU?$char_traits@D@std@@V?$allocator@D@2@@std@@@property_tree@boost@@@12@ABV?$basic_string@DU?$char_traits@D@std@@V?$allocator@D@2@@std@@U?$id_translator@V?$basic_string@DU?$char_traits@D@std@@V?$allocator@D@2@@std@@@12@@Z 1001ab40 f i JsonWriter.obj
 0001:00019c30       ??$throw_exception_@Vjson_parser_error@json_parser@property_tree@boost@@@exception_detail@boost@@YAXABVjson_parser_error@json_parser@property_tree@1@PBD1H@Z 1001ac30 f i JsonWriter.obj
 0001:00019ce0       ??$write_json_internal@V?$basic_ptree@V?$basic_string@DU?$char_traits@D@std@@V?$allocator@D@2@@std@@V12@U?$less@V?$basic_string@DU?$char_traits@D@std@@V?$allocator@D@2@@std@@@2@@property_tree@boost@@@json_parser@property_tree@boost@@YAXAAV?$basic_ostream@DU?$char_traits@D@std@@@std@@ABV?$basic_ptree@V?$basic_string@DU?$char_traits@D@std@@V?$allocator@D@2@@std@@V12@U?$less@V?$basic_string@DU?$char_traits@D@std@@V?$allocator@D@2@@std@@@2@@12@ABV?$basic_string@DU?$char_traits@D@std@@V?$allocator@D@2@@4@_N@Z 1001ace0 f i JsonWriter.obj
 0001:00019e50       ??$?0ABV?$allocator@U?$pair@$$CBV?$basic_string@DU?$char_traits@D@std@@V?$allocator@D@2@@std@@V?$basic_ptree@V?$basic_string@DU?$char_traits@D@std@@V?$allocator@D@2@@std@@V12@U?$less@V?$basic_string@DU?$char_traits@D@std@@V?$allocator@D@2@@std@@@2@@property_tree@boost@@@std@@@std@@X@?$base_from_member@V?$allocator@U?$sequenced_index_node@U?$ordered_index_node@Unull_augment_policy@detail@multi_index@boost@@U?$index_node_base@U?$pair@$$CBV?$basic_string@DU?$char_traits@D@std@@V?$allocator@D@2@@std@@V?$basic_ptree@V?$basic_string@DU?$char_traits@D@std@@V?$allocator@D@2@@std@@V12@U?$less@V?$basic_string@DU?$char_traits@D@std@@V?$allocator@D@2@@std@@@2@@property_tree@boost@@@std@@V?$allocator@U?$pair@$$CBV?$basic_string@DU?$char_traits@D@std@@V?$allocator@D@2@@std@@V?$basic_ptree@V?$basic_string@DU?$char_traits@D@std@@V?$allocator@D@2@@std@@V12@U?$less@V?$basic_string@DU?$char_traits@D@std@@V?$allocator@D@2@@std@@@2@@property_tree@boost@@@std@@@2@@234@@detail@multi_index@boost@@@detail@multi_index@boost@@@std@@$0A@@boost@@IAE@ABV?$allocator@U?$pair@$$CBV?$basic_string@DU?$char_traits@D@std@@V?$allocator@D@2@@std@@V?$basic_ptree@V?$basic_string@DU?$char_traits@D@std@@V?$allocator@D@2@@std@@V12@U?$less@V?$basic_string@DU?$char_traits@D@std@@V?$allocator@D@2@@std@@@2@@property_tree@boost@@@std@@@std@@@Z 1001ae50 f i JsonWriter.obj
 0001:00019e70       ??$use_facet@V?$codecvt@DDU_Mbstatet@@@std@@@std@@YAABV?$codecvt@DDU_Mbstatet@@@0@ABVlocale@0@@Z 1001ae70 f i JsonWriter.obj
 0001:00019fb0       ??$dereference@Viterator@?$basic_ptree@V?$basic_string@DU?$char_traits@D@std@@V?$allocator@D@2@@std@@V12@U?$less@V?$basic_string@DU?$char_traits@D@std@@V?$allocator@D@2@@std@@@2@@property_tree@boost@@@iterator_core_access@iterators@boost@@CAAAU?$pair@$$CBV?$basic_string@DU?$char_traits@D@std@@V?$allocator@D@2@@std@@V?$basic_ptree@V?$basic_string@DU?$char_traits@D@std@@V?$allocator@D@2@@std@@V12@U?$less@V?$basic_string@DU?$char_traits@D@std@@V?$allocator@D@2@@std@@@2@@property_tree@boost@@@std@@ABViterator@?$basic_ptree@V?$basic_string@DU?$char_traits@D@std@@V?$allocator@D@2@@std@@V12@U?$less@V?$basic_string@DU?$char_traits@D@std@@V?$allocator@D@2@@std@@@2@@property_tree@2@@Z 1001afb0 f i JsonWriter.obj
 0001:00019fb0       ??$dereference@Vassoc_iterator@?$basic_ptree@V?$basic_string@DU?$char_traits@D@std@@V?$allocator@D@2@@std@@V12@U?$less@V?$basic_string@DU?$char_traits@D@std@@V?$allocator@D@2@@std@@@2@@property_tree@boost@@@iterator_core_access@iterators@boost@@CAAAU?$pair@$$CBV?$basic_string@DU?$char_traits@D@std@@V?$allocator@D@2@@std@@V?$basic_ptree@V?$basic_string@DU?$char_traits@D@std@@V?$allocator@D@2@@std@@V12@U?$less@V?$basic_string@DU?$char_traits@D@std@@V?$allocator@D@2@@std@@@2@@property_tree@boost@@@std@@ABVassoc_iterator@?$basic_ptree@V?$basic_string@DU?$char_traits@D@std@@V?$allocator@D@2@@std@@V12@U?$less@V?$basic_string@DU?$char_traits@D@std@@V?$allocator@D@2@@std@@@2@@property_tree@2@@Z 1001afb0 f i JsonWriter.obj
 0001:00019fc0       ??$?8U?$sequenced_index_node@U?$ordered_index_node@Unull_augment_policy@detail@multi_index@boost@@U?$index_node_base@U?$pair@$$CBV?$basic_string@DU?$char_traits@D@std@@V?$allocator@D@2@@std@@V?$basic_ptree@V?$basic_string@DU?$char_traits@D@std@@V?$allocator@D@2@@std@@V12@U?$less@V?$basic_string@DU?$char_traits@D@std@@V?$allocator@D@2@@std@@@2@@property_tree@boost@@@std@@V?$allocator@U?$pair@$$CBV?$basic_string@DU?$char_traits@D@std@@V?$allocator@D@2@@std@@V?$basic_ptree@V?$basic_string@DU?$char_traits@D@std@@V?$allocator@D@2@@std@@V12@U?$less@V?$basic_string@DU?$char_traits@D@std@@V?$allocator@D@2@@std@@@2@@property_tree@boost@@@std@@@2@@234@@detail@multi_index@boost@@@detail@multi_index@boost@@@detail@multi_index@boost@@YA_NABV?$bidir_node_iterator@U?$sequenced_index_node@U?$ordered_index_node@Unull_augment_policy@detail@multi_index@boost@@U?$index_node_base@U?$pair@$$CBV?$basic_string@DU?$char_traits@D@std@@V?$allocator@D@2@@std@@V?$basic_ptree@V?$basic_string@DU?$char_traits@D@std@@V?$allocator@D@2@@std@@V12@U?$less@V?$basic_string@DU?$char_traits@D@std@@V?$allocator@D@2@@std@@@2@@property_tree@boost@@@std@@V?$allocator@U?$pair@$$CBV?$basic_string@DU?$char_traits@D@std@@V?$allocator@D@2@@std@@V?$basic_ptree@V?$basic_string@DU?$char_traits@D@std@@V?$allocator@D@2@@std@@V12@U?$less@V?$basic_string@DU?$char_traits@D@std@@V?$allocator@D@2@@std@@@2@@property_tree@boost@@@std@@@2@@234@@detail@multi_index@boost@@@detail@multi_index@boost@@@012@0@Z 1001afc0 f i JsonWriter.obj
 0001:00019fc0       ??$?8U?$ordered_index_node@Unull_augment_policy@detail@multi_index@boost@@U?$index_node_base@U?$pair@$$CBV?$basic_string@DU?$char_traits@D@std@@V?$allocator@D@2@@std@@V?$basic_ptree@V?$basic_string@DU?$char_traits@D@std@@V?$allocator@D@2@@std@@V12@U?$less@V?$basic_string@DU?$char_traits@D@std@@V?$allocator@D@2@@std@@@2@@property_tree@boost@@@std@@V?$allocator@U?$pair@$$CBV?$basic_string@DU?$char_traits@D@std@@V?$allocator@D@2@@std@@V?$basic_ptree@V?$basic_string@DU?$char_traits@D@std@@V?$allocator@D@2@@std@@V12@U?$less@V?$basic_string@DU?$char_traits@D@std@@V?$allocator@D@2@@std@@@2@@property_tree@boost@@@std@@@2@@234@@detail@multi_index@boost@@@detail@multi_index@boost@@YA_NABV?$bidir_node_iterator@U?$ordered_index_node@Unull_augment_policy@detail@multi_index@boost@@U?$index_node_base@U?$pair@$$CBV?$basic_string@DU?$char_traits@D@std@@V?$allocator@D@2@@std@@V?$basic_ptree@V?$basic_string@DU?$char_traits@D@std@@V?$allocator@D@2@@std@@V12@U?$less@V?$basic_string@DU?$char_traits@D@std@@V?$allocator@D@2@@std@@@2@@property_tree@boost@@@std@@V?$allocator@U?$pair@$$CBV?$basic_string@DU?$char_traits@D@std@@V?$allocator@D@2@@std@@V?$basic_ptree@V?$basic_string@DU?$char_traits@D@std@@V?$allocator@D@2@@std@@V12@U?$less@V?$basic_string@DU?$char_traits@D@std@@V?$allocator@D@2@@std@@@2@@property_tree@boost@@@std@@@2@@234@@detail@multi_index@boost@@@012@0@Z 1001afc0 f i JsonWriter.obj
 0001:0001a000       ??$raw_ptr@PAU?$sequenced_index_node@U?$ordered_index_node@Unull_augment_policy@detail@multi_index@boost@@U?$index_node_base@U?$pair@$$CBV?$basic_string@DU?$char_traits@D@std@@V?$allocator@D@2@@std@@V?$basic_ptree@V?$basic_string@DU?$char_traits@D@std@@V?$allocator@D@2@@std@@V12@U?$less@V?$basic_string@DU?$char_traits@D@std@@V?$allocator@D@2@@std@@@2@@property_tree@boost@@@std@@V?$allocator@U?$pair@$$CBV?$basic_string@DU?$char_traits@D@std@@V?$allocator@D@2@@std@@V?$basic_ptree@V?$basic_string@DU?$char_traits@D@std@@V?$allocator@D@2@@std@@V12@U?$less@V?$basic_string@DU?$char_traits@D@std@@V?$allocator@D@2@@std@@@2@@property_tree@boost@@@std@@@2@@234@@detail@multi_index@boost@@@detail@multi_index@boost@@PAU1234@@detail@multi_index@boost@@YAPAU?$sequenced_index_node@U?$ordered_index_node@Unull_augment_policy@detail@multi_index@boost@@U?$index_node_base@U?$pair@$$CBV?$basic_string@DU?$char_traits@D@std@@V?$allocator@D@2@@std@@V?$basic_ptree@V?$basic_string@DU?$char_traits@D@std@@V?$allocator@D@2@@std@@V12@U?$less@V?$basic_string@DU?$char_traits@D@std@@V?$allocator@D@2@@std@@@2@@property_tree@boost@@@std@@V?$allocator@U?$pair@$$CBV?$basic_string@DU?$char_traits@D@std@@V?$allocator@D@2@@std@@V?$basic_ptree@V?$basic_string@DU?$char_traits@D@std@@V?$allocator@D@2@@std@@V12@U?$less@V?$basic_string@DU?$char_traits@D@std@@V?$allocator@D@2@@std@@@2@@property_tree@boost@@@std@@@2@@234@@detail@multi_index@boost@@@012@ABQAU3012@@Z 1001b000 f i JsonWriter.obj
 0001:0001a000       ??$raw_ptr@PAU?$copy_map_entry@U?$sequenced_index_node@U?$ordered_index_node@Unull_augment_policy@detail@multi_index@boost@@U?$index_node_base@U?$pair@$$CBV?$basic_string@DU?$char_traits@D@std@@V?$allocator@D@2@@std@@V?$basic_ptree@V?$basic_string@DU?$char_traits@D@std@@V?$allocator@D@2@@std@@V12@U?$less@V?$basic_string@DU?$char_traits@D@std@@V?$allocator@D@2@@std@@@2@@property_tree@boost@@@std@@V?$allocator@U?$pair@$$CBV?$basic_string@DU?$char_traits@D@std@@V?$allocator@D@2@@std@@V?$basic_ptree@V?$basic_string@DU?$char_traits@D@std@@V?$allocator@D@2@@std@@V12@U?$less@V?$basic_string@DU?$char_traits@D@std@@V?$allocator@D@2@@std@@@2@@property_tree@boost@@@std@@@2@@234@@detail@multi_index@boost@@@detail@multi_index@boost@@@detail@multi_index@boost@@PAU1234@@detail@multi_index@boost@@YAPAU?$copy_map_entry@U?$sequenced_index_node@U?$ordered_index_node@Unull_augment_policy@detail@multi_index@boost@@U?$index_node_base@U?$pair@$$CBV?$basic_string@DU?$char_traits@D@std@@V?$allocator@D@2@@std@@V?$basic_ptree@V?$basic_string@DU?$char_traits@D@std@@V?$allocator@D@2@@std@@V12@U?$less@V?$basic_string@DU?$char_traits@D@std@@V?$allocator@D@2@@std@@@2@@property_tree@boost@@@std@@V?$allocator@U?$pair@$$CBV?$basic_string@DU?$char_traits@D@std@@V?$allocator@D@2@@std@@V?$basic_ptree@V?$basic_string@DU?$char_traits@D@std@@V?$allocator@D@2@@std@@V12@U?$less@V?$basic_string@DU?$char_traits@D@std@@V?$allocator@D@2@@std@@@2@@property_tree@boost@@@std@@@2@@234@@detail@multi_index@boost@@@detail@multi_index@boost@@@012@ABQAU3012@@Z 1001b000 f i JsonWriter.obj
 0001:0001a000       ??$raw_ptr@PAU?$ordered_index_node_impl@Unull_augment_policy@detail@multi_index@boost@@V?$allocator@D@std@@@detail@multi_index@boost@@PAU1234@@detail@multi_index@boost@@YAPAU?$ordered_index_node_impl@Unull_augment_policy@detail@multi_index@boost@@V?$allocator@D@std@@@012@ABQAU3012@@Z 1001b000 f i JsonWriter.obj
 0001:0001a000       ??$raw_ptr@PAU?$sequenced_index_node_impl@V?$allocator@D@std@@@detail@multi_index@boost@@PAU1234@@detail@multi_index@boost@@YAPAU?$sequenced_index_node_impl@V?$allocator@D@std@@@012@ABQAU3012@@Z 1001b000 f i JsonWriter.obj
 0001:0001a030       ??$construct@U?$pair@$$CBV?$basic_string@DU?$char_traits@D@std@@V?$allocator@D@2@@std@@V?$basic_ptree@V?$basic_string@DU?$char_traits@D@std@@V?$allocator@D@2@@std@@V12@U?$less@V?$basic_string@DU?$char_traits@D@std@@V?$allocator@D@2@@std@@@2@@property_tree@boost@@@std@@@allocator@detail@boost@@YAXPAXABU?$pair@$$CBV?$basic_string@DU?$char_traits@D@std@@V?$allocator@D@2@@std@@V?$basic_ptree@V?$basic_string@DU?$char_traits@D@std@@V?$allocator@D@2@@std@@V12@U?$less@V?$basic_string@DU?$char_traits@D@std@@V?$allocator@D@2@@std@@@2@@property_tree@boost@@@std@@@Z 1001b030 f i JsonWriter.obj
 0001:0001a060       ??$sort@PAU?$copy_map_entry@U?$sequenced_index_node@U?$ordered_index_node@Unull_augment_policy@detail@multi_index@boost@@U?$index_node_base@U?$pair@$$CBV?$basic_string@DU?$char_traits@D@std@@V?$allocator@D@2@@std@@V?$basic_ptree@V?$basic_string@DU?$char_traits@D@std@@V?$allocator@D@2@@std@@V12@U?$less@V?$basic_string@DU?$char_traits@D@std@@V?$allocator@D@2@@std@@@2@@property_tree@boost@@@std@@V?$allocator@U?$pair@$$CBV?$basic_string@DU?$char_traits@D@std@@V?$allocator@D@2@@std@@V?$basic_ptree@V?$basic_string@DU?$char_traits@D@std@@V?$allocator@D@2@@std@@V12@U?$less@V?$basic_string@DU?$char_traits@D@std@@V?$allocator@D@2@@std@@@2@@property_tree@boost@@@std@@@2@@234@@detail@multi_index@boost@@@detail@multi_index@boost@@@detail@multi_index@boost@@@std@@YAXQAU?$copy_map_entry@U?$sequenced_index_node@U?$ordered_index_node@Unull_augment_policy@detail@multi_index@boost@@U?$index_node_base@U?$pair@$$CBV?$basic_string@DU?$char_traits@D@std@@V?$allocator@D@2@@std@@V?$basic_ptree@V?$basic_string@DU?$char_traits@D@std@@V?$allocator@D@2@@std@@V12@U?$less@V?$basic_string@DU?$char_traits@D@std@@V?$allocator@D@2@@std@@@2@@property_tree@boost@@@std@@V?$allocator@U?$pair@$$CBV?$basic_string@DU?$char_traits@D@std@@V?$allocator@D@2@@std@@V?$basic_ptree@V?$basic_string@DU?$char_traits@D@std@@V?$allocator@D@2@@std@@V12@U?$less@V?$basic_string@DU?$char_traits@D@std@@V?$allocator@D@2@@std@@@2@@property_tree@boost@@@std@@@2@@234@@detail@multi_index@boost@@@detail@multi_index@boost@@@detail@multi_index@boost@@0@Z 1001b060 f i JsonWriter.obj
 0001:0001a080       ??$destroy@U?$pair@$$CBV?$basic_string@DU?$char_traits@D@std@@V?$allocator@D@2@@std@@V?$basic_ptree@V?$basic_string@DU?$char_traits@D@std@@V?$allocator@D@2@@std@@V12@U?$less@V?$basic_string@DU?$char_traits@D@std@@V?$allocator@D@2@@std@@@2@@property_tree@boost@@@std@@@allocator@detail@boost@@YAXPBU?$pair@$$CBV?$basic_string@DU?$char_traits@D@std@@V?$allocator@D@2@@std@@V?$basic_ptree@V?$basic_string@DU?$char_traits@D@std@@V?$allocator@D@2@@std@@V12@U?$less@V?$basic_string@DU?$char_traits@D@std@@V?$allocator@D@2@@std@@@2@@property_tree@boost@@@std@@@Z 1001b080 f i JsonWriter.obj
 0001:0001a090       ??$?0V?$bidir_node_iterator@U?$sequenced_index_node@U?$ordered_index_node@Unull_augment_policy@detail@multi_index@boost@@U?$index_node_base@U?$pair@$$CBV?$basic_string@DU?$char_traits@D@std@@V?$allocator@D@2@@std@@V?$basic_ptree@V?$basic_string@DU?$char_traits@D@std@@V?$allocator@D@2@@std@@V12@U?$less@V?$basic_string@DU?$char_traits@D@std@@V?$allocator@D@2@@std@@@2@@property_tree@boost@@@std@@V?$allocator@U?$pair@$$CBV?$basic_string@DU?$char_traits@D@std@@V?$allocator@D@2@@std@@V?$basic_ptree@V?$basic_string@DU?$char_traits@D@std@@V?$allocator@D@2@@std@@V12@U?$less@V?$basic_string@DU?$char_traits@D@std@@V?$allocator@D@2@@std@@@2@@property_tree@boost@@@std@@@2@@234@@detail@multi_index@boost@@@detail@multi_index@boost@@@detail@multi_index@boost@@AA_N$0A@@?$pair@V?$bidir_node_iterator@U?$sequenced_index_node@U?$ordered_index_node@Unull_augment_policy@detail@multi_index@boost@@U?$index_node_base@U?$pair@$$CBV?$basic_string@DU?$char_traits@D@std@@V?$allocator@D@2@@std@@V?$basic_ptree@V?$basic_string@DU?$char_traits@D@std@@V?$allocator@D@2@@std@@V12@U?$less@V?$basic_string@DU?$char_traits@D@std@@V?$allocator@D@2@@std@@@2@@property_tree@boost@@@std@@V?$allocator@U?$pair@$$CBV?$basic_string@DU?$char_traits@D@std@@V?$allocator@D@2@@std@@V?$basic_ptree@V?$basic_string@DU?$char_traits@D@std@@V?$allocator@D@2@@std@@V12@U?$less@V?$basic_string@DU?$char_traits@D@std@@V?$allocator@D@2@@std@@@2@@property_tree@boost@@@std@@@2@@234@@detail@multi_index@boost@@@detail@multi_index@boost@@@detail@multi_index@boost@@_N@std@@QAE@$$QAV?$bidir_node_iterator@U?$sequenced_index_node@U?$ordered_index_node@Unull_augment_policy@detail@multi_index@boost@@U?$index_node_base@U?$pair@$$CBV?$basic_string@DU?$char_traits@D@std@@V?$allocator@D@2@@std@@V?$basic_ptree@V?$basic_string@DU?$char_traits@D@std@@V?$allocator@D@2@@std@@V12@U?$less@V?$basic_string@DU?$char_traits@D@std@@V?$allocator@D@2@@std@@@2@@property_tree@boost@@@std@@V?$allocator@U?$pair@$$CBV?$basic_string@DU?$char_traits@D@std@@V?$allocator@D@2@@std@@V?$basic_ptree@V?$basic_string@DU?$char_traits@D@std@@V?$allocator@D@2@@std@@V12@U?$less@V?$basic_string@DU?$char_traits@D@std@@V?$allocator@D@2@@std@@@2@@property_tree@boost@@@std@@@2@@234@@detail@multi_index@boost@@@detail@multi_index@boost@@@detail@multi_index@boost@@AA_N@Z 1001b090 f i JsonWriter.obj
 0001:0001a0d0       ??$lower_bound@PBU?$copy_map_entry@U?$sequenced_index_node@U?$ordered_index_node@Unull_augment_policy@detail@multi_index@boost@@U?$index_node_base@U?$pair@$$CBV?$basic_string@DU?$char_traits@D@std@@V?$allocator@D@2@@std@@V?$basic_ptree@V?$basic_string@DU?$char_traits@D@std@@V?$allocator@D@2@@std@@V12@U?$less@V?$basic_string@DU?$char_traits@D@std@@V?$allocator@D@2@@std@@@2@@property_tree@boost@@@std@@V?$allocator@U?$pair@$$CBV?$basic_string@DU?$char_traits@D@std@@V?$allocator@D@2@@std@@V?$basic_ptree@V?$basic_string@DU?$char_traits@D@std@@V?$allocator@D@2@@std@@V12@U?$less@V?$basic_string@DU?$char_traits@D@std@@V?$allocator@D@2@@std@@@2@@property_tree@boost@@@std@@@2@@234@@detail@multi_index@boost@@@detail@multi_index@boost@@@detail@multi_index@boost@@U1234@@std@@YAPBU?$copy_map_entry@U?$sequenced_index_node@U?$ordered_index_node@Unull_augment_policy@detail@multi_index@boost@@U?$index_node_base@U?$pair@$$CBV?$basic_string@DU?$char_traits@D@std@@V?$allocator@D@2@@std@@V?$basic_ptree@V?$basic_string@DU?$char_traits@D@std@@V?$allocator@D@2@@std@@V12@U?$less@V?$basic_string@DU?$char_traits@D@std@@V?$allocator@D@2@@std@@@2@@property_tree@boost@@@std@@V?$allocator@U?$pair@$$CBV?$basic_string@DU?$char_traits@D@std@@V?$allocator@D@2@@std@@V?$basic_ptree@V?$basic_string@DU?$char_traits@D@std@@V?$allocator@D@2@@std@@V12@U?$less@V?$basic_string@DU?$char_traits@D@std@@V?$allocator@D@2@@std@@@2@@property_tree@boost@@@std@@@2@@234@@detail@multi_index@boost@@@detail@multi_index@boost@@@detail@multi_index@boost@@PBU1234@0ABU1234@@Z 1001b0d0 f i JsonWriter.obj
 0001:0001a100       ??$raw_ptr@PBU?$copy_map_entry@U?$sequenced_index_node@U?$ordered_index_node@Unull_augment_policy@detail@multi_index@boost@@U?$index_node_base@U?$pair@$$CBV?$basic_string@DU?$char_traits@D@std@@V?$allocator@D@2@@std@@V?$basic_ptree@V?$basic_string@DU?$char_traits@D@std@@V?$allocator@D@2@@std@@V12@U?$less@V?$basic_string@DU?$char_traits@D@std@@V?$allocator@D@2@@std@@@2@@property_tree@boost@@@std@@V?$allocator@U?$pair@$$CBV?$basic_string@DU?$char_traits@D@std@@V?$allocator@D@2@@std@@V?$basic_ptree@V?$basic_string@DU?$char_traits@D@std@@V?$allocator@D@2@@std@@V12@U?$less@V?$basic_string@DU?$char_traits@D@std@@V?$allocator@D@2@@std@@@2@@property_tree@boost@@@std@@@2@@234@@detail@multi_index@boost@@@detail@multi_index@boost@@@detail@multi_index@boost@@PAU1234@@detail@multi_index@boost@@YAPBU?$copy_map_entry@U?$sequenced_index_node@U?$ordered_index_node@Unull_augment_policy@detail@multi_index@boost@@U?$index_node_base@U?$pair@$$CBV?$basic_string@DU?$char_traits@D@std@@V?$allocator@D@2@@std@@V?$basic_ptree@V?$basic_string@DU?$char_traits@D@std@@V?$allocator@D@2@@std@@V12@U?$less@V?$basic_string@DU?$char_traits@D@std@@V?$allocator@D@2@@std@@@2@@property_tree@boost@@@std@@V?$allocator@U?$pair@$$CBV?$basic_string@DU?$char_traits@D@std@@V?$allocator@D@2@@std@@V?$basic_ptree@V?$basic_string@DU?$char_traits@D@std@@V?$allocator@D@2@@std@@V12@U?$less@V?$basic_string@DU?$char_traits@D@std@@V?$allocator@D@2@@std@@@2@@property_tree@boost@@@std@@@2@@234@@detail@multi_index@boost@@@detail@multi_index@boost@@@012@ABQAU3012@@Z 1001b100 f i JsonWriter.obj
 0001:0001a130       ??$get@$00U?$member@U?$pair@$$CBV?$basic_string@DU?$char_traits@D@std@@V?$allocator@D@2@@std@@V?$basic_ptree@V?$basic_string@DU?$char_traits@D@std@@V?$allocator@D@2@@std@@V12@U?$less@V?$basic_string@DU?$char_traits@D@std@@V?$allocator@D@2@@std@@@2@@property_tree@boost@@@std@@$$CBV?$basic_string@DU?$char_traits@D@std@@V?$allocator@D@2@@2@$0A@@multi_index@boost@@U?$cons@U?$less@V?$basic_string@DU?$char_traits@D@std@@V?$allocator@D@2@@std@@@std@@Unull_type@tuples@boost@@@tuples@3@@tuples@boost@@YAABU?$less@V?$basic_string@DU?$char_traits@D@std@@V?$allocator@D@2@@std@@@std@@ABU?$cons@U?$member@U?$pair@$$CBV?$basic_string@DU?$char_traits@D@std@@V?$allocator@D@2@@std@@V?$basic_ptree@V?$basic_string@DU?$char_traits@D@std@@V?$allocator@D@2@@std@@V12@U?$less@V?$basic_string@DU?$char_traits@D@std@@V?$allocator@D@2@@std@@@2@@property_tree@boost@@@std@@$$CBV?$basic_string@DU?$char_traits@D@std@@V?$allocator@D@2@@2@$0A@@multi_index@boost@@U?$cons@U?$less@V?$basic_string@DU?$char_traits@D@std@@V?$allocator@D@2@@std@@@std@@Unull_type@tuples@boost@@@tuples@3@@01@@Z 1001b130 f i JsonWriter.obj
 0001:0001a150       ??$_Get_size_of_n@$0EI@@std@@YAII@Z 1001b150 f i JsonWriter.obj
